ARM GAS  C:\Users\PIERRE~1\AppData\Local\Temp\ccOC95JZ.s 			page 1


   1              		.syntax unified
   2              		.cpu cortex-m3
   3              		.fpu softvfp
   4              		.eabi_attribute 20, 1
   5              		.eabi_attribute 21, 1
   6              		.eabi_attribute 23, 3
   7              		.eabi_attribute 24, 1
   8              		.eabi_attribute 25, 1
   9              		.eabi_attribute 26, 1
  10              		.eabi_attribute 30, 1
  11              		.eabi_attribute 34, 1
  12              		.eabi_attribute 18, 4
  13              		.thumb
  14              		.syntax unified
  15              		.file	"main.c"
  16              		.text
  17              	.Ltext0:
  18              		.cfi_sections	.debug_frame
  19              		.section	.text.freeRTOSInit,"ax",%progbits
  20              		.align	2
  21              		.thumb
  22              		.thumb_func
  23              		.type	freeRTOSInit, %function
  24              	freeRTOSInit:
  25              	.LFB72:
  26              		.file 1 "main.c"
   1:main.c        **** #include <project.h>
   2:main.c        **** 
   3:main.c        **** /* RTOS includes. */
   4:main.c        **** #include "FreeRTOS.h"
   5:main.c        **** #include "task.h"
   6:main.c        **** #include "queue.h"
   7:main.c        **** #include "timers.h"
   8:main.c        **** #include "semphr.h"
   9:main.c        **** 
  10:main.c        **** #include "main.h"
  11:main.c        **** #include "stdio.h"
  12:main.c        **** #include "dwm1000.h"
  13:main.c        **** #include <string.h>
  14:main.c        **** #include <inttypes.h>
  15:main.c        **** #include <math.h>
  16:main.c        **** 
  17:main.c        **** #define NESTED_ISR                          (3u)
  18:main.c        **** #define DEFAULT_PRIORITY                    (1u)
  19:main.c        **** #define HIGHER_PRIORITY                     (2u)
  20:main.c        **** 
  21:main.c        **** #define LIGHT_OFF (0u)
  22:main.c        **** #define LIGHT_ON (1u)
  23:main.c        **** uint32_t StatusRegister;
  24:main.c        **** static volatile enum STATE state;
  25:main.c        **** 
  26:main.c        **** /* Private variables */
  27:main.c        **** static uint8_t RxData[128];
  28:main.c        **** static uint8_t TxData[128];
  29:main.c        **** 
  30:main.c        **** static uint8_t t2_8[5];
  31:main.c        **** static uint8_t t3_8[5];
ARM GAS  C:\Users\PIERRE~1\AppData\Local\Temp\ccOC95JZ.s 			page 2


  32:main.c        **** static uint8_t t6_8[5];
  33:main.c        **** 
  34:main.c        **** // Boolean variables
  35:main.c        **** uint8_t TxOk = 0;
  36:main.c        **** uint8_t RxOk = 0;
  37:main.c        **** uint8_t RxError = 0;
  38:main.c        **** uint8_t inter = 0;
  39:main.c        **** 
  40:main.c        **** /* 		Tasks 		 */
  41:main.c        **** static void freeRTOSInit(void);
  42:main.c        **** static void state_machine_task(void *arg);
  43:main.c        **** 
  44:main.c        **** uint32_t byte2long(uint8_t data[]){
  45:main.c        **** 	uint32_t res;
  46:main.c        **** 	res = data[0]|data[1]<<8|data[2]<<16|data[3]<<24;
  47:main.c        **** 	return res;
  48:main.c        **** }
  49:main.c        **** 
  50:main.c        **** CY_ISR_PROTO(ISR);
  51:main.c        **** CY_ISR(ISR){
  52:main.c        ****     IRQ_ClearPending();    /* Clear pending Interrupt */
  53:main.c        ****     pin_1_ClearInterrupt();    /* Clear pin Interrupt */
  54:main.c        **** 	inter = 1;
  55:main.c        **** }
  56:main.c        **** 
  57:main.c        **** int main( void )
  58:main.c        **** {	
  59:main.c        ****     
  60:main.c        ****     LED_1_Write(LIGHT_OFF);
  61:main.c        ****     LED_2_Write(LIGHT_OFF);
  62:main.c        ****     LED_3_Write(LIGHT_OFF);
  63:main.c        ****     LED_4_Write(LIGHT_OFF);
  64:main.c        ****     
  65:main.c        ****     /* Enable global interrupts */
  66:main.c        ****     CyGlobalIntEnable;
  67:main.c        ****     Timer_1_Start();
  68:main.c        ****     freeRTOSInit();
  69:main.c        ****     SPIM_Start();
  70:main.c        **** 
  71:main.c        ****     IRQ_StartEx(ISR);
  72:main.c        ****     IRQ_SetPriority(DEFAULT_PRIORITY);
  73:main.c        **** 	/* initialisation of the DecaWave */
  74:main.c        **** 	CyDelay(10u); //time for the DW to go from Wakeup to init and then IDLE
  75:main.c        **** 	DWM_Init();
  76:main.c        ****     
  77:main.c        ****     xTaskCreate(state_machine_task,"state_machine_task", 1024, NULL, DEFAULT_PRIORITY, NULL);
  78:main.c        ****     
  79:main.c        ****     vTaskStartScheduler();     
  80:main.c        ****     for(;;)
  81:main.c        ****     {
  82:main.c        ****     }
  83:main.c        **** }
  84:main.c        **** 
  85:main.c        **** static void freeRTOSInit( void )
  86:main.c        **** {
  27              		.loc 1 86 0
  28              		.cfi_startproc
ARM GAS  C:\Users\PIERRE~1\AppData\Local\Temp\ccOC95JZ.s 			page 3


  29              		@ args = 0, pretend = 0, frame = 0
  30              		@ frame_needed = 0, uses_anonymous_args = 0
  31              		@ link register save eliminated.
  87:main.c        **** /* Port layer functions that need to be copied into the vector table. */
  88:main.c        **** extern void xPortPendSVHandler( void );
  89:main.c        **** extern void xPortSysTickHandler( void );
  90:main.c        **** extern void vPortSVCHandler( void );
  91:main.c        **** extern cyisraddress CyRamVectors[];
  92:main.c        **** 
  93:main.c        **** 	/* Install the OS Interrupt Handlers. */
  94:main.c        **** 	CyRamVectors[ 11 ] = ( cyisraddress ) vPortSVCHandler;
  32              		.loc 1 94 0
  33 0000 034B     		ldr	r3, .L2
  34 0002 044A     		ldr	r2, .L2+4
  35 0004 DA62     		str	r2, [r3, #44]
  95:main.c        **** 	CyRamVectors[ 14 ] = ( cyisraddress ) xPortPendSVHandler;
  36              		.loc 1 95 0
  37 0006 044A     		ldr	r2, .L2+8
  38 0008 9A63     		str	r2, [r3, #56]
  96:main.c        **** 	CyRamVectors[ 15 ] = ( cyisraddress ) xPortSysTickHandler;
  39              		.loc 1 96 0
  40 000a 044A     		ldr	r2, .L2+12
  41 000c DA63     		str	r2, [r3, #60]
  42 000e 7047     		bx	lr
  43              	.L3:
  44              		.align	2
  45              	.L2:
  46 0010 00000000 		.word	CyRamVectors
  47 0014 00000000 		.word	vPortSVCHandler
  48 0018 00000000 		.word	xPortPendSVHandler
  49 001c 00000000 		.word	xPortSysTickHandler
  50              		.cfi_endproc
  51              	.LFE72:
  52              		.size	freeRTOSInit, .-freeRTOSInit
  53              		.section	.text.ISR,"ax",%progbits
  54              		.align	2
  55              		.global	ISR
  56              		.thumb
  57              		.thumb_func
  58              		.type	ISR, %function
  59              	ISR:
  60              	.LFB70:
  51:main.c        ****     IRQ_ClearPending();    /* Clear pending Interrupt */
  61              		.loc 1 51 0
  62              		.cfi_startproc
  63              		@ args = 0, pretend = 0, frame = 0
  64              		@ frame_needed = 0, uses_anonymous_args = 0
  65 0000 08B5     		push	{r3, lr}
  66              		.cfi_def_cfa_offset 8
  67              		.cfi_offset 3, -8
  68              		.cfi_offset 14, -4
  52:main.c        ****     pin_1_ClearInterrupt();    /* Clear pin Interrupt */
  69              		.loc 1 52 0
  70 0002 FFF7FEFF 		bl	IRQ_ClearPending
  71              	.LVL0:
  53:main.c        **** 	inter = 1;
  72              		.loc 1 53 0
ARM GAS  C:\Users\PIERRE~1\AppData\Local\Temp\ccOC95JZ.s 			page 4


  73 0006 FFF7FEFF 		bl	pin_1_ClearInterrupt
  74              	.LVL1:
  54:main.c        **** }
  75              		.loc 1 54 0
  76 000a 0122     		movs	r2, #1
  77 000c 014B     		ldr	r3, .L6
  78 000e 1A70     		strb	r2, [r3]
  79 0010 08BD     		pop	{r3, pc}
  80              	.L7:
  81 0012 00BF     		.align	2
  82              	.L6:
  83 0014 00000000 		.word	.LANCHOR0
  84              		.cfi_endproc
  85              	.LFE70:
  86              		.size	ISR, .-ISR
  87              		.section	.text.interrupt_routine,"ax",%progbits
  88              		.align	2
  89              		.thumb
  90              		.thumb_func
  91              		.type	interrupt_routine, %function
  92              	interrupt_routine:
  93              	.LFB73:
  97:main.c        **** }
  98:main.c        **** 
  99:main.c        **** static void interrupt_routine(void){
  94              		.loc 1 99 0
  95              		.cfi_startproc
  96              		@ args = 0, pretend = 0, frame = 8
  97              		@ frame_needed = 0, uses_anonymous_args = 0
  98 0000 10B5     		push	{r4, lr}
  99              		.cfi_def_cfa_offset 8
 100              		.cfi_offset 4, -8
 101              		.cfi_offset 14, -4
 102 0002 82B0     		sub	sp, sp, #8
 103              		.cfi_def_cfa_offset 16
 100:main.c        **** 	uint8_t RxBuffer[4];
 101:main.c        **** 	uint32_t StatusRegister;
 102:main.c        **** 	uint8_t ack[4] = {0};
 104              		.loc 1 102 0
 105 0004 0023     		movs	r3, #0
 106 0006 0093     		str	r3, [sp]
 103:main.c        **** 	// Getting status Register
 104:main.c        **** 	DWM_ReadSPI_ext(SYS_STATUS, NO_SUB,  RxBuffer, 4);
 107              		.loc 1 104 0
 108 0008 0423     		movs	r3, #4
 109 000a 0DEB0302 		add	r2, sp, r3
 110 000e 4FF6FF71 		movw	r1, #65535
 111 0012 0F20     		movs	r0, #15
 112 0014 FFF7FEFF 		bl	DWM_ReadSPI_ext
 113              	.LVL2:
 105:main.c        **** 	StatusRegister  = (RxBuffer[3] << 24) | (RxBuffer[2] << 16) | (RxBuffer[1] << 8) | RxBuffer[0];
 114              		.loc 1 105 0
 115 0018 9DF80740 		ldrb	r4, [sp, #7]	@ zero_extendqisi2
 116 001c 9DF80630 		ldrb	r3, [sp, #6]	@ zero_extendqisi2
 117 0020 1B04     		lsls	r3, r3, #16
 118 0022 43EA0464 		orr	r4, r3, r4, lsl #24
 119 0026 9DF80530 		ldrb	r3, [sp, #5]	@ zero_extendqisi2
ARM GAS  C:\Users\PIERRE~1\AppData\Local\Temp\ccOC95JZ.s 			page 5


 120 002a 44EA0323 		orr	r3, r4, r3, lsl #8
 121 002e 9DF80440 		ldrb	r4, [sp, #4]	@ zero_extendqisi2
 122 0032 1C43     		orrs	r4, r4, r3
 123              	.LVL3:
 106:main.c        **** 	if (StatusRegister == 0xFFFFFFFF) {
 124              		.loc 1 106 0
 125 0034 B4F1FF3F 		cmp	r4, #-1
 126 0038 15D1     		bne	.L9
 107:main.c        **** 		// Read again
 108:main.c        **** 		DWM_ReadSPI_ext(SYS_STATUS, NO_SUB,  RxBuffer, 4);
 127              		.loc 1 108 0
 128 003a 0423     		movs	r3, #4
 129 003c 0DEB0302 		add	r2, sp, r3
 130 0040 4FF6FF71 		movw	r1, #65535
 131 0044 0F20     		movs	r0, #15
 132 0046 FFF7FEFF 		bl	DWM_ReadSPI_ext
 133              	.LVL4:
 109:main.c        **** 		StatusRegister  = (RxBuffer[3] << 24) | (RxBuffer[2] << 16) | (RxBuffer[1] << 8) | RxBuffer[0];
 134              		.loc 1 109 0
 135 004a 9DF80740 		ldrb	r4, [sp, #7]	@ zero_extendqisi2
 136              	.LVL5:
 137 004e 9DF80630 		ldrb	r3, [sp, #6]	@ zero_extendqisi2
 138 0052 1B04     		lsls	r3, r3, #16
 139 0054 43EA0463 		orr	r3, r3, r4, lsl #24
 140 0058 9DF80540 		ldrb	r4, [sp, #5]	@ zero_extendqisi2
 141 005c 43EA0423 		orr	r3, r3, r4, lsl #8
 142 0060 9DF80440 		ldrb	r4, [sp, #4]	@ zero_extendqisi2
 143 0064 1C43     		orrs	r4, r4, r3
 144              	.LVL6:
 145              	.L9:
 110:main.c        **** 	}
 111:main.c        **** 	if (StatusRegister & TX_OK_MASK){
 146              		.loc 1 111 0
 147 0066 14F0800F 		tst	r4, #128
 148 006a 07D0     		beq	.L10
 112:main.c        **** 		TxOk = 1;
 149              		.loc 1 112 0
 150 006c 0123     		movs	r3, #1
 151 006e 1C4A     		ldr	r2, .L14
 152 0070 5370     		strb	r3, [r2, #1]
 113:main.c        **** 		setBit(ack, 4, TX_OK_BIT, 1);
 153              		.loc 1 113 0
 154 0072 0722     		movs	r2, #7
 155 0074 0421     		movs	r1, #4
 156 0076 6846     		mov	r0, sp
 157 0078 FFF7FEFF 		bl	setBit
 158              	.LVL7:
 159              	.L10:
 114:main.c        **** 	}
 115:main.c        **** 	// check if RX finished
 116:main.c        ****     if((StatusRegister & RX_FINISHED_MASK) == RX_FINISHED_MASK){
 160              		.loc 1 116 0
 161 007c 04F4C843 		and	r3, r4, #25600
 162 0080 B3F5C84F 		cmp	r3, #25600
 163 0084 08D1     		bne	.L11
 117:main.c        ****     	ack[0] |= RX_FINISHED_MASK;
 118:main.c        **** 		ack[1] |= RX_FINISHED_MASK >> 8;
ARM GAS  C:\Users\PIERRE~1\AppData\Local\Temp\ccOC95JZ.s 			page 6


 164              		.loc 1 118 0
 165 0086 9DF80130 		ldrb	r3, [sp, #1]	@ zero_extendqisi2
 166 008a 43F06403 		orr	r3, r3, #100
 167 008e 8DF80130 		strb	r3, [sp, #1]
 119:main.c        **** 		ack[2] |= RX_FINISHED_MASK >> 16;
 120:main.c        **** 		ack[3] |= RX_FINISHED_MASK >> 24;
 121:main.c        **** 		RxOk = 1;
 168              		.loc 1 121 0
 169 0092 0122     		movs	r2, #1
 170 0094 124B     		ldr	r3, .L14
 171 0096 9A70     		strb	r2, [r3, #2]
 172              	.L11:
 122:main.c        **** 	}
 123:main.c        **** 	if (StatusRegister & RX_ERROR_MASK) {
 173              		.loc 1 123 0
 174 0098 124B     		ldr	r3, .L14+4
 175 009a 1C42     		tst	r4, r3
 176 009c 14D0     		beq	.L12
 124:main.c        **** 		ack[0] |= RX_ERROR_MASK;
 125:main.c        **** 		ack[1] |= RX_ERROR_MASK >> 8;
 177              		.loc 1 125 0
 178 009e 9DF80130 		ldrb	r3, [sp, #1]	@ zero_extendqisi2
 179 00a2 63F06F03 		orn	r3, r3, #111
 180 00a6 8DF80130 		strb	r3, [sp, #1]
 126:main.c        **** 		ack[2] |= RX_ERROR_MASK >> 16;
 181              		.loc 1 126 0
 182 00aa 9DF80230 		ldrb	r3, [sp, #2]	@ zero_extendqisi2
 183 00ae 43F02703 		orr	r3, r3, #39
 184 00b2 8DF80230 		strb	r3, [sp, #2]
 127:main.c        **** 		ack[3] |= RX_ERROR_MASK >> 24;
 185              		.loc 1 127 0
 186 00b6 9DF80330 		ldrb	r3, [sp, #3]	@ zero_extendqisi2
 187 00ba 43F00403 		orr	r3, r3, #4
 188 00be 8DF80330 		strb	r3, [sp, #3]
 128:main.c        **** 		RxError = 1;
 189              		.loc 1 128 0
 190 00c2 0122     		movs	r2, #1
 191 00c4 064B     		ldr	r3, .L14
 192 00c6 DA70     		strb	r2, [r3, #3]
 193              	.L12:
 129:main.c        ****     }
 130:main.c        ****     
 131:main.c        **** 	// clear IRQ flags on DW
 132:main.c        **** 	DWM_WriteSPI_ext(SYS_STATUS, NO_SUB, ack, 4);
 194              		.loc 1 132 0
 195 00c8 0423     		movs	r3, #4
 196 00ca 6A46     		mov	r2, sp
 197 00cc 4FF6FF71 		movw	r1, #65535
 198 00d0 0F20     		movs	r0, #15
 199 00d2 FFF7FEFF 		bl	DWM_WriteSPI_ext
 200              	.LVL8:
 133:main.c        ****     inter=0;
 201              		.loc 1 133 0
 202 00d6 0022     		movs	r2, #0
 203 00d8 014B     		ldr	r3, .L14
 204 00da 1A70     		strb	r2, [r3]
 134:main.c        **** }
ARM GAS  C:\Users\PIERRE~1\AppData\Local\Temp\ccOC95JZ.s 			page 7


 205              		.loc 1 134 0
 206 00dc 02B0     		add	sp, sp, #8
 207              		.cfi_def_cfa_offset 8
 208              		@ sp needed
 209 00de 10BD     		pop	{r4, pc}
 210              	.LVL9:
 211              	.L15:
 212              		.align	2
 213              	.L14:
 214 00e0 00000000 		.word	.LANCHOR0
 215 00e4 00902704 		.word	69701632
 216              		.cfi_endproc
 217              	.LFE73:
 218              		.size	interrupt_routine, .-interrupt_routine
 219              		.section	.text.state_machine_task,"ax",%progbits
 220              		.align	2
 221              		.thumb
 222              		.thumb_func
 223              		.type	state_machine_task, %function
 224              	state_machine_task:
 225              	.LFB74:
 135:main.c        **** 
 136:main.c        **** static void state_machine_task(void *arg)
 137:main.c        **** {	
 226              		.loc 1 137 0
 227              		.cfi_startproc
 228              		@ args = 0, pretend = 0, frame = 0
 229              		@ frame_needed = 0, uses_anonymous_args = 0
 230              	.LVL10:
 231 0000 38B5     		push	{r3, r4, r5, lr}
 232              		.cfi_def_cfa_offset 16
 233              		.cfi_offset 3, -16
 234              		.cfi_offset 4, -12
 235              		.cfi_offset 5, -8
 236              		.cfi_offset 14, -4
 237              	.LVL11:
 238              	.L38:
 138:main.c        ****     (void)arg;
 139:main.c        ****     
 140:main.c        **** 	for(;;){
 141:main.c        ****         state = STATE_INIT;
 239              		.loc 1 141 0
 240 0002 0024     		movs	r4, #0
 241 0004 664B     		ldr	r3, .L40
 242 0006 1C71     		strb	r4, [r3, #4]
 142:main.c        ****         Timer_1_Enable();   //Timer
 243              		.loc 1 142 0
 244 0008 FFF7FEFF 		bl	Timer_1_Enable
 245              	.LVL12:
 143:main.c        ****         rst_in_Write(1u);   //reset timer
 246              		.loc 1 143 0
 247 000c 0120     		movs	r0, #1
 248 000e FFF7FEFF 		bl	rst_in_Write
 249              	.LVL13:
 144:main.c        ****         CyDelay(1u);
 250              		.loc 1 144 0
 251 0012 0120     		movs	r0, #1
ARM GAS  C:\Users\PIERRE~1\AppData\Local\Temp\ccOC95JZ.s 			page 8


 252 0014 FFF7FEFF 		bl	CyDelay
 253              	.LVL14:
 145:main.c        ****         rst_in_Write(0u);
 254              		.loc 1 145 0
 255 0018 2046     		mov	r0, r4
 256 001a FFF7FEFF 		bl	rst_in_Write
 257              	.LVL15:
 146:main.c        ****         while(Timer_1_ReadCounter()>0x001F){
 258              		.loc 1 146 0
 259 001e B8E0     		b	.L18
 260              	.L37:
 147:main.c        ****     		switch (state){
 261              		.loc 1 147 0
 262 0020 5F4B     		ldr	r3, .L40
 263 0022 1B79     		ldrb	r3, [r3, #4]	@ zero_extendqisi2
 264 0024 DBB2     		uxtb	r3, r3
 265 0026 062B     		cmp	r3, #6
 266 0028 00F2B380 		bhi	.L18
 267 002c DFE803F0 		tbb	[pc, r3]
 268              	.L20:
 269 0030 04       		.byte	(.L19-.L20)/2
 270 0031 0F       		.byte	(.L21-.L20)/2
 271 0032 43       		.byte	(.L22-.L20)/2
 272 0033 75       		.byte	(.L23-.L20)/2
 273 0034 81       		.byte	(.L24-.L20)/2
 274 0035 A5       		.byte	(.L25-.L20)/2
 275 0036 59       		.byte	(.L26-.L20)/2
 276 0037 00       		.p2align 1
 277              	.L19:
 148:main.c        ****     			case STATE_INIT :
 149:main.c        **** 					TxOk = 0;
 278              		.loc 1 149 0
 279 0038 594C     		ldr	r4, .L40
 280 003a 0023     		movs	r3, #0
 281 003c 6370     		strb	r3, [r4, #1]
 150:main.c        **** 					RxOk = 0;
 282              		.loc 1 150 0
 283 003e A370     		strb	r3, [r4, #2]
 151:main.c        ****                     idle();
 284              		.loc 1 151 0
 285 0040 FFF7FEFF 		bl	idle
 286              	.LVL16:
 152:main.c        ****     				DWM_Enable_Rx();
 287              		.loc 1 152 0
 288 0044 FFF7FEFF 		bl	DWM_Enable_Rx
 289              	.LVL17:
 153:main.c        ****     				state = STATE_WAIT_RECEIVE;
 290              		.loc 1 153 0
 291 0048 0123     		movs	r3, #1
 292 004a 2371     		strb	r3, [r4, #4]
 154:main.c        ****     			break;
 293              		.loc 1 154 0
 294 004c A1E0     		b	.L18
 295              	.L21:
 155:main.c        **** 
 156:main.c        ****     			case STATE_WAIT_RECEIVE :
 157:main.c        ****                     if(inter==1){
ARM GAS  C:\Users\PIERRE~1\AppData\Local\Temp\ccOC95JZ.s 			page 9


 296              		.loc 1 157 0
 297 004e 544B     		ldr	r3, .L40
 298 0050 1B78     		ldrb	r3, [r3]	@ zero_extendqisi2
 299 0052 012B     		cmp	r3, #1
 300 0054 01D1     		bne	.L28
 158:main.c        ****                         interrupt_routine();
 301              		.loc 1 158 0
 302 0056 FFF7FEFF 		bl	interrupt_routine
 303              	.LVL18:
 304              	.L28:
 159:main.c        ****                     }
 160:main.c        ****                     if (RxError){
 305              		.loc 1 160 0
 306 005a 514B     		ldr	r3, .L40
 307 005c DB78     		ldrb	r3, [r3, #3]	@ zero_extendqisi2
 308 005e 33B1     		cbz	r3, .L29
 161:main.c        **** 						RxError = 0;
 309              		.loc 1 161 0
 310 0060 4F4C     		ldr	r4, .L40
 311 0062 0025     		movs	r5, #0
 312 0064 E570     		strb	r5, [r4, #3]
 162:main.c        ****                         DWM_Reset_Rx();
 313              		.loc 1 162 0
 314 0066 FFF7FEFF 		bl	DWM_Reset_Rx
 315              	.LVL19:
 163:main.c        **** 						state = STATE_INIT;
 316              		.loc 1 163 0
 317 006a 2571     		strb	r5, [r4, #4]
 318 006c 91E0     		b	.L18
 319              	.L29:
 164:main.c        **** 					}else if (RxOk){
 320              		.loc 1 164 0
 321 006e 4C4B     		ldr	r3, .L40
 322 0070 9B78     		ldrb	r3, [r3, #2]	@ zero_extendqisi2
 323 0072 002B     		cmp	r3, #0
 324 0074 00F08D80 		beq	.L18
 165:main.c        ****     					// Read Rx buffer
 166:main.c        ****     					DWM_ReceiveData(RxData);
 325              		.loc 1 166 0
 326 0078 494C     		ldr	r4, .L40
 327 007a 04F10800 		add	r0, r4, #8
 328 007e FFF7FEFF 		bl	DWM_ReceiveData
 329              	.LVL20:
 167:main.c        ****     					// Check RxFrame
 168:main.c        ****     					if (RxData[0] == MASTER_FIRST_MESSAGE){
 330              		.loc 1 168 0
 331 0082 237A     		ldrb	r3, [r4, #8]	@ zero_extendqisi2
 332 0084 112B     		cmp	r3, #17
 333 0086 05D1     		bne	.L30
 169:main.c        ****     						state = STATE_MESSAGE_1;
 334              		.loc 1 169 0
 335 0088 0222     		movs	r2, #2
 336 008a 2271     		strb	r2, [r4, #4]
 170:main.c        ****                             LED_1_Write(LIGHT_ON);
 337              		.loc 1 170 0
 338 008c 0120     		movs	r0, #1
 339 008e FFF7FEFF 		bl	LED_1_Write
ARM GAS  C:\Users\PIERRE~1\AppData\Local\Temp\ccOC95JZ.s 			page 10


 340              	.LVL21:
 341 0092 0BE0     		b	.L31
 342              	.L30:
 171:main.c        ****     					}
 172:main.c        ****     					else if (RxData[0] == MASTER_SECOND_MESSAGE){
 343              		.loc 1 172 0
 344 0094 212B     		cmp	r3, #33
 345 0096 06D1     		bne	.L32
 173:main.c        ****     						state = STATE_MESSAGE_2;
 346              		.loc 1 173 0
 347 0098 0322     		movs	r2, #3
 348 009a 414B     		ldr	r3, .L40
 349 009c 1A71     		strb	r2, [r3, #4]
 174:main.c        ****                             LED_2_Write(LIGHT_ON);
 350              		.loc 1 174 0
 351 009e 0120     		movs	r0, #1
 352 00a0 FFF7FEFF 		bl	LED_2_Write
 353              	.LVL22:
 354 00a4 02E0     		b	.L31
 355              	.L32:
 175:main.c        ****     					}
 176:main.c        ****     					else {
 177:main.c        ****                             state = STATE_INIT;
 356              		.loc 1 177 0
 357 00a6 0022     		movs	r2, #0
 358 00a8 3D4B     		ldr	r3, .L40
 359 00aa 1A71     		strb	r2, [r3, #4]
 360              	.L31:
 178:main.c        ****     					}
 179:main.c        ****                         RxOk = 0;
 361              		.loc 1 179 0
 362 00ac 3C4B     		ldr	r3, .L40
 363 00ae 0022     		movs	r2, #0
 364 00b0 9A70     		strb	r2, [r3, #2]
 180:main.c        ****                         TxOk = 0;
 365              		.loc 1 180 0
 366 00b2 5A70     		strb	r2, [r3, #1]
 367 00b4 6DE0     		b	.L18
 368              	.L22:
 181:main.c        ****                     }
 182:main.c        ****     			break;
 183:main.c        **** 
 184:main.c        ****     			case STATE_MESSAGE_1:
 185:main.c        ****                     idle();
 369              		.loc 1 185 0
 370 00b6 FFF7FEFF 		bl	idle
 371              	.LVL23:
 186:main.c        ****     				DWM_ReadSPI_ext(RX_TIME,NO_SUB, t2_8,5);
 372              		.loc 1 186 0
 373 00ba 394C     		ldr	r4, .L40
 374 00bc 0523     		movs	r3, #5
 375 00be 04F18802 		add	r2, r4, #136
 376 00c2 4FF6FF71 		movw	r1, #65535
 377 00c6 1520     		movs	r0, #21
 378 00c8 FFF7FEFF 		bl	DWM_ReadSPI_ext
 379              	.LVL24:
 187:main.c        ****                     TxData[0] = SLAVE_STANDARD_MESSAGE; 
ARM GAS  C:\Users\PIERRE~1\AppData\Local\Temp\ccOC95JZ.s 			page 11


 380              		.loc 1 187 0
 381 00cc 2046     		mov	r0, r4
 382 00ce 1A23     		movs	r3, #26
 383 00d0 00F8903F 		strb	r3, [r0, #144]!
 188:main.c        ****     				DWM_SendData(TxData, 1, 1);
 384              		.loc 1 188 0
 385 00d4 0122     		movs	r2, #1
 386 00d6 1146     		mov	r1, r2
 387 00d8 FFF7FEFF 		bl	DWM_SendData
 388              	.LVL25:
 189:main.c        ****     				state = STATE_SEND_RESPONSE;
 389              		.loc 1 189 0
 390 00dc 0623     		movs	r3, #6
 391 00de 2371     		strb	r3, [r4, #4]
 190:main.c        ****     			break;
 392              		.loc 1 190 0
 393 00e0 57E0     		b	.L18
 394              	.L26:
 191:main.c        **** 
 192:main.c        ****     			case STATE_SEND_RESPONSE :
 193:main.c        ****                     if(inter==1){
 395              		.loc 1 193 0
 396 00e2 2F4B     		ldr	r3, .L40
 397 00e4 1B78     		ldrb	r3, [r3]	@ zero_extendqisi2
 398 00e6 012B     		cmp	r3, #1
 399 00e8 01D1     		bne	.L33
 194:main.c        ****                         interrupt_routine();
 400              		.loc 1 194 0
 401 00ea FFF7FEFF 		bl	interrupt_routine
 402              	.LVL26:
 403              	.L33:
 195:main.c        ****                     }
 196:main.c        **** 					if (TxOk){
 404              		.loc 1 196 0
 405 00ee 2C4B     		ldr	r3, .L40
 406 00f0 5B78     		ldrb	r3, [r3, #1]	@ zero_extendqisi2
 407 00f2 002B     		cmp	r3, #0
 408 00f4 4DD0     		beq	.L18
 197:main.c        ****                     DWM_ReadSPI_ext(TX_TIME, NO_SUB, t3_8, 5);
 409              		.loc 1 197 0
 410 00f6 2A4C     		ldr	r4, .L40
 411 00f8 0523     		movs	r3, #5
 412 00fa 04F58872 		add	r2, r4, #272
 413 00fe 4FF6FF71 		movw	r1, #65535
 414 0102 1720     		movs	r0, #23
 415 0104 FFF7FEFF 		bl	DWM_ReadSPI_ext
 416              	.LVL27:
 198:main.c        ****                     TxOk = 0;
 417              		.loc 1 198 0
 418 0108 0023     		movs	r3, #0
 419 010a 6370     		strb	r3, [r4, #1]
 199:main.c        ****                     idle();
 420              		.loc 1 199 0
 421 010c FFF7FEFF 		bl	idle
 422              	.LVL28:
 200:main.c        ****                     DWM_Enable_Rx();
 423              		.loc 1 200 0
ARM GAS  C:\Users\PIERRE~1\AppData\Local\Temp\ccOC95JZ.s 			page 12


 424 0110 FFF7FEFF 		bl	DWM_Enable_Rx
 425              	.LVL29:
 201:main.c        **** 					state = STATE_WAIT_RECEIVE;
 426              		.loc 1 201 0
 427 0114 0123     		movs	r3, #1
 428 0116 2371     		strb	r3, [r4, #4]
 429 0118 3BE0     		b	.L18
 430              	.L23:
 202:main.c        ****                     }
 203:main.c        ****     			break;
 204:main.c        **** 
 205:main.c        ****     			case STATE_MESSAGE_2 :
 206:main.c        ****     				//get T6
 207:main.c        ****     				DWM_ReadSPI_ext(RX_TIME, NO_SUB, t6_8,5);
 431              		.loc 1 207 0
 432 011a 214C     		ldr	r4, .L40
 433 011c 0523     		movs	r3, #5
 434 011e 04F58C72 		add	r2, r4, #280
 435 0122 4FF6FF71 		movw	r1, #65535
 436 0126 1520     		movs	r0, #21
 437 0128 FFF7FEFF 		bl	DWM_ReadSPI_ext
 438              	.LVL30:
 208:main.c        ****                     state = STATE_SEND_TIMES;
 439              		.loc 1 208 0
 440 012c 0423     		movs	r3, #4
 441 012e 2371     		strb	r3, [r4, #4]
 209:main.c        ****     			break;
 442              		.loc 1 209 0
 443 0130 2FE0     		b	.L18
 444              	.L24:
 210:main.c        ****                     
 211:main.c        ****                 case STATE_SEND_TIMES :
 212:main.c        ****                     idle();
 445              		.loc 1 212 0
 446 0132 FFF7FEFF 		bl	idle
 447              	.LVL31:
 448              	.LBB2:
 213:main.c        ****                     for (int i=0; i<5; i++){
 449              		.loc 1 213 0
 450 0136 0023     		movs	r3, #0
 451 0138 13E0     		b	.L34
 452              	.LVL32:
 453              	.L35:
 214:main.c        ****     					TxData[i] = t2_8[i];
 454              		.loc 1 214 0 discriminator 3
 455 013a 1948     		ldr	r0, .L40
 456 013c C218     		adds	r2, r0, r3
 457 013e 92F88810 		ldrb	r1, [r2, #136]	@ zero_extendqisi2
 458 0142 82F89010 		strb	r1, [r2, #144]
 215:main.c        ****     					TxData[i+5] = t3_8[i];
 459              		.loc 1 215 0 discriminator 3
 460 0146 591D     		adds	r1, r3, #5
 461 0148 92F81041 		ldrb	r4, [r2, #272]	@ zero_extendqisi2
 462 014c 0144     		add	r1, r1, r0
 463 014e 81F89040 		strb	r4, [r1, #144]
 216:main.c        ****     					TxData[i+10] = t6_8[i];
 464              		.loc 1 216 0 discriminator 3
ARM GAS  C:\Users\PIERRE~1\AppData\Local\Temp\ccOC95JZ.s 			page 13


 465 0152 03F10A01 		add	r1, r3, #10
 466 0156 92F81841 		ldrb	r4, [r2, #280]	@ zero_extendqisi2
 467 015a 4218     		adds	r2, r0, r1
 468 015c 82F89040 		strb	r4, [r2, #144]
 213:main.c        ****     					TxData[i] = t2_8[i];
 469              		.loc 1 213 0 discriminator 3
 470 0160 0133     		adds	r3, r3, #1
 471              	.LVL33:
 472              	.L34:
 213:main.c        ****     					TxData[i] = t2_8[i];
 473              		.loc 1 213 0 is_stmt 0 discriminator 1
 474 0162 042B     		cmp	r3, #4
 475 0164 E9DD     		ble	.L35
 476              	.LBE2:
 217:main.c        ****     				}
 218:main.c        ****     				DWM_SendData(TxData, 15, 1);
 477              		.loc 1 218 0 is_stmt 1
 478 0166 0E4C     		ldr	r4, .L40
 479 0168 0122     		movs	r2, #1
 480 016a 0F21     		movs	r1, #15
 481 016c 04F19000 		add	r0, r4, #144
 482 0170 FFF7FEFF 		bl	DWM_SendData
 483              	.LVL34:
 219:main.c        ****                     state = STATE_END_CYCLE;
 484              		.loc 1 219 0
 485 0174 0523     		movs	r3, #5
 486 0176 2371     		strb	r3, [r4, #4]
 220:main.c        ****     			break;
 487              		.loc 1 220 0
 488 0178 0BE0     		b	.L18
 489              	.L25:
 221:main.c        **** 
 222:main.c        ****                 case STATE_END_CYCLE:
 223:main.c        ****                     if(inter==1){
 490              		.loc 1 223 0
 491 017a 094B     		ldr	r3, .L40
 492 017c 1B78     		ldrb	r3, [r3]	@ zero_extendqisi2
 493 017e 012B     		cmp	r3, #1
 494 0180 01D1     		bne	.L36
 224:main.c        ****                         interrupt_routine();
 495              		.loc 1 224 0
 496 0182 FFF7FEFF 		bl	interrupt_routine
 497              	.LVL35:
 498              	.L36:
 225:main.c        ****                     }
 226:main.c        **** 					if (TxOk){
 499              		.loc 1 226 0
 500 0186 064B     		ldr	r3, .L40
 501 0188 5B78     		ldrb	r3, [r3, #1]	@ zero_extendqisi2
 502 018a 13B1     		cbz	r3, .L18
 227:main.c        ****     					state = STATE_INIT;
 503              		.loc 1 227 0
 504 018c 0022     		movs	r2, #0
 505 018e 044B     		ldr	r3, .L40
 506 0190 1A71     		strb	r2, [r3, #4]
 507              	.L18:
 146:main.c        ****     		switch (state){
ARM GAS  C:\Users\PIERRE~1\AppData\Local\Temp\ccOC95JZ.s 			page 14


 508              		.loc 1 146 0
 509 0192 FFF7FEFF 		bl	Timer_1_ReadCounter
 510              	.LVL36:
 511 0196 1F28     		cmp	r0, #31
 512 0198 3FF642AF 		bhi	.L37
 513 019c 31E7     		b	.L38
 514              	.L41:
 515 019e 00BF     		.align	2
 516              	.L40:
 517 01a0 00000000 		.word	.LANCHOR0
 518              		.cfi_endproc
 519              	.LFE74:
 520              		.size	state_machine_task, .-state_machine_task
 521              		.section	.text.byte2long,"ax",%progbits
 522              		.align	2
 523              		.global	byte2long
 524              		.thumb
 525              		.thumb_func
 526              		.type	byte2long, %function
 527              	byte2long:
 528              	.LFB69:
  44:main.c        **** 	uint32_t res;
 529              		.loc 1 44 0
 530              		.cfi_startproc
 531              		@ args = 0, pretend = 0, frame = 0
 532              		@ frame_needed = 0, uses_anonymous_args = 0
 533              		@ link register save eliminated.
 534              	.LVL37:
  46:main.c        **** 	return res;
 535              		.loc 1 46 0
 536 0000 0378     		ldrb	r3, [r0]	@ zero_extendqisi2
 537 0002 4278     		ldrb	r2, [r0, #1]	@ zero_extendqisi2
 538 0004 43EA0223 		orr	r3, r3, r2, lsl #8
 539 0008 8278     		ldrb	r2, [r0, #2]	@ zero_extendqisi2
 540 000a 43EA0243 		orr	r3, r3, r2, lsl #16
 541 000e C078     		ldrb	r0, [r0, #3]	@ zero_extendqisi2
 542              	.LVL38:
  48:main.c        **** 
 543              		.loc 1 48 0
 544 0010 43EA0060 		orr	r0, r3, r0, lsl #24
 545              	.LVL39:
 546 0014 7047     		bx	lr
 547              		.cfi_endproc
 548              	.LFE69:
 549              		.size	byte2long, .-byte2long
 550 0016 00BF     		.section	.text.main,"ax",%progbits
 551              		.align	2
 552              		.global	main
 553              		.thumb
 554              		.thumb_func
 555              		.type	main, %function
 556              	main:
 557              	.LFB71:
  58:main.c        ****     
 558              		.loc 1 58 0
 559              		.cfi_startproc
 560              		@ Volatile: function does not return.
ARM GAS  C:\Users\PIERRE~1\AppData\Local\Temp\ccOC95JZ.s 			page 15


 561              		@ args = 0, pretend = 0, frame = 0
 562              		@ frame_needed = 0, uses_anonymous_args = 0
 563 0000 00B5     		push	{lr}
 564              		.cfi_def_cfa_offset 4
 565              		.cfi_offset 14, -4
 566 0002 83B0     		sub	sp, sp, #12
 567              		.cfi_def_cfa_offset 16
  60:main.c        ****     LED_2_Write(LIGHT_OFF);
 568              		.loc 1 60 0
 569 0004 0020     		movs	r0, #0
 570 0006 FFF7FEFF 		bl	LED_1_Write
 571              	.LVL40:
  61:main.c        ****     LED_3_Write(LIGHT_OFF);
 572              		.loc 1 61 0
 573 000a 0020     		movs	r0, #0
 574 000c FFF7FEFF 		bl	LED_2_Write
 575              	.LVL41:
  62:main.c        ****     LED_4_Write(LIGHT_OFF);
 576              		.loc 1 62 0
 577 0010 0020     		movs	r0, #0
 578 0012 FFF7FEFF 		bl	LED_3_Write
 579              	.LVL42:
  63:main.c        ****     
 580              		.loc 1 63 0
 581 0016 0020     		movs	r0, #0
 582 0018 FFF7FEFF 		bl	LED_4_Write
 583              	.LVL43:
  66:main.c        ****     Timer_1_Start();
 584              		.loc 1 66 0
 585              		.syntax unified
 586              	@ 66 "main.c" 1
 587 001c 62B6     		CPSIE   i
 588              	@ 0 "" 2
  67:main.c        ****     freeRTOSInit();
 589              		.loc 1 67 0
 590              		.thumb
 591              		.syntax unified
 592 001e FFF7FEFF 		bl	Timer_1_Start
 593              	.LVL44:
  68:main.c        ****     SPIM_Start();
 594              		.loc 1 68 0
 595 0022 FFF7FEFF 		bl	freeRTOSInit
 596              	.LVL45:
  69:main.c        **** 
 597              		.loc 1 69 0
 598 0026 FFF7FEFF 		bl	SPIM_Start
 599              	.LVL46:
  71:main.c        ****     IRQ_SetPriority(DEFAULT_PRIORITY);
 600              		.loc 1 71 0
 601 002a 0C48     		ldr	r0, .L46
 602 002c FFF7FEFF 		bl	IRQ_StartEx
 603              	.LVL47:
  72:main.c        **** 	/* initialisation of the DecaWave */
 604              		.loc 1 72 0
 605 0030 0120     		movs	r0, #1
 606 0032 FFF7FEFF 		bl	IRQ_SetPriority
 607              	.LVL48:
ARM GAS  C:\Users\PIERRE~1\AppData\Local\Temp\ccOC95JZ.s 			page 16


  74:main.c        **** 	DWM_Init();
 608              		.loc 1 74 0
 609 0036 0A20     		movs	r0, #10
 610 0038 FFF7FEFF 		bl	CyDelay
 611              	.LVL49:
  75:main.c        ****     
 612              		.loc 1 75 0
 613 003c FFF7FEFF 		bl	DWM_Init
 614              	.LVL50:
  77:main.c        ****     
 615              		.loc 1 77 0
 616 0040 0023     		movs	r3, #0
 617 0042 0193     		str	r3, [sp, #4]
 618 0044 0122     		movs	r2, #1
 619 0046 0092     		str	r2, [sp]
 620 0048 4FF48062 		mov	r2, #1024
 621 004c 0449     		ldr	r1, .L46+4
 622 004e 0548     		ldr	r0, .L46+8
 623 0050 FFF7FEFF 		bl	xTaskCreate
 624              	.LVL51:
  79:main.c        ****     for(;;)
 625              		.loc 1 79 0
 626 0054 FFF7FEFF 		bl	vTaskStartScheduler
 627              	.LVL52:
 628              	.L44:
 629 0058 FEE7     		b	.L44
 630              	.L47:
 631 005a 00BF     		.align	2
 632              	.L46:
 633 005c 00000000 		.word	ISR
 634 0060 00000000 		.word	.LC0
 635 0064 00000000 		.word	state_machine_task
 636              		.cfi_endproc
 637              	.LFE71:
 638              		.size	main, .-main
 639              		.global	inter
 640              		.global	RxError
 641              		.global	RxOk
 642              		.global	TxOk
 643              		.comm	StatusRegister,4,4
 644              		.section	.rodata.str1.4,"aMS",%progbits,1
 645              		.align	2
 646              	.LC0:
 647 0000 73746174 		.ascii	"state_machine_task\000"
 647      655F6D61 
 647      6368696E 
 647      655F7461 
 647      736B00
 648              		.bss
 649              		.align	2
 650              		.set	.LANCHOR0,. + 0
 651              		.type	inter, %object
 652              		.size	inter, 1
 653              	inter:
 654 0000 00       		.space	1
 655              		.type	TxOk, %object
 656              		.size	TxOk, 1
ARM GAS  C:\Users\PIERRE~1\AppData\Local\Temp\ccOC95JZ.s 			page 17


 657              	TxOk:
 658 0001 00       		.space	1
 659              		.type	RxOk, %object
 660              		.size	RxOk, 1
 661              	RxOk:
 662 0002 00       		.space	1
 663              		.type	RxError, %object
 664              		.size	RxError, 1
 665              	RxError:
 666 0003 00       		.space	1
 667              		.type	state, %object
 668              		.size	state, 1
 669              	state:
 670 0004 00       		.space	1
 671 0005 000000   		.space	3
 672              		.type	RxData, %object
 673              		.size	RxData, 128
 674              	RxData:
 675 0008 00000000 		.space	128
 675      00000000 
 675      00000000 
 675      00000000 
 675      00000000 
 676              		.type	t2_8, %object
 677              		.size	t2_8, 5
 678              	t2_8:
 679 0088 00000000 		.space	5
 679      00
 680 008d 000000   		.space	3
 681              		.type	TxData, %object
 682              		.size	TxData, 128
 683              	TxData:
 684 0090 00000000 		.space	128
 684      00000000 
 684      00000000 
 684      00000000 
 684      00000000 
 685              		.type	t3_8, %object
 686              		.size	t3_8, 5
 687              	t3_8:
 688 0110 00000000 		.space	5
 688      00
 689 0115 000000   		.space	3
 690              		.type	t6_8, %object
 691              		.size	t6_8, 5
 692              	t6_8:
 693 0118 00000000 		.space	5
 693      00
 694              		.text
 695              	.Letext0:
 696              		.file 2 "c:\\program files (x86)\\cypress\\psoc creator\\4.3\\psoc creator\\import\\gnu\\arm\\5.4.
 697              		.file 3 "c:\\program files (x86)\\cypress\\psoc creator\\4.3\\psoc creator\\import\\gnu\\arm\\5.4.
 698              		.file 4 "Generated_Source\\PSoC5/cytypes.h"
 699              		.file 5 "Generated_Source\\PSoC5/core_cm3.h"
 700              		.file 6 "Generated_Source\\PSoC5/IRQ.h"
 701              		.file 7 "Generated_Source\\PSoC5/pin_1.h"
 702              		.file 8 "dwm1000.h"
ARM GAS  C:\Users\PIERRE~1\AppData\Local\Temp\ccOC95JZ.s 			page 18


 703              		.file 9 "Generated_Source\\PSoC5/Timer_1.h"
 704              		.file 10 "Generated_Source\\PSoC5/rst_in.h"
 705              		.file 11 "Generated_Source\\PSoC5/CyLib.h"
 706              		.file 12 "Generated_Source\\PSoC5/LED_1.h"
 707              		.file 13 "Generated_Source\\PSoC5/LED_2.h"
 708              		.file 14 "Generated_Source\\PSoC5/LED_3.h"
 709              		.file 15 "Generated_Source\\PSoC5/LED_4.h"
 710              		.file 16 "Generated_Source\\PSoC5/SPIM.h"
 711              		.file 17 ".\\FreeRTOS\\include/task.h"
 712              		.file 18 "main.h"