ARM GAS  C:\Users\PIERRE~1\AppData\Local\Temp\ccLSyHsm.s 			page 1


   1              		.syntax unified
   2              		.cpu cortex-m3
   3              		.fpu softvfp
   4              		.eabi_attribute 20, 1
   5              		.eabi_attribute 21, 1
   6              		.eabi_attribute 23, 3
   7              		.eabi_attribute 24, 1
   8              		.eabi_attribute 25, 1
   9              		.eabi_attribute 26, 1
  10              		.eabi_attribute 30, 1
  11              		.eabi_attribute 34, 1
  12              		.eabi_attribute 18, 4
  13              		.thumb
  14              		.syntax unified
  15              		.file	"main.c"
  16              		.text
  17              	.Ltext0:
  18              		.cfi_sections	.debug_frame
  19              		.section	.text.freeRTOSInit,"ax",%progbits
  20              		.align	2
  21              		.thumb
  22              		.thumb_func
  23              		.type	freeRTOSInit, %function
  24              	freeRTOSInit:
  25              	.LFB72:
  26              		.file 1 "main.c"
   1:main.c        **** #include <project.h>
   2:main.c        **** 
   3:main.c        **** /* RTOS includes. */
   4:main.c        **** #include "FreeRTOS.h"
   5:main.c        **** #include "task.h"
   6:main.c        **** #include "queue.h"
   7:main.c        **** #include "semphr.h"
   8:main.c        **** 
   9:main.c        **** #include "main.h"
  10:main.c        **** #include "stdio.h"
  11:main.c        **** #include "dwm1000.h"
  12:main.c        **** #include "timers.h"
  13:main.c        **** #include <string.h>
  14:main.c        **** #include <inttypes.h>
  15:main.c        **** #include <math.h>
  16:main.c        **** 
  17:main.c        **** #define NESTED_ISR                          (2u)
  18:main.c        **** #define INTERRUPT_PRIORITY                    (4u)
  19:main.c        **** #define LOOP_PRIORITY                     (3u)
  20:main.c        **** 
  21:main.c        **** #define LIGHT_OFF (0u)
  22:main.c        **** #define LIGHT_ON (1u)
  23:main.c        **** uint32_t StatusRegister;
  24:main.c        **** static volatile enum STATE state;
  25:main.c        **** static volatile uint8_t inter = 0;
  26:main.c        **** 
  27:main.c        **** /* Private variables */
  28:main.c        **** static uint8_t RxData[128];
  29:main.c        **** static uint8_t TxData[128];
  30:main.c        **** 
  31:main.c        **** static uint8_t t2_8[5];
ARM GAS  C:\Users\PIERRE~1\AppData\Local\Temp\ccLSyHsm.s 			page 2


  32:main.c        **** static uint8_t t3_8[5];
  33:main.c        **** static uint8_t t6_8[5];
  34:main.c        **** 
  35:main.c        **** // Boolean variables
  36:main.c        **** static volatile uint8_t TxOk = 0;
  37:main.c        **** static volatile uint8_t RxState = 0;
  38:main.c        **** 
  39:main.c        **** /* 		Queues 		 */
  40:main.c        **** static xQueueHandle irq_queue = NULL;
  41:main.c        **** static xQueueHandle Rx_q = NULL;
  42:main.c        **** static xQueueHandle Tx_q = NULL;
  43:main.c        **** 
  44:main.c        **** /* 		Tasks 		 */
  45:main.c        **** static void freeRTOSInit(void);
  46:main.c        **** static void interrupt_routine(void *arg);
  47:main.c        **** static void state_machine_task(void *arg);
  48:main.c        **** 
  49:main.c        **** uint32_t byte2long(uint8_t data[]){
  50:main.c        **** 	uint32_t res;
  51:main.c        **** 	res = data[0]|data[1]<<8|data[2]<<16|data[3]<<24;
  52:main.c        **** 	return res;
  53:main.c        **** }
  54:main.c        **** 
  55:main.c        **** CY_ISR_PROTO(ISR);
  56:main.c        **** CY_ISR(ISR){
  57:main.c        ****     IRQ_ClearPending();    /* Clear pending Interrupt */
  58:main.c        ****     pin_1_ClearInterrupt();    /* Clear pin Interrupt */
  59:main.c        **** 	uint32_t gpio_num = (uint32_t) ISR;
  60:main.c        ****     xQueueSendFromISR(irq_queue, (void *) &gpio_num, NULL);
  61:main.c        **** }
  62:main.c        **** 
  63:main.c        **** int main( void )
  64:main.c        **** {	
  65:main.c        ****     
  66:main.c        ****     LED_1_Write(LIGHT_OFF);
  67:main.c        ****     LED_2_Write(LIGHT_OFF);
  68:main.c        ****     LED_3_Write(LIGHT_OFF);
  69:main.c        ****     LED_4_Write(LIGHT_OFF);
  70:main.c        ****     
  71:main.c        ****     if(MASTER_FIRST_MESSAGE == 0x11){
  72:main.c        ****         LED_1_Write(LIGHT_ON);
  73:main.c        ****     }else if(MASTER_FIRST_MESSAGE == 0x12){
  74:main.c        ****         LED_2_Write(LIGHT_ON);
  75:main.c        ****     }else if(MASTER_FIRST_MESSAGE == 0x13){
  76:main.c        ****         LED_3_Write(LIGHT_ON);
  77:main.c        ****     }
  78:main.c        ****     /* Enable global interrupts */
  79:main.c        ****     CyGlobalIntEnable;
  80:main.c        ****     freeRTOSInit();
  81:main.c        ****     SPIM_Start();
  82:main.c        ****     IRQ_StartEx(ISR);
  83:main.c        ****     IRQ_SetPriority(NESTED_ISR);
  84:main.c        **** 	/* initialisation of the DecaWave */
  85:main.c        **** 	CyDelay(10u); //time for the DW to go from Wakeup to init and then IDLE
  86:main.c        **** 	DWM_Init();
  87:main.c        ****     
  88:main.c        ****     irq_queue = xQueueCreate(10, sizeof(uint32_t));
ARM GAS  C:\Users\PIERRE~1\AppData\Local\Temp\ccLSyHsm.s 			page 3


  89:main.c        ****     Rx_q = xQueueCreate(1, sizeof(uint8_t));
  90:main.c        ****     Tx_q = xQueueCreate(1, sizeof(uint8_t));
  91:main.c        ****     xTaskCreate(interrupt_routine, "interrupt_routine",1024, NULL, INTERRUPT_PRIORITY, NULL);
  92:main.c        ****     xTaskCreate(state_machine_task,"state_machine_task", 1024, NULL, LOOP_PRIORITY, NULL);
  93:main.c        ****     
  94:main.c        ****     vTaskStartScheduler();     
  95:main.c        ****     for(;;)
  96:main.c        ****     {
  97:main.c        ****     }
  98:main.c        **** }
  99:main.c        **** 
 100:main.c        **** static void freeRTOSInit( void )
 101:main.c        **** {
  27              		.loc 1 101 0
  28              		.cfi_startproc
  29              		@ args = 0, pretend = 0, frame = 0
  30              		@ frame_needed = 0, uses_anonymous_args = 0
  31              		@ link register save eliminated.
 102:main.c        **** /* Port layer functions that need to be copied into the vector table. */
 103:main.c        **** extern void xPortPendSVHandler( void );
 104:main.c        **** extern void xPortSysTickHandler( void );
 105:main.c        **** extern void vPortSVCHandler( void );
 106:main.c        **** extern cyisraddress CyRamVectors[];
 107:main.c        **** 
 108:main.c        **** 	/* Install the OS Interrupt Handlers. */
 109:main.c        **** 	CyRamVectors[ 11 ] = ( cyisraddress ) vPortSVCHandler;
  32              		.loc 1 109 0
  33 0000 034B     		ldr	r3, .L2
  34 0002 044A     		ldr	r2, .L2+4
  35 0004 DA62     		str	r2, [r3, #44]
 110:main.c        **** 	CyRamVectors[ 14 ] = ( cyisraddress ) xPortPendSVHandler;
  36              		.loc 1 110 0
  37 0006 044A     		ldr	r2, .L2+8
  38 0008 9A63     		str	r2, [r3, #56]
 111:main.c        **** 	CyRamVectors[ 15 ] = ( cyisraddress ) xPortSysTickHandler;
  39              		.loc 1 111 0
  40 000a 044A     		ldr	r2, .L2+12
  41 000c DA63     		str	r2, [r3, #60]
  42 000e 7047     		bx	lr
  43              	.L3:
  44              		.align	2
  45              	.L2:
  46 0010 00000000 		.word	CyRamVectors
  47 0014 00000000 		.word	vPortSVCHandler
  48 0018 00000000 		.word	xPortPendSVHandler
  49 001c 00000000 		.word	xPortSysTickHandler
  50              		.cfi_endproc
  51              	.LFE72:
  52              		.size	freeRTOSInit, .-freeRTOSInit
  53              		.section	.text.ISR,"ax",%progbits
  54              		.align	2
  55              		.global	ISR
  56              		.thumb
  57              		.thumb_func
  58              		.type	ISR, %function
  59              	ISR:
  60              	.LFB70:
ARM GAS  C:\Users\PIERRE~1\AppData\Local\Temp\ccLSyHsm.s 			page 4


  56:main.c        ****     IRQ_ClearPending();    /* Clear pending Interrupt */
  61              		.loc 1 56 0
  62              		.cfi_startproc
  63              		@ args = 0, pretend = 0, frame = 8
  64              		@ frame_needed = 0, uses_anonymous_args = 0
  65 0000 00B5     		push	{lr}
  66              		.cfi_def_cfa_offset 4
  67              		.cfi_offset 14, -4
  68 0002 83B0     		sub	sp, sp, #12
  69              		.cfi_def_cfa_offset 16
  57:main.c        ****     pin_1_ClearInterrupt();    /* Clear pin Interrupt */
  70              		.loc 1 57 0
  71 0004 FFF7FEFF 		bl	IRQ_ClearPending
  72              	.LVL0:
  58:main.c        **** 	uint32_t gpio_num = (uint32_t) ISR;
  73              		.loc 1 58 0
  74 0008 FFF7FEFF 		bl	pin_1_ClearInterrupt
  75              	.LVL1:
  59:main.c        ****     xQueueSendFromISR(irq_queue, (void *) &gpio_num, NULL);
  76              		.loc 1 59 0
  77 000c 02A9     		add	r1, sp, #8
  78 000e 064B     		ldr	r3, .L6
  79 0010 41F8043D 		str	r3, [r1, #-4]!
  60:main.c        **** }
  80              		.loc 1 60 0
  81 0014 0023     		movs	r3, #0
  82 0016 1A46     		mov	r2, r3
  83 0018 0448     		ldr	r0, .L6+4
  84 001a 0068     		ldr	r0, [r0]
  85 001c FFF7FEFF 		bl	xQueueGenericSendFromISR
  86              	.LVL2:
  61:main.c        **** 
  87              		.loc 1 61 0
  88 0020 03B0     		add	sp, sp, #12
  89              		.cfi_def_cfa_offset 4
  90              		@ sp needed
  91 0022 5DF804FB 		ldr	pc, [sp], #4
  92              	.L7:
  93 0026 00BF     		.align	2
  94              	.L6:
  95 0028 00000000 		.word	ISR
  96 002c 00000000 		.word	.LANCHOR0
  97              		.cfi_endproc
  98              	.LFE70:
  99              		.size	ISR, .-ISR
 100              		.section	.text.state_machine_task,"ax",%progbits
 101              		.align	2
 102              		.thumb
 103              		.thumb_func
 104              		.type	state_machine_task, %function
 105              	state_machine_task:
 106              	.LFB74:
 112:main.c        **** }
 113:main.c        **** 
 114:main.c        **** static void interrupt_routine(void *arg){	
 115:main.c        **** 
 116:main.c        ****     (void) arg;
ARM GAS  C:\Users\PIERRE~1\AppData\Local\Temp\ccLSyHsm.s 			page 5


 117:main.c        ****     uint32_t io_num;
 118:main.c        **** 
 119:main.c        ****     for (;;) 
 120:main.c        ****     {	
 121:main.c        ****         if (xQueueReceive(irq_queue, &io_num, portMAX_DELAY)) {	
 122:main.c        ****             uint8_t RxBuffer[4];
 123:main.c        **** 			uint32_t StatusRegister;
 124:main.c        **** 			uint8_t ack[4] = {0};
 125:main.c        **** 			DWM_ReadSPI_ext(SYS_STATUS, NO_SUB,  RxBuffer, 4);
 126:main.c        **** 			StatusRegister  = (RxBuffer[3] << 24) | (RxBuffer[2] << 16) | (RxBuffer[1] << 8) | RxBuffer[0];
 127:main.c        **** 			if (StatusRegister == 0xFFFFFFFF) {
 128:main.c        **** 				DWM_ReadSPI_ext(SYS_STATUS, NO_SUB,  RxBuffer, 4);
 129:main.c        **** 				StatusRegister  = (RxBuffer[3] << 24) | (RxBuffer[2] << 16) | (RxBuffer[1] << 8) | RxBuffer[0];
 130:main.c        **** 			}
 131:main.c        **** 			if (StatusRegister & TX_OK_MASK){
 132:main.c        **** 				TxOk = 1;
 133:main.c        **** 				xQueueSend(Tx_q,(void*) &TxOk,portMAX_DELAY);
 134:main.c        **** 				setBit(ack, 4, TX_OK_BIT, 1);
 135:main.c        **** 			}
 136:main.c        **** 			// check if RX finished
 137:main.c        **** 
 138:main.c        **** 			if ((StatusRegister & RX_FINISHED_MASK) == RX_FINISHED_MASK) {
 139:main.c        **** 				ack[0] |= RX_FINISHED_MASK;
 140:main.c        **** 				ack[1] |= RX_FINISHED_MASK >> 8;
 141:main.c        **** 				ack[2] |= RX_FINISHED_MASK >> 16;
 142:main.c        **** 				ack[3] |= RX_FINISHED_MASK >> 24;
 143:main.c        **** 				RxState = 1;
 144:main.c        **** 			}
 145:main.c        **** 			if (StatusRegister & RX_ERROR_MASK) {
 146:main.c        **** 				ack[0] |= RX_ERROR_MASK;
 147:main.c        **** 				ack[1] |= RX_ERROR_MASK >> 8;
 148:main.c        **** 				ack[2] |= RX_ERROR_MASK >> 16;
 149:main.c        **** 				ack[3] |= RX_ERROR_MASK >> 24;
 150:main.c        **** 				RxState = 2;
 151:main.c        **** 			}
 152:main.c        **** 			if(RxState == 1 || RxState == 2){
 153:main.c        ****                 xQueueSend(Rx_q,(void*) &RxState,portMAX_DELAY);
 154:main.c        ****             }
 155:main.c        **** 			DWM_WriteSPI_ext(SYS_STATUS ,NO_SUB, ack, 4);
 156:main.c        ****          }
 157:main.c        ****     }
 158:main.c        **** 
 159:main.c        ****      vTaskDelete(NULL);
 160:main.c        **** }
 161:main.c        **** 
 162:main.c        **** static void state_machine_task(void *arg)
 163:main.c        **** {	
 107              		.loc 1 163 0
 108              		.cfi_startproc
 109              		@ args = 0, pretend = 0, frame = 8
 110              		@ frame_needed = 0, uses_anonymous_args = 0
 111              	.LVL3:
 112 0000 30B5     		push	{r4, r5, lr}
 113              		.cfi_def_cfa_offset 12
 114              		.cfi_offset 4, -12
 115              		.cfi_offset 5, -8
 116              		.cfi_offset 14, -4
ARM GAS  C:\Users\PIERRE~1\AppData\Local\Temp\ccLSyHsm.s 			page 6


 117 0002 83B0     		sub	sp, sp, #12
 118              		.cfi_def_cfa_offset 24
 164:main.c        ****     (void)arg;
 165:main.c        ****     
 166:main.c        **** 	uint32_t RxFlag,TxFlag;
 167:main.c        ****     state = STATE_INIT;
 119              		.loc 1 167 0
 120 0004 0022     		movs	r2, #0
 121 0006 5E4B     		ldr	r3, .L27
 122 0008 1A71     		strb	r2, [r3, #4]
 123              	.LVL4:
 124              	.L10:
 168:main.c        **** 	for(;;){
 169:main.c        ****         
 170:main.c        **** 		switch (state){
 125              		.loc 1 170 0
 126 000a 5D4B     		ldr	r3, .L27
 127 000c 1B79     		ldrb	r3, [r3, #4]	@ zero_extendqisi2
 128 000e DBB2     		uxtb	r3, r3
 129 0010 052B     		cmp	r3, #5
 130 0012 FAD8     		bhi	.L10
 131 0014 DFE803F0 		tbb	[pc, r3]
 132              	.L12:
 133 0018 03       		.byte	(.L11-.L12)/2
 134 0019 18       		.byte	(.L13-.L12)/2
 135 001a 58       		.byte	(.L14-.L12)/2
 136 001b 82       		.byte	(.L15-.L12)/2
 137 001c A6       		.byte	(.L16-.L12)/2
 138 001d 66       		.byte	(.L17-.L12)/2
 139              		.p2align 1
 140              	.L11:
 171:main.c        **** 			case STATE_INIT :
 172:main.c        ****         		TxOk = 0;
 141              		.loc 1 172 0
 142 001e 584D     		ldr	r5, .L27
 143 0020 0024     		movs	r4, #0
 144 0022 6C71     		strb	r4, [r5, #5]
 173:main.c        ****                 RxState = 0;
 145              		.loc 1 173 0
 146 0024 AC71     		strb	r4, [r5, #6]
 174:main.c        ****                 RxFlag=0;
 147              		.loc 1 174 0
 148 0026 0194     		str	r4, [sp, #4]
 175:main.c        **** 				TxFlag=0;
 149              		.loc 1 175 0
 150 0028 0094     		str	r4, [sp]
 176:main.c        ****                 xQueueReset(Rx_q);
 151              		.loc 1 176 0
 152 002a 2146     		mov	r1, r4
 153 002c A868     		ldr	r0, [r5, #8]
 154 002e FFF7FEFF 		bl	xQueueGenericReset
 155              	.LVL5:
 177:main.c        **** 				xQueueReset(Tx_q);
 156              		.loc 1 177 0
 157 0032 2146     		mov	r1, r4
 158 0034 E868     		ldr	r0, [r5, #12]
 159 0036 FFF7FEFF 		bl	xQueueGenericReset
ARM GAS  C:\Users\PIERRE~1\AppData\Local\Temp\ccLSyHsm.s 			page 7


 160              	.LVL6:
 178:main.c        ****                 idle();
 161              		.loc 1 178 0
 162 003a FFF7FEFF 		bl	idle
 163              	.LVL7:
 179:main.c        **** 				DWM_Enable_Rx();
 164              		.loc 1 179 0
 165 003e FFF7FEFF 		bl	DWM_Enable_Rx
 166              	.LVL8:
 180:main.c        **** 				state = STATE_WAIT_RECEIVE;
 167              		.loc 1 180 0
 168 0042 0123     		movs	r3, #1
 169 0044 2B71     		strb	r3, [r5, #4]
 181:main.c        **** 			break;
 170              		.loc 1 181 0
 171 0046 E0E7     		b	.L10
 172              	.L13:
 182:main.c        **** 
 183:main.c        **** 			case STATE_WAIT_RECEIVE :
 184:main.c        ****                 if(xQueueReceive(Rx_q,&RxFlag,32) == pdPASS ){
 173              		.loc 1 184 0
 174 0048 2022     		movs	r2, #32
 175 004a 01A9     		add	r1, sp, #4
 176 004c 4C4B     		ldr	r3, .L27
 177 004e 9868     		ldr	r0, [r3, #8]
 178 0050 FFF7FEFF 		bl	xQueueReceive
 179              	.LVL9:
 180 0054 0128     		cmp	r0, #1
 181 0056 33D1     		bne	.L19
 185:main.c        ****                     if (RxFlag == 2){
 182              		.loc 1 185 0
 183 0058 019B     		ldr	r3, [sp, #4]
 184 005a 022B     		cmp	r3, #2
 185 005c 05D1     		bne	.L20
 186:main.c        ****     					DWM_Reset_Rx();
 186              		.loc 1 186 0
 187 005e FFF7FEFF 		bl	DWM_Reset_Rx
 188              	.LVL10:
 187:main.c        ****     					state = STATE_INIT;
 189              		.loc 1 187 0
 190 0062 0022     		movs	r2, #0
 191 0064 464B     		ldr	r3, .L27
 192 0066 1A71     		strb	r2, [r3, #4]
 193 0068 CFE7     		b	.L10
 194              	.L20:
 188:main.c        ****     				} else if (RxFlag == 1){
 195              		.loc 1 188 0
 196 006a 012B     		cmp	r3, #1
 197 006c CDD1     		bne	.L10
 189:main.c        ****     					// Read Rx buffer
 190:main.c        ****     					DWM_ReceiveData(RxData);
 198              		.loc 1 190 0
 199 006e 444C     		ldr	r4, .L27
 200 0070 04F11000 		add	r0, r4, #16
 201 0074 FFF7FEFF 		bl	DWM_ReceiveData
 202              	.LVL11:
 191:main.c        ****     					// Check RxFrame
ARM GAS  C:\Users\PIERRE~1\AppData\Local\Temp\ccLSyHsm.s 			page 8


 192:main.c        ****     					if (RxData[0] == MASTER_FIRST_MESSAGE){
 203              		.loc 1 192 0
 204 0078 237C     		ldrb	r3, [r4, #16]	@ zero_extendqisi2
 205 007a 112B     		cmp	r3, #17
 206 007c 0AD1     		bne	.L21
 193:main.c        ****                             DWM_ReadSPI_ext(RX_TIME,NO_SUB, t2_8,5);
 207              		.loc 1 193 0
 208 007e 0523     		movs	r3, #5
 209 0080 04F19002 		add	r2, r4, #144
 210 0084 4FF6FF71 		movw	r1, #65535
 211 0088 1520     		movs	r0, #21
 212 008a FFF7FEFF 		bl	DWM_ReadSPI_ext
 213              	.LVL12:
 194:main.c        ****     						state = STATE_MESSAGE_1;
 214              		.loc 1 194 0
 215 008e 0223     		movs	r3, #2
 216 0090 2371     		strb	r3, [r4, #4]
 217 0092 10E0     		b	.L22
 218              	.L21:
 195:main.c        ****     					}
 196:main.c        ****     					else if (RxData[0] == MASTER_SECOND_MESSAGE){
 219              		.loc 1 196 0
 220 0094 212B     		cmp	r3, #33
 221 0096 0BD1     		bne	.L23
 197:main.c        ****     						DWM_ReadSPI_ext(RX_TIME, NO_SUB, t6_8,5);
 222              		.loc 1 197 0
 223 0098 394C     		ldr	r4, .L27
 224 009a 0523     		movs	r3, #5
 225 009c 04F19802 		add	r2, r4, #152
 226 00a0 4FF6FF71 		movw	r1, #65535
 227 00a4 1520     		movs	r0, #21
 228 00a6 FFF7FEFF 		bl	DWM_ReadSPI_ext
 229              	.LVL13:
 198:main.c        ****                             state = STATE_MESSAGE_2;
 230              		.loc 1 198 0
 231 00aa 0323     		movs	r3, #3
 232 00ac 2371     		strb	r3, [r4, #4]
 233 00ae 02E0     		b	.L22
 234              	.L23:
 199:main.c        ****     					}
 200:main.c        ****     					else {
 201:main.c        ****                             state = STATE_INIT;
 235              		.loc 1 201 0
 236 00b0 0022     		movs	r2, #0
 237 00b2 334B     		ldr	r3, .L27
 238 00b4 1A71     		strb	r2, [r3, #4]
 239              	.L22:
 202:main.c        ****     					}
 203:main.c        ****                         RxFlag = 0;
 240              		.loc 1 203 0
 241 00b6 0023     		movs	r3, #0
 242 00b8 0193     		str	r3, [sp, #4]
 204:main.c        ****     					RxState = 0;
 243              		.loc 1 204 0
 244 00ba 314A     		ldr	r2, .L27
 245 00bc 9371     		strb	r3, [r2, #6]
 246 00be A4E7     		b	.L10
ARM GAS  C:\Users\PIERRE~1\AppData\Local\Temp\ccLSyHsm.s 			page 9


 247              	.L19:
 205:main.c        ****                     }
 206:main.c        ****                 }else{
 207:main.c        ****                     state = STATE_INIT;
 248              		.loc 1 207 0
 249 00c0 0022     		movs	r2, #0
 250 00c2 2F4B     		ldr	r3, .L27
 251 00c4 1A71     		strb	r2, [r3, #4]
 252 00c6 A0E7     		b	.L10
 253              	.L14:
 208:main.c        ****                 }
 209:main.c        **** 			break;
 210:main.c        **** 
 211:main.c        **** 			case STATE_MESSAGE_1:
 212:main.c        ****                 idle();
 254              		.loc 1 212 0
 255 00c8 FFF7FEFF 		bl	idle
 256              	.LVL14:
 213:main.c        ****                 TxData[0] = SLAVE_STANDARD_MESSAGE; 
 257              		.loc 1 213 0
 258 00cc 2C4C     		ldr	r4, .L27
 259 00ce 2046     		mov	r0, r4
 260 00d0 1A23     		movs	r3, #26
 261 00d2 00F8A03F 		strb	r3, [r0, #160]!
 214:main.c        **** 				DWM_SendData(TxData, 1, 1);
 262              		.loc 1 214 0
 263 00d6 0122     		movs	r2, #1
 264 00d8 1146     		mov	r1, r2
 265 00da FFF7FEFF 		bl	DWM_SendData
 266              	.LVL15:
 215:main.c        **** 				state = STATE_SEND_RESPONSE;
 267              		.loc 1 215 0
 268 00de 0523     		movs	r3, #5
 269 00e0 2371     		strb	r3, [r4, #4]
 216:main.c        **** 			break;
 270              		.loc 1 216 0
 271 00e2 92E7     		b	.L10
 272              	.L17:
 217:main.c        **** 
 218:main.c        **** 			case STATE_SEND_RESPONSE :
 219:main.c        ****                 if (xQueueReceive(Tx_q,&TxFlag,portMAX_DELAY)){
 273              		.loc 1 219 0
 274 00e4 4FF0FF32 		mov	r2, #-1
 275 00e8 6946     		mov	r1, sp
 276 00ea 254B     		ldr	r3, .L27
 277 00ec D868     		ldr	r0, [r3, #12]
 278 00ee FFF7FEFF 		bl	xQueueReceive
 279              	.LVL16:
 280 00f2 0028     		cmp	r0, #0
 281 00f4 89D0     		beq	.L10
 220:main.c        ****                     DWM_ReadSPI_ext(TX_TIME, NO_SUB, t3_8, 5);
 282              		.loc 1 220 0
 283 00f6 224C     		ldr	r4, .L27
 284 00f8 0523     		movs	r3, #5
 285 00fa 04F59072 		add	r2, r4, #288
 286 00fe 4FF6FF71 		movw	r1, #65535
 287 0102 1720     		movs	r0, #23
ARM GAS  C:\Users\PIERRE~1\AppData\Local\Temp\ccLSyHsm.s 			page 10


 288 0104 FFF7FEFF 		bl	DWM_ReadSPI_ext
 289              	.LVL17:
 221:main.c        **** 					TxFlag =0;
 290              		.loc 1 221 0
 291 0108 0023     		movs	r3, #0
 292 010a 0093     		str	r3, [sp]
 222:main.c        ****                     TxOk = 0;
 293              		.loc 1 222 0
 294 010c 6371     		strb	r3, [r4, #5]
 223:main.c        ****                     idle();
 295              		.loc 1 223 0
 296 010e FFF7FEFF 		bl	idle
 297              	.LVL18:
 224:main.c        ****                     DWM_Enable_Rx();
 298              		.loc 1 224 0
 299 0112 FFF7FEFF 		bl	DWM_Enable_Rx
 300              	.LVL19:
 225:main.c        **** 					state = STATE_WAIT_RECEIVE;
 301              		.loc 1 225 0
 302 0116 0123     		movs	r3, #1
 303 0118 2371     		strb	r3, [r4, #4]
 304 011a 76E7     		b	.L10
 305              	.L15:
 226:main.c        ****                 }
 227:main.c        **** 			break;
 228:main.c        ****                 
 229:main.c        ****             case STATE_MESSAGE_2 :
 230:main.c        ****                 idle();
 306              		.loc 1 230 0
 307 011c FFF7FEFF 		bl	idle
 308              	.LVL20:
 309              	.LBB2:
 231:main.c        ****                 for (int i=0; i<5; i++){
 310              		.loc 1 231 0
 311 0120 0023     		movs	r3, #0
 312 0122 13E0     		b	.L24
 313              	.LVL21:
 314              	.L25:
 232:main.c        **** 					TxData[i] = t2_8[i];
 315              		.loc 1 232 0 discriminator 3
 316 0124 1648     		ldr	r0, .L27
 317 0126 C218     		adds	r2, r0, r3
 318 0128 92F89010 		ldrb	r1, [r2, #144]	@ zero_extendqisi2
 319 012c 82F8A010 		strb	r1, [r2, #160]
 233:main.c        **** 					TxData[i+5] = t3_8[i];
 320              		.loc 1 233 0 discriminator 3
 321 0130 591D     		adds	r1, r3, #5
 322 0132 92F82041 		ldrb	r4, [r2, #288]	@ zero_extendqisi2
 323 0136 0144     		add	r1, r1, r0
 324 0138 81F8A040 		strb	r4, [r1, #160]
 234:main.c        **** 					TxData[i+10] = t6_8[i];
 325              		.loc 1 234 0 discriminator 3
 326 013c 03F10A01 		add	r1, r3, #10
 327 0140 92F89840 		ldrb	r4, [r2, #152]	@ zero_extendqisi2
 328 0144 4218     		adds	r2, r0, r1
 329 0146 82F8A040 		strb	r4, [r2, #160]
 231:main.c        **** 					TxData[i] = t2_8[i];
ARM GAS  C:\Users\PIERRE~1\AppData\Local\Temp\ccLSyHsm.s 			page 11


 330              		.loc 1 231 0 discriminator 3
 331 014a 0133     		adds	r3, r3, #1
 332              	.LVL22:
 333              	.L24:
 231:main.c        **** 					TxData[i] = t2_8[i];
 334              		.loc 1 231 0 is_stmt 0 discriminator 1
 335 014c 042B     		cmp	r3, #4
 336 014e E9DD     		ble	.L25
 337              	.LBE2:
 235:main.c        **** 				}
 236:main.c        **** 				DWM_SendData(TxData, 15, 1);
 338              		.loc 1 236 0 is_stmt 1
 339 0150 0B4C     		ldr	r4, .L27
 340 0152 0122     		movs	r2, #1
 341 0154 0F21     		movs	r1, #15
 342 0156 04F1A000 		add	r0, r4, #160
 343 015a FFF7FEFF 		bl	DWM_SendData
 344              	.LVL23:
 237:main.c        ****                 state = STATE_END_CYCLE;
 345              		.loc 1 237 0
 346 015e 0423     		movs	r3, #4
 347 0160 2371     		strb	r3, [r4, #4]
 238:main.c        **** 			break;
 348              		.loc 1 238 0
 349 0162 52E7     		b	.L10
 350              	.L16:
 239:main.c        **** 
 240:main.c        **** 			case STATE_END_CYCLE :
 241:main.c        ****                 if (xQueueReceive(Tx_q,&TxFlag,portMAX_DELAY)){
 351              		.loc 1 241 0
 352 0164 4FF0FF32 		mov	r2, #-1
 353 0168 6946     		mov	r1, sp
 354 016a 054B     		ldr	r3, .L27
 355 016c D868     		ldr	r0, [r3, #12]
 356 016e FFF7FEFF 		bl	xQueueReceive
 357              	.LVL24:
 358 0172 0028     		cmp	r0, #0
 359 0174 3FF449AF 		beq	.L10
 242:main.c        ****                     state = STATE_INIT;
 360              		.loc 1 242 0
 361 0178 0022     		movs	r2, #0
 362 017a 014B     		ldr	r3, .L27
 363 017c 1A71     		strb	r2, [r3, #4]
 364 017e 44E7     		b	.L10
 365              	.L28:
 366              		.align	2
 367              	.L27:
 368 0180 00000000 		.word	.LANCHOR0
 369              		.cfi_endproc
 370              	.LFE74:
 371              		.size	state_machine_task, .-state_machine_task
 372              		.section	.text.interrupt_routine,"ax",%progbits
 373              		.align	2
 374              		.thumb
 375              		.thumb_func
 376              		.type	interrupt_routine, %function
 377              	interrupt_routine:
ARM GAS  C:\Users\PIERRE~1\AppData\Local\Temp\ccLSyHsm.s 			page 12


 378              	.LFB73:
 114:main.c        **** 
 379              		.loc 1 114 0
 380              		.cfi_startproc
 381              		@ args = 0, pretend = 0, frame = 16
 382              		@ frame_needed = 0, uses_anonymous_args = 0
 383              	.LVL25:
 384 0000 30B5     		push	{r4, r5, lr}
 385              		.cfi_def_cfa_offset 12
 386              		.cfi_offset 4, -12
 387              		.cfi_offset 5, -8
 388              		.cfi_offset 14, -4
 389 0002 85B0     		sub	sp, sp, #20
 390              		.cfi_def_cfa_offset 32
 391              	.LVL26:
 392              	.L30:
 121:main.c        ****             uint8_t RxBuffer[4];
 393              		.loc 1 121 0
 394 0004 4FF0FF32 		mov	r2, #-1
 395 0008 03A9     		add	r1, sp, #12
 396 000a 454B     		ldr	r3, .L39
 397 000c 1868     		ldr	r0, [r3]
 398 000e FFF7FEFF 		bl	xQueueReceive
 399              	.LVL27:
 400 0012 0028     		cmp	r0, #0
 401 0014 F6D0     		beq	.L30
 402              	.LBB3:
 124:main.c        **** 			DWM_ReadSPI_ext(SYS_STATUS, NO_SUB,  RxBuffer, 4);
 403              		.loc 1 124 0
 404 0016 0023     		movs	r3, #0
 405 0018 0293     		str	r3, [sp, #8]
 125:main.c        **** 			StatusRegister  = (RxBuffer[3] << 24) | (RxBuffer[2] << 16) | (RxBuffer[1] << 8) | RxBuffer[0];
 406              		.loc 1 125 0
 407 001a 0423     		movs	r3, #4
 408 001c 0DEB0302 		add	r2, sp, r3
 409 0020 4FF6FF71 		movw	r1, #65535
 410 0024 0F20     		movs	r0, #15
 411 0026 FFF7FEFF 		bl	DWM_ReadSPI_ext
 412              	.LVL28:
 126:main.c        **** 			if (StatusRegister == 0xFFFFFFFF) {
 413              		.loc 1 126 0
 414 002a 9DF80740 		ldrb	r4, [sp, #7]	@ zero_extendqisi2
 415 002e 9DF80630 		ldrb	r3, [sp, #6]	@ zero_extendqisi2
 416 0032 1B04     		lsls	r3, r3, #16
 417 0034 43EA0463 		orr	r3, r3, r4, lsl #24
 418 0038 9DF80540 		ldrb	r4, [sp, #5]	@ zero_extendqisi2
 419 003c 43EA0423 		orr	r3, r3, r4, lsl #8
 420 0040 9DF80440 		ldrb	r4, [sp, #4]	@ zero_extendqisi2
 421 0044 1C43     		orrs	r4, r4, r3
 422              	.LVL29:
 127:main.c        **** 				DWM_ReadSPI_ext(SYS_STATUS, NO_SUB,  RxBuffer, 4);
 423              		.loc 1 127 0
 424 0046 B4F1FF3F 		cmp	r4, #-1
 425 004a 15D1     		bne	.L31
 128:main.c        **** 				StatusRegister  = (RxBuffer[3] << 24) | (RxBuffer[2] << 16) | (RxBuffer[1] << 8) | RxBuffer[0];
 426              		.loc 1 128 0
 427 004c 0423     		movs	r3, #4
ARM GAS  C:\Users\PIERRE~1\AppData\Local\Temp\ccLSyHsm.s 			page 13


 428 004e 0DEB0302 		add	r2, sp, r3
 429 0052 4FF6FF71 		movw	r1, #65535
 430 0056 0F20     		movs	r0, #15
 431 0058 FFF7FEFF 		bl	DWM_ReadSPI_ext
 432              	.LVL30:
 129:main.c        **** 			}
 433              		.loc 1 129 0
 434 005c 9DF80720 		ldrb	r2, [sp, #7]	@ zero_extendqisi2
 435 0060 9DF80630 		ldrb	r3, [sp, #6]	@ zero_extendqisi2
 436 0064 1B04     		lsls	r3, r3, #16
 437 0066 43EA0263 		orr	r3, r3, r2, lsl #24
 438 006a 9DF80540 		ldrb	r4, [sp, #5]	@ zero_extendqisi2
 439              	.LVL31:
 440 006e 43EA0423 		orr	r3, r3, r4, lsl #8
 441 0072 9DF80440 		ldrb	r4, [sp, #4]	@ zero_extendqisi2
 442 0076 1C43     		orrs	r4, r4, r3
 443              	.LVL32:
 444              	.L31:
 131:main.c        **** 				TxOk = 1;
 445              		.loc 1 131 0
 446 0078 14F0800F 		tst	r4, #128
 447 007c 10D0     		beq	.L32
 132:main.c        **** 				xQueueSend(Tx_q,(void*) &TxOk,portMAX_DELAY);
 448              		.loc 1 132 0
 449 007e 2848     		ldr	r0, .L39
 450 0080 0125     		movs	r5, #1
 451 0082 0146     		mov	r1, r0
 452 0084 01F8055F 		strb	r5, [r1, #5]!
 133:main.c        **** 				setBit(ack, 4, TX_OK_BIT, 1);
 453              		.loc 1 133 0
 454 0088 0023     		movs	r3, #0
 455 008a 4FF0FF32 		mov	r2, #-1
 456 008e C068     		ldr	r0, [r0, #12]
 457 0090 FFF7FEFF 		bl	xQueueGenericSend
 458              	.LVL33:
 134:main.c        **** 			}
 459              		.loc 1 134 0
 460 0094 2B46     		mov	r3, r5
 461 0096 0722     		movs	r2, #7
 462 0098 0421     		movs	r1, #4
 463 009a 02A8     		add	r0, sp, #8
 464 009c FFF7FEFF 		bl	setBit
 465              	.LVL34:
 466              	.L32:
 138:main.c        **** 				ack[0] |= RX_FINISHED_MASK;
 467              		.loc 1 138 0
 468 00a0 04F4C843 		and	r3, r4, #25600
 469 00a4 B3F5C84F 		cmp	r3, #25600
 470 00a8 08D1     		bne	.L33
 140:main.c        **** 				ack[2] |= RX_FINISHED_MASK >> 16;
 471              		.loc 1 140 0
 472 00aa 9DF80930 		ldrb	r3, [sp, #9]	@ zero_extendqisi2
 473 00ae 43F06403 		orr	r3, r3, #100
 474 00b2 8DF80930 		strb	r3, [sp, #9]
 143:main.c        **** 			}
 475              		.loc 1 143 0
 476 00b6 0122     		movs	r2, #1
ARM GAS  C:\Users\PIERRE~1\AppData\Local\Temp\ccLSyHsm.s 			page 14


 477 00b8 194B     		ldr	r3, .L39
 478 00ba 9A71     		strb	r2, [r3, #6]
 479              	.L33:
 145:main.c        **** 				ack[0] |= RX_ERROR_MASK;
 480              		.loc 1 145 0
 481 00bc 194B     		ldr	r3, .L39+4
 482 00be 1C42     		tst	r4, r3
 483 00c0 14D0     		beq	.L34
 147:main.c        **** 				ack[2] |= RX_ERROR_MASK >> 16;
 484              		.loc 1 147 0
 485 00c2 9DF80930 		ldrb	r3, [sp, #9]	@ zero_extendqisi2
 486 00c6 63F06F03 		orn	r3, r3, #111
 487 00ca 8DF80930 		strb	r3, [sp, #9]
 148:main.c        **** 				ack[3] |= RX_ERROR_MASK >> 24;
 488              		.loc 1 148 0
 489 00ce 9DF80A30 		ldrb	r3, [sp, #10]	@ zero_extendqisi2
 490 00d2 43F02703 		orr	r3, r3, #39
 491 00d6 8DF80A30 		strb	r3, [sp, #10]
 149:main.c        **** 				RxState = 2;
 492              		.loc 1 149 0
 493 00da 9DF80B30 		ldrb	r3, [sp, #11]	@ zero_extendqisi2
 494 00de 43F00403 		orr	r3, r3, #4
 495 00e2 8DF80B30 		strb	r3, [sp, #11]
 150:main.c        **** 			}
 496              		.loc 1 150 0
 497 00e6 0222     		movs	r2, #2
 498 00e8 0D4B     		ldr	r3, .L39
 499 00ea 9A71     		strb	r2, [r3, #6]
 500              	.L34:
 152:main.c        ****                 xQueueSend(Rx_q,(void*) &RxState,portMAX_DELAY);
 501              		.loc 1 152 0
 502 00ec 0C4B     		ldr	r3, .L39
 503 00ee 9B79     		ldrb	r3, [r3, #6]	@ zero_extendqisi2
 504 00f0 DBB2     		uxtb	r3, r3
 505 00f2 012B     		cmp	r3, #1
 506 00f4 04D0     		beq	.L35
 152:main.c        ****                 xQueueSend(Rx_q,(void*) &RxState,portMAX_DELAY);
 507              		.loc 1 152 0 is_stmt 0 discriminator 1
 508 00f6 0A4B     		ldr	r3, .L39
 509 00f8 9B79     		ldrb	r3, [r3, #6]	@ zero_extendqisi2
 510 00fa DBB2     		uxtb	r3, r3
 511 00fc 022B     		cmp	r3, #2
 512 00fe 07D1     		bne	.L36
 513              	.L35:
 153:main.c        ****             }
 514              		.loc 1 153 0 is_stmt 1
 515 0100 0748     		ldr	r0, .L39
 516 0102 0023     		movs	r3, #0
 517 0104 4FF0FF32 		mov	r2, #-1
 518 0108 811D     		adds	r1, r0, #6
 519 010a 8068     		ldr	r0, [r0, #8]
 520 010c FFF7FEFF 		bl	xQueueGenericSend
 521              	.LVL35:
 522              	.L36:
 155:main.c        ****          }
 523              		.loc 1 155 0
 524 0110 0423     		movs	r3, #4
ARM GAS  C:\Users\PIERRE~1\AppData\Local\Temp\ccLSyHsm.s 			page 15


 525 0112 02AA     		add	r2, sp, #8
 526 0114 4FF6FF71 		movw	r1, #65535
 527 0118 0F20     		movs	r0, #15
 528 011a FFF7FEFF 		bl	DWM_WriteSPI_ext
 529              	.LVL36:
 530 011e 71E7     		b	.L30
 531              	.L40:
 532              		.align	2
 533              	.L39:
 534 0120 00000000 		.word	.LANCHOR0
 535 0124 00902704 		.word	69701632
 536              	.LBE3:
 537              		.cfi_endproc
 538              	.LFE73:
 539              		.size	interrupt_routine, .-interrupt_routine
 540              		.section	.text.byte2long,"ax",%progbits
 541              		.align	2
 542              		.global	byte2long
 543              		.thumb
 544              		.thumb_func
 545              		.type	byte2long, %function
 546              	byte2long:
 547              	.LFB69:
  49:main.c        **** 	uint32_t res;
 548              		.loc 1 49 0
 549              		.cfi_startproc
 550              		@ args = 0, pretend = 0, frame = 0
 551              		@ frame_needed = 0, uses_anonymous_args = 0
 552              		@ link register save eliminated.
 553              	.LVL37:
  51:main.c        **** 	return res;
 554              		.loc 1 51 0
 555 0000 0378     		ldrb	r3, [r0]	@ zero_extendqisi2
 556 0002 4278     		ldrb	r2, [r0, #1]	@ zero_extendqisi2
 557 0004 43EA0223 		orr	r3, r3, r2, lsl #8
 558 0008 8278     		ldrb	r2, [r0, #2]	@ zero_extendqisi2
 559 000a 43EA0243 		orr	r3, r3, r2, lsl #16
 560 000e C078     		ldrb	r0, [r0, #3]	@ zero_extendqisi2
 561              	.LVL38:
  53:main.c        **** 
 562              		.loc 1 53 0
 563 0010 43EA0060 		orr	r0, r3, r0, lsl #24
 564              	.LVL39:
 565 0014 7047     		bx	lr
 566              		.cfi_endproc
 567              	.LFE69:
 568              		.size	byte2long, .-byte2long
 569 0016 00BF     		.section	.text.main,"ax",%progbits
 570              		.align	2
 571              		.global	main
 572              		.thumb
 573              		.thumb_func
 574              		.type	main, %function
 575              	main:
 576              	.LFB71:
  64:main.c        ****     
 577              		.loc 1 64 0
ARM GAS  C:\Users\PIERRE~1\AppData\Local\Temp\ccLSyHsm.s 			page 16


 578              		.cfi_startproc
 579              		@ Volatile: function does not return.
 580              		@ args = 0, pretend = 0, frame = 0
 581              		@ frame_needed = 0, uses_anonymous_args = 0
 582 0000 00B5     		push	{lr}
 583              		.cfi_def_cfa_offset 4
 584              		.cfi_offset 14, -4
 585 0002 83B0     		sub	sp, sp, #12
 586              		.cfi_def_cfa_offset 16
  66:main.c        ****     LED_2_Write(LIGHT_OFF);
 587              		.loc 1 66 0
 588 0004 0020     		movs	r0, #0
 589 0006 FFF7FEFF 		bl	LED_1_Write
 590              	.LVL40:
  67:main.c        ****     LED_3_Write(LIGHT_OFF);
 591              		.loc 1 67 0
 592 000a 0020     		movs	r0, #0
 593 000c FFF7FEFF 		bl	LED_2_Write
 594              	.LVL41:
  68:main.c        ****     LED_4_Write(LIGHT_OFF);
 595              		.loc 1 68 0
 596 0010 0020     		movs	r0, #0
 597 0012 FFF7FEFF 		bl	LED_3_Write
 598              	.LVL42:
  69:main.c        ****     
 599              		.loc 1 69 0
 600 0016 0020     		movs	r0, #0
 601 0018 FFF7FEFF 		bl	LED_4_Write
 602              	.LVL43:
  72:main.c        ****     }else if(MASTER_FIRST_MESSAGE == 0x12){
 603              		.loc 1 72 0
 604 001c 0120     		movs	r0, #1
 605 001e FFF7FEFF 		bl	LED_1_Write
 606              	.LVL44:
  79:main.c        ****     freeRTOSInit();
 607              		.loc 1 79 0
 608              		.syntax unified
 609              	@ 79 "main.c" 1
 610 0022 62B6     		CPSIE   i
 611              	@ 0 "" 2
  80:main.c        ****     SPIM_Start();
 612              		.loc 1 80 0
 613              		.thumb
 614              		.syntax unified
 615 0024 FFF7FEFF 		bl	freeRTOSInit
 616              	.LVL45:
  81:main.c        ****     IRQ_StartEx(ISR);
 617              		.loc 1 81 0
 618 0028 FFF7FEFF 		bl	SPIM_Start
 619              	.LVL46:
  82:main.c        ****     IRQ_SetPriority(NESTED_ISR);
 620              		.loc 1 82 0
 621 002c 1A48     		ldr	r0, .L45
 622 002e FFF7FEFF 		bl	IRQ_StartEx
 623              	.LVL47:
  83:main.c        **** 	/* initialisation of the DecaWave */
 624              		.loc 1 83 0
ARM GAS  C:\Users\PIERRE~1\AppData\Local\Temp\ccLSyHsm.s 			page 17


 625 0032 0220     		movs	r0, #2
 626 0034 FFF7FEFF 		bl	IRQ_SetPriority
 627              	.LVL48:
  85:main.c        **** 	DWM_Init();
 628              		.loc 1 85 0
 629 0038 0A20     		movs	r0, #10
 630 003a FFF7FEFF 		bl	CyDelay
 631              	.LVL49:
  86:main.c        ****     
 632              		.loc 1 86 0
 633 003e FFF7FEFF 		bl	DWM_Init
 634              	.LVL50:
  88:main.c        ****     Rx_q = xQueueCreate(1, sizeof(uint8_t));
 635              		.loc 1 88 0
 636 0042 0022     		movs	r2, #0
 637 0044 0421     		movs	r1, #4
 638 0046 0A20     		movs	r0, #10
 639 0048 FFF7FEFF 		bl	xQueueGenericCreate
 640              	.LVL51:
 641 004c 134C     		ldr	r4, .L45+4
 642 004e 2060     		str	r0, [r4]
  89:main.c        ****     Tx_q = xQueueCreate(1, sizeof(uint8_t));
 643              		.loc 1 89 0
 644 0050 0022     		movs	r2, #0
 645 0052 0121     		movs	r1, #1
 646 0054 0846     		mov	r0, r1
 647 0056 FFF7FEFF 		bl	xQueueGenericCreate
 648              	.LVL52:
 649 005a A060     		str	r0, [r4, #8]
  90:main.c        ****     xTaskCreate(interrupt_routine, "interrupt_routine",1024, NULL, INTERRUPT_PRIORITY, NULL);
 650              		.loc 1 90 0
 651 005c 0022     		movs	r2, #0
 652 005e 0121     		movs	r1, #1
 653 0060 0846     		mov	r0, r1
 654 0062 FFF7FEFF 		bl	xQueueGenericCreate
 655              	.LVL53:
 656 0066 E060     		str	r0, [r4, #12]
  91:main.c        ****     xTaskCreate(state_machine_task,"state_machine_task", 1024, NULL, LOOP_PRIORITY, NULL);
 657              		.loc 1 91 0
 658 0068 0024     		movs	r4, #0
 659 006a 0194     		str	r4, [sp, #4]
 660 006c 0423     		movs	r3, #4
 661 006e 0093     		str	r3, [sp]
 662 0070 2346     		mov	r3, r4
 663 0072 4FF48062 		mov	r2, #1024
 664 0076 0A49     		ldr	r1, .L45+8
 665 0078 0A48     		ldr	r0, .L45+12
 666 007a FFF7FEFF 		bl	xTaskCreate
 667              	.LVL54:
  92:main.c        ****     
 668              		.loc 1 92 0
 669 007e 0194     		str	r4, [sp, #4]
 670 0080 0323     		movs	r3, #3
 671 0082 0093     		str	r3, [sp]
 672 0084 2346     		mov	r3, r4
 673 0086 4FF48062 		mov	r2, #1024
 674 008a 0749     		ldr	r1, .L45+16
ARM GAS  C:\Users\PIERRE~1\AppData\Local\Temp\ccLSyHsm.s 			page 18


 675 008c 0748     		ldr	r0, .L45+20
 676 008e FFF7FEFF 		bl	xTaskCreate
 677              	.LVL55:
  94:main.c        ****     for(;;)
 678              		.loc 1 94 0
 679 0092 FFF7FEFF 		bl	vTaskStartScheduler
 680              	.LVL56:
 681              	.L43:
 682 0096 FEE7     		b	.L43
 683              	.L46:
 684              		.align	2
 685              	.L45:
 686 0098 00000000 		.word	ISR
 687 009c 00000000 		.word	.LANCHOR0
 688 00a0 00000000 		.word	.LC0
 689 00a4 00000000 		.word	interrupt_routine
 690 00a8 14000000 		.word	.LC1
 691 00ac 00000000 		.word	state_machine_task
 692              		.cfi_endproc
 693              	.LFE71:
 694              		.size	main, .-main
 695              		.comm	StatusRegister,4,4
 696              		.section	.rodata.str1.4,"aMS",%progbits,1
 697              		.align	2
 698              	.LC0:
 699 0000 696E7465 		.ascii	"interrupt_routine\000"
 699      72727570 
 699      745F726F 
 699      7574696E 
 699      6500
 700 0012 0000     		.space	2
 701              	.LC1:
 702 0014 73746174 		.ascii	"state_machine_task\000"
 702      655F6D61 
 702      6368696E 
 702      655F7461 
 702      736B00
 703              		.bss
 704              		.align	2
 705              		.set	.LANCHOR0,. + 0
 706              		.type	irq_queue, %object
 707              		.size	irq_queue, 4
 708              	irq_queue:
 709 0000 00000000 		.space	4
 710              		.type	state, %object
 711              		.size	state, 1
 712              	state:
 713 0004 00       		.space	1
 714              		.type	TxOk, %object
 715              		.size	TxOk, 1
 716              	TxOk:
 717 0005 00       		.space	1
 718              		.type	RxState, %object
 719              		.size	RxState, 1
 720              	RxState:
 721 0006 00       		.space	1
 722 0007 00       		.space	1
ARM GAS  C:\Users\PIERRE~1\AppData\Local\Temp\ccLSyHsm.s 			page 19


 723              		.type	Rx_q, %object
 724              		.size	Rx_q, 4
 725              	Rx_q:
 726 0008 00000000 		.space	4
 727              		.type	Tx_q, %object
 728              		.size	Tx_q, 4
 729              	Tx_q:
 730 000c 00000000 		.space	4
 731              		.type	RxData, %object
 732              		.size	RxData, 128
 733              	RxData:
 734 0010 00000000 		.space	128
 734      00000000 
 734      00000000 
 734      00000000 
 734      00000000 
 735              		.type	t2_8, %object
 736              		.size	t2_8, 5
 737              	t2_8:
 738 0090 00000000 		.space	5
 738      00
 739 0095 000000   		.space	3
 740              		.type	t6_8, %object
 741              		.size	t6_8, 5
 742              	t6_8:
 743 0098 00000000 		.space	5
 743      00
 744 009d 000000   		.space	3
 745              		.type	TxData, %object
 746              		.size	TxData, 128
 747              	TxData:
 748 00a0 00000000 		.space	128
 748      00000000 
 748      00000000 
 748      00000000 
 748      00000000 
 749              		.type	t3_8, %object
 750              		.size	t3_8, 5
 751              	t3_8:
 752 0120 00000000 		.space	5
 752      00
 753              		.type	inter, %object
 754              		.size	inter, 1
 755              	inter:
 756 0125 00       		.space	1
 757              		.text
 758              	.Letext0:
 759              		.file 2 "c:\\program files (x86)\\cypress\\psoc creator\\4.3\\psoc creator\\import\\gnu\\arm\\5.4.
 760              		.file 3 "c:\\program files (x86)\\cypress\\psoc creator\\4.3\\psoc creator\\import\\gnu\\arm\\5.4.
 761              		.file 4 "Generated_Source\\PSoC5/cytypes.h"
 762              		.file 5 ".\\FreeRTOS\\include/portmacro.h"
 763              		.file 6 ".\\FreeRTOS\\include/queue.h"
 764              		.file 7 "Generated_Source\\PSoC5/core_cm3.h"
 765              		.file 8 "Generated_Source\\PSoC5/IRQ.h"
 766              		.file 9 "Generated_Source\\PSoC5/pin_1.h"
 767              		.file 10 "dwm1000.h"
 768              		.file 11 "Generated_Source\\PSoC5/LED_1.h"
ARM GAS  C:\Users\PIERRE~1\AppData\Local\Temp\ccLSyHsm.s 			page 20


 769              		.file 12 "Generated_Source\\PSoC5/LED_2.h"
 770              		.file 13 "Generated_Source\\PSoC5/LED_3.h"
 771              		.file 14 "Generated_Source\\PSoC5/LED_4.h"
 772              		.file 15 "Generated_Source\\PSoC5/SPIM.h"
 773              		.file 16 "Generated_Source\\PSoC5/CyLib.h"
 774              		.file 17 ".\\FreeRTOS\\include/task.h"
 775              		.file 18 "main.h"