ARM GAS  C:\Users\PIERRE~1\AppData\Local\Temp\ccaf9B2g.s 			page 1


   1              		.syntax unified
   2              		.cpu cortex-m3
   3              		.fpu softvfp
   4              		.eabi_attribute 20, 1
   5              		.eabi_attribute 21, 1
   6              		.eabi_attribute 23, 3
   7              		.eabi_attribute 24, 1
   8              		.eabi_attribute 25, 1
   9              		.eabi_attribute 26, 1
  10              		.eabi_attribute 30, 1
  11              		.eabi_attribute 34, 1
  12              		.eabi_attribute 18, 4
  13              		.thumb
  14              		.syntax unified
  15              		.file	"main.c"
  16              		.text
  17              	.Ltext0:
  18              		.cfi_sections	.debug_frame
  19              		.section	.text.freeRTOSInit,"ax",%progbits
  20              		.align	2
  21              		.thumb
  22              		.thumb_func
  23              		.type	freeRTOSInit, %function
  24              	freeRTOSInit:
  25              	.LFB70:
  26              		.file 1 "main.c"
   1:main.c        **** /* Includes ------------------------------------------------------------------*/
   2:main.c        **** 
   3:main.c        **** #include <project.h>
   4:main.c        **** 
   5:main.c        **** /* RTOS includes. */
   6:main.c        **** #include "FreeRTOS.h"
   7:main.c        **** #include "task.h"
   8:main.c        **** #include "queue.h"
   9:main.c        **** #include "timers.h"
  10:main.c        **** #include "semphr.h"
  11:main.c        **** 
  12:main.c        **** #include "main.h"
  13:main.c        **** #include "stdio.h"
  14:main.c        **** #include "dwm1000.h"
  15:main.c        **** #include <string.h>
  16:main.c        **** #include <inttypes.h>
  17:main.c        **** #include <math.h>
  18:main.c        **** 
  19:main.c        **** uint8_t prio_matrice[NUMBER_OF_ANCHOR+1][NUMBER_OF_ANCHOR+1] = {{0, 0, 0, 0},
  20:main.c        ****                                                                 {0, 0, 0, 0},
  21:main.c        ****                                                                 {0, 0, 0, 0},
  22:main.c        ****                                                                 {0, 0, 0, 0},
  23:main.c        ****                                                                 }; //each anchor + usb_out + usb_in
  24:main.c        **** #define ISR_PRIORITY                    (21u)
  25:main.c        **** #define INTERRUPT_PRIORITY              (22u)
  26:main.c        **** uint8_t prio1 = 20;
  27:main.c        **** uint8_t prio2 = 20;
  28:main.c        **** uint8_t prio3 = 20;
  29:main.c        **** uint8_t prio4 = 20;
  30:main.c        **** uint8_t usb_out_prio = 29;
  31:main.c        **** uint8_t usb_in_prio = 30;
ARM GAS  C:\Users\PIERRE~1\AppData\Local\Temp\ccaf9B2g.s 			page 2


  32:main.c        **** 
  33:main.c        **** uint16_t number_bytes_receive=0;
  34:main.c        **** uint8_t RxPhoneData[8];
  35:main.c        **** uint8_t TxPhoneData[63];
  36:main.c        **** uint64_t all_clock_time[12]={0};
  37:main.c        **** uint8_t found = 0;
  38:main.c        **** 
  39:main.c        **** // Boolean variables
  40:main.c        **** uint8_t TxOk = 0;
  41:main.c        **** static volatile uint8_t RxState = 0;
  42:main.c        **** 
  43:main.c        **** enum STATE state;
  44:main.c        **** 
  45:main.c        **** /* 		Tasks 		 */
  46:main.c        **** static void freeRTOSInit(void);
  47:main.c        **** static void state_machine_task(void *arg);
  48:main.c        **** static void interrupt_routine(void *arg);
  49:main.c        **** static void usb_out(void *arg);
  50:main.c        **** static void usb_in(void *arg);
  51:main.c        **** 
  52:main.c        **** /* 		Queues 		 */
  53:main.c        **** static xQueueHandle irq_queue = NULL;
  54:main.c        **** static xQueueHandle Rx_q = NULL;
  55:main.c        **** static xQueueHandle Tx_q = NULL;
  56:main.c        **** 
  57:main.c        **** /*      Tasks handle    */
  58:main.c        **** TaskHandle_t taskHandler1; 
  59:main.c        **** TaskHandle_t taskHandler2; 
  60:main.c        **** TaskHandle_t taskHandler3;
  61:main.c        **** TaskHandle_t taskHandler4;
  62:main.c        **** TaskHandle_t usbOutHandler;
  63:main.c        **** TaskHandle_t usbInHandler;
  64:main.c        **** 
  65:main.c        **** SemaphoreHandle_t semaphoreBuf1;
  66:main.c        **** 
  67:main.c        **** //fonction
  68:main.c        **** static void change_priorities(int slave);
  69:main.c        **** 
  70:main.c        **** /* Interrupt prototypes */
  71:main.c        **** CY_ISR_PROTO(ISR);
  72:main.c        **** CY_ISR(ISR){
  73:main.c        ****     IRQ_ClearPending();    /* Clear pending Interrupt */
  74:main.c        ****     pin_1_ClearInterrupt();    /* Clear pin Interrupt */
  75:main.c        **** 	uint32_t gpio_num = (uint32_t) ISR;
  76:main.c        ****     xQueueSendFromISR(irq_queue, (void *) &gpio_num, NULL);
  77:main.c        **** }
  78:main.c        ****     
  79:main.c        **** static void freeRTOSInit( void ){
  27              		.loc 1 79 0
  28              		.cfi_startproc
  29              		@ args = 0, pretend = 0, frame = 0
  30              		@ frame_needed = 0, uses_anonymous_args = 0
  31              		@ link register save eliminated.
  80:main.c        **** /* Port layer functions that need to be copied into the vector table. */
  81:main.c        **** extern void xPortPendSVHandler( void );
  82:main.c        **** extern void xPortSysTickHandler( void );
  83:main.c        **** extern void vPortSVCHandler( void );
ARM GAS  C:\Users\PIERRE~1\AppData\Local\Temp\ccaf9B2g.s 			page 3


  84:main.c        **** extern cyisraddress CyRamVectors[];
  85:main.c        **** 
  86:main.c        **** 	/* Install the OS Interrupt Handlers. */
  87:main.c        **** 	CyRamVectors[ 11 ] = ( cyisraddress ) vPortSVCHandler;
  32              		.loc 1 87 0
  33 0000 034B     		ldr	r3, .L2
  34 0002 044A     		ldr	r2, .L2+4
  35 0004 DA62     		str	r2, [r3, #44]
  88:main.c        **** 	CyRamVectors[ 14 ] = ( cyisraddress ) xPortPendSVHandler;
  36              		.loc 1 88 0
  37 0006 044A     		ldr	r2, .L2+8
  38 0008 9A63     		str	r2, [r3, #56]
  89:main.c        **** 	CyRamVectors[ 15 ] = ( cyisraddress ) xPortSysTickHandler;
  39              		.loc 1 89 0
  40 000a 044A     		ldr	r2, .L2+12
  41 000c DA63     		str	r2, [r3, #60]
  42 000e 7047     		bx	lr
  43              	.L3:
  44              		.align	2
  45              	.L2:
  46 0010 00000000 		.word	CyRamVectors
  47 0014 00000000 		.word	vPortSVCHandler
  48 0018 00000000 		.word	xPortPendSVHandler
  49 001c 00000000 		.word	xPortSysTickHandler
  50              		.cfi_endproc
  51              	.LFE70:
  52              		.size	freeRTOSInit, .-freeRTOSInit
  53              		.section	.text.ISR,"ax",%progbits
  54              		.align	2
  55              		.global	ISR
  56              		.thumb
  57              		.thumb_func
  58              		.type	ISR, %function
  59              	ISR:
  60              	.LFB69:
  72:main.c        ****     IRQ_ClearPending();    /* Clear pending Interrupt */
  61              		.loc 1 72 0
  62              		.cfi_startproc
  63              		@ args = 0, pretend = 0, frame = 8
  64              		@ frame_needed = 0, uses_anonymous_args = 0
  65 0000 00B5     		push	{lr}
  66              		.cfi_def_cfa_offset 4
  67              		.cfi_offset 14, -4
  68 0002 83B0     		sub	sp, sp, #12
  69              		.cfi_def_cfa_offset 16
  73:main.c        ****     pin_1_ClearInterrupt();    /* Clear pin Interrupt */
  70              		.loc 1 73 0
  71 0004 FFF7FEFF 		bl	IRQ_ClearPending
  72              	.LVL0:
  74:main.c        **** 	uint32_t gpio_num = (uint32_t) ISR;
  73              		.loc 1 74 0
  74 0008 FFF7FEFF 		bl	pin_1_ClearInterrupt
  75              	.LVL1:
  75:main.c        ****     xQueueSendFromISR(irq_queue, (void *) &gpio_num, NULL);
  76              		.loc 1 75 0
  77 000c 02A9     		add	r1, sp, #8
  78 000e 064B     		ldr	r3, .L6
ARM GAS  C:\Users\PIERRE~1\AppData\Local\Temp\ccaf9B2g.s 			page 4


  79 0010 41F8043D 		str	r3, [r1, #-4]!
  76:main.c        **** }
  80              		.loc 1 76 0
  81 0014 0023     		movs	r3, #0
  82 0016 1A46     		mov	r2, r3
  83 0018 0448     		ldr	r0, .L6+4
  84 001a 0068     		ldr	r0, [r0]
  85 001c FFF7FEFF 		bl	xQueueGenericSendFromISR
  86              	.LVL2:
  77:main.c        ****     
  87              		.loc 1 77 0
  88 0020 03B0     		add	sp, sp, #12
  89              		.cfi_def_cfa_offset 4
  90              		@ sp needed
  91 0022 5DF804FB 		ldr	pc, [sp], #4
  92              	.L7:
  93 0026 00BF     		.align	2
  94              	.L6:
  95 0028 00000000 		.word	ISR
  96 002c 00000000 		.word	.LANCHOR0
  97              		.cfi_endproc
  98              	.LFE69:
  99              		.size	ISR, .-ISR
 100              		.section	.text.change_priorities,"ax",%progbits
 101              		.align	2
 102              		.thumb
 103              		.thumb_func
 104              		.type	change_priorities, %function
 105              	change_priorities:
 106              	.LFB74:
  90:main.c        **** }
  91:main.c        **** 
  92:main.c        **** static void interrupt_routine(void *arg){	
  93:main.c        **** 
  94:main.c        ****     (void) arg;
  95:main.c        ****     uint32_t io_num;
  96:main.c        **** 
  97:main.c        ****     for (;;) 
  98:main.c        ****     {	
  99:main.c        ****         if (xQueueReceive(irq_queue, &io_num, 30)) {
 100:main.c        ****             uint8_t RxBuffer[4];
 101:main.c        **** 			uint32_t StatusRegister;
 102:main.c        **** 			uint8_t ack[4] = {0};
 103:main.c        **** 			DWM_ReadSPI_ext(SYS_STATUS, NO_SUB,  RxBuffer, 4);
 104:main.c        **** 			StatusRegister  = (RxBuffer[3] << 24) | (RxBuffer[2] << 16) | (RxBuffer[1] << 8) | RxBuffer[0];
 105:main.c        **** 			if (StatusRegister == 0xFFFFFFFF) {
 106:main.c        **** 				DWM_ReadSPI_ext(SYS_STATUS, NO_SUB,  RxBuffer, 4);
 107:main.c        **** 				StatusRegister  = (RxBuffer[3] << 24) | (RxBuffer[2] << 16) | (RxBuffer[1] << 8) | RxBuffer[0];
 108:main.c        **** 			}
 109:main.c        **** 			if (StatusRegister & TX_OK_MASK){
 110:main.c        **** 				TxOk = 1;
 111:main.c        **** 				xQueueSend(Tx_q,(void*) &TxOk,portMAX_DELAY);
 112:main.c        **** 				setBit(ack, 4, TX_OK_BIT, 1);
 113:main.c        **** 			}
 114:main.c        **** 			// check if RX finished
 115:main.c        **** 
 116:main.c        **** 			if ((StatusRegister & RX_FINISHED_MASK) == RX_FINISHED_MASK) {
ARM GAS  C:\Users\PIERRE~1\AppData\Local\Temp\ccaf9B2g.s 			page 5


 117:main.c        **** 				ack[0] |= RX_FINISHED_MASK;
 118:main.c        **** 				ack[1] |= RX_FINISHED_MASK >> 8;
 119:main.c        **** 				ack[2] |= RX_FINISHED_MASK >> 16;
 120:main.c        **** 				ack[3] |= RX_FINISHED_MASK >> 24;
 121:main.c        **** 				RxState = 1;
 122:main.c        **** 			}
 123:main.c        **** 			if (StatusRegister & RX_ERROR_MASK) {
 124:main.c        **** 				ack[0] |= RX_ERROR_MASK;
 125:main.c        **** 				ack[1] |= RX_ERROR_MASK >> 8;
 126:main.c        **** 				ack[2] |= RX_ERROR_MASK >> 16;
 127:main.c        **** 				ack[3] |= RX_ERROR_MASK >> 24;
 128:main.c        **** 				RxState = 2;
 129:main.c        **** 			}
 130:main.c        **** 			if(RxState == 1 || RxState == 2){
 131:main.c        ****                 xQueueSend(Rx_q,(void*) &RxState,portMAX_DELAY);
 132:main.c        ****             }
 133:main.c        **** 			DWM_WriteSPI_ext(SYS_STATUS ,NO_SUB, ack, 4);
 134:main.c        ****          }
 135:main.c        ****     }
 136:main.c        ****      vTaskDelete(NULL);
 137:main.c        **** }
 138:main.c        **** 
 139:main.c        **** static void usb_out(void *arg){
 140:main.c        **** 
 141:main.c        ****     (void) *arg;
 142:main.c        ****     for(;;){
 143:main.c        ****         for(int i=0;i<12;i++){                  // Preparation of data
 144:main.c        ****             TxPhoneData[5*i]=all_clock_time[i];       
 145:main.c        ****             TxPhoneData[5*i+1]=all_clock_time[i]>>8;       
 146:main.c        ****             TxPhoneData[5*i+2]=all_clock_time[i]>>16;       
 147:main.c        ****             TxPhoneData[5*i+3]=all_clock_time[i]>>24;       
 148:main.c        ****             TxPhoneData[5*i+4]=all_clock_time[i]>>32;
 149:main.c        ****             //all_clock_time[i]=0;
 150:main.c        ****         }
 151:main.c        ****         USBP_LoadInEP(1,TxPhoneData,63);
 152:main.c        ****         change_priorities(-2);
 153:main.c        ****     }
 154:main.c        **** }
 155:main.c        **** 
 156:main.c        **** static void usb_in(void *arg){
 157:main.c        ****     (void) *arg;
 158:main.c        ****     for(;;){
 159:main.c        ****         USBP_EnableOutEP(2);
 160:main.c        ****         while(USBP_bGetEPAckState(2)==USBP_OUT_BUFFER_EMPTY)
 161:main.c        ****         number_bytes_receive=USBP_GetEPCount(2);
 162:main.c        ****         USBP_ReadOutEP(2,RxPhoneData,number_bytes_receive);
 163:main.c        ****         USBP_DisableOutEP(2);
 164:main.c        ****         if(RxPhoneData[0]==0x04 && RxPhoneData[1]==0x06){   //test connection
 165:main.c        ****             TxPhoneData[0]=0x02;
 166:main.c        ****             TxPhoneData[1]=0x03;
 167:main.c        ****             TxPhoneData[2]=0x46;
 168:main.c        ****             TxPhoneData[3]=0x37;
 169:main.c        ****             USBP_LoadInEP(1,TxPhoneData,4);
 170:main.c        ****         }else{
 171:main.c        ****             change_priorities(-1);
 172:main.c        ****         }
 173:main.c        ****     }
ARM GAS  C:\Users\PIERRE~1\AppData\Local\Temp\ccaf9B2g.s 			page 6


 174:main.c        **** }
 175:main.c        **** 
 176:main.c        **** static void change_priorities(int num){
 107              		.loc 1 176 0
 108              		.cfi_startproc
 109              		@ args = 0, pretend = 0, frame = 0
 110              		@ frame_needed = 0, uses_anonymous_args = 0
 111              	.LVL3:
 112 0000 38B5     		push	{r3, r4, r5, lr}
 113              		.cfi_def_cfa_offset 16
 114              		.cfi_offset 3, -16
 115              		.cfi_offset 4, -12
 116              		.cfi_offset 5, -8
 117              		.cfi_offset 14, -4
 118 0002 0446     		mov	r4, r0
 177:main.c        ****     taskENTER_CRITICAL();
 119              		.loc 1 177 0
 120 0004 FFF7FEFF 		bl	vPortEnterCritical
 121              	.LVL4:
 178:main.c        ****     if(num == -1){
 122              		.loc 1 178 0
 123 0008 B4F1FF3F 		cmp	r4, #-1
 124 000c 21D1     		bne	.L9
 179:main.c        ****         vTaskPrioritySet(taskHandler1, prio1);
 125              		.loc 1 179 0
 126 000e 2A4C     		ldr	r4, .L13
 127              	.LVL5:
 128 0010 2178     		ldrb	r1, [r4]	@ zero_extendqisi2
 129 0012 2A4B     		ldr	r3, .L13+4
 130 0014 1868     		ldr	r0, [r3]
 131 0016 FFF7FEFF 		bl	vTaskPrioritySet
 132              	.LVL6:
 180:main.c        ****         vTaskPrioritySet(taskHandler2, prio2);
 133              		.loc 1 180 0
 134 001a 6178     		ldrb	r1, [r4, #1]	@ zero_extendqisi2
 135 001c 284B     		ldr	r3, .L13+8
 136 001e 1868     		ldr	r0, [r3]
 137 0020 FFF7FEFF 		bl	vTaskPrioritySet
 138              	.LVL7:
 181:main.c        ****         vTaskPrioritySet(taskHandler3, prio3);
 139              		.loc 1 181 0
 140 0024 A178     		ldrb	r1, [r4, #2]	@ zero_extendqisi2
 141 0026 274B     		ldr	r3, .L13+12
 142 0028 1868     		ldr	r0, [r3]
 143 002a FFF7FEFF 		bl	vTaskPrioritySet
 144              	.LVL8:
 182:main.c        ****         if(NUMBER_OF_ANCHOR > 3){
 183:main.c        ****             vTaskPrioritySet(taskHandler4, prio4);
 184:main.c        ****             vTaskResume(taskHandler4);
 185:main.c        ****         }
 186:main.c        ****         vTaskPrioritySet(usbOutHandler, usb_out_prio);
 145              		.loc 1 186 0
 146 002e 264D     		ldr	r5, .L13+16
 147 0030 E178     		ldrb	r1, [r4, #3]	@ zero_extendqisi2
 148 0032 2868     		ldr	r0, [r5]
 149 0034 FFF7FEFF 		bl	vTaskPrioritySet
 150              	.LVL9:
ARM GAS  C:\Users\PIERRE~1\AppData\Local\Temp\ccaf9B2g.s 			page 7


 187:main.c        ****         vTaskPrioritySet(usbInHandler, usb_out_prio - 1);
 151              		.loc 1 187 0
 152 0038 E178     		ldrb	r1, [r4, #3]	@ zero_extendqisi2
 153 003a 244C     		ldr	r4, .L13+20
 154 003c 0139     		subs	r1, r1, #1
 155 003e 2068     		ldr	r0, [r4]
 156 0040 FFF7FEFF 		bl	vTaskPrioritySet
 157              	.LVL10:
 188:main.c        ****         vTaskSuspend(usbOutHandler);
 158              		.loc 1 188 0
 159 0044 2868     		ldr	r0, [r5]
 160 0046 FFF7FEFF 		bl	vTaskSuspend
 161              	.LVL11:
 189:main.c        ****         vTaskSuspend(usbInHandler);
 162              		.loc 1 189 0
 163 004a 2068     		ldr	r0, [r4]
 164 004c FFF7FEFF 		bl	vTaskSuspend
 165              	.LVL12:
 166 0050 2EE0     		b	.L10
 167              	.LVL13:
 168              	.L9:
 190:main.c        ****     }else if(num == -2){
 169              		.loc 1 190 0
 170 0052 14F1020F 		cmn	r4, #2
 171 0056 0AD1     		bne	.L11
 191:main.c        ****         vTaskPrioritySet(usbInHandler, usb_out_prio + 3);
 172              		.loc 1 191 0
 173 0058 174B     		ldr	r3, .L13
 174 005a D978     		ldrb	r1, [r3, #3]	@ zero_extendqisi2
 175 005c 1B4C     		ldr	r4, .L13+20
 176              	.LVL14:
 177 005e 0331     		adds	r1, r1, #3
 178 0060 2068     		ldr	r0, [r4]
 179 0062 FFF7FEFF 		bl	vTaskPrioritySet
 180              	.LVL15:
 192:main.c        ****         vTaskResume(usbInHandler);
 181              		.loc 1 192 0
 182 0066 2068     		ldr	r0, [r4]
 183 0068 FFF7FEFF 		bl	vTaskResume
 184              	.LVL16:
 185 006c 20E0     		b	.L10
 186              	.LVL17:
 187              	.L11:
 193:main.c        ****     }else{
 194:main.c        ****         vTaskPrioritySet(taskHandler1, uxTaskPriorityGet(taskHandler1)-prio_matrice[num][0]);
 188              		.loc 1 194 0
 189 006e 134B     		ldr	r3, .L13+4
 190 0070 1D68     		ldr	r5, [r3]
 191 0072 2846     		mov	r0, r5
 192 0074 FFF7FEFF 		bl	uxTaskPriorityGet
 193              	.LVL18:
 194 0078 154B     		ldr	r3, .L13+24
 195 007a 03EB8404 		add	r4, r3, r4, lsl #2
 196              	.LVL19:
 197 007e 2179     		ldrb	r1, [r4, #4]	@ zero_extendqisi2
 198 0080 411A     		subs	r1, r0, r1
 199 0082 2846     		mov	r0, r5
ARM GAS  C:\Users\PIERRE~1\AppData\Local\Temp\ccaf9B2g.s 			page 8


 200 0084 FFF7FEFF 		bl	vTaskPrioritySet
 201              	.LVL20:
 195:main.c        ****         vTaskPrioritySet(taskHandler2, uxTaskPriorityGet(taskHandler2)-prio_matrice[num][1]);
 202              		.loc 1 195 0
 203 0088 0D4B     		ldr	r3, .L13+8
 204 008a 1D68     		ldr	r5, [r3]
 205 008c 2846     		mov	r0, r5
 206 008e FFF7FEFF 		bl	uxTaskPriorityGet
 207              	.LVL21:
 208 0092 6179     		ldrb	r1, [r4, #5]	@ zero_extendqisi2
 209 0094 411A     		subs	r1, r0, r1
 210 0096 2846     		mov	r0, r5
 211 0098 FFF7FEFF 		bl	vTaskPrioritySet
 212              	.LVL22:
 196:main.c        ****         vTaskPrioritySet(taskHandler3, uxTaskPriorityGet(taskHandler3)-prio_matrice[num][2]);
 213              		.loc 1 196 0
 214 009c 094B     		ldr	r3, .L13+12
 215 009e 1D68     		ldr	r5, [r3]
 216 00a0 2846     		mov	r0, r5
 217 00a2 FFF7FEFF 		bl	uxTaskPriorityGet
 218              	.LVL23:
 219 00a6 A179     		ldrb	r1, [r4, #6]	@ zero_extendqisi2
 220 00a8 411A     		subs	r1, r0, r1
 221 00aa 2846     		mov	r0, r5
 222 00ac FFF7FEFF 		bl	vTaskPrioritySet
 223              	.LVL24:
 224              	.L10:
 197:main.c        ****         if(NUMBER_OF_ANCHOR > 3){
 198:main.c        ****             vTaskPrioritySet(taskHandler4, uxTaskPriorityGet(taskHandler4)-prio_matrice[num][3]);
 199:main.c        ****         }
 200:main.c        ****     }
 201:main.c        ****     taskEXIT_CRITICAL();
 225              		.loc 1 201 0
 226 00b0 FFF7FEFF 		bl	vPortExitCritical
 227              	.LVL25:
 228 00b4 38BD     		pop	{r3, r4, r5, pc}
 229              	.L14:
 230 00b6 00BF     		.align	2
 231              	.L13:
 232 00b8 00000000 		.word	.LANCHOR1
 233 00bc 00000000 		.word	taskHandler1
 234 00c0 00000000 		.word	taskHandler2
 235 00c4 00000000 		.word	taskHandler3
 236 00c8 00000000 		.word	usbOutHandler
 237 00cc 00000000 		.word	usbInHandler
 238 00d0 00000000 		.word	.LANCHOR0
 239              		.cfi_endproc
 240              	.LFE74:
 241              		.size	change_priorities, .-change_priorities
 242              		.section	.text.usb_in,"ax",%progbits
 243              		.align	2
 244              		.thumb
 245              		.thumb_func
 246              		.type	usb_in, %function
 247              	usb_in:
 248              	.LFB73:
 156:main.c        ****     (void) *arg;
ARM GAS  C:\Users\PIERRE~1\AppData\Local\Temp\ccaf9B2g.s 			page 9


 249              		.loc 1 156 0
 250              		.cfi_startproc
 251              		@ Volatile: function does not return.
 252              		@ args = 0, pretend = 0, frame = 0
 253              		@ frame_needed = 0, uses_anonymous_args = 0
 254              	.LVL26:
 255 0000 08B5     		push	{r3, lr}
 256              		.cfi_def_cfa_offset 8
 257              		.cfi_offset 3, -8
 258              		.cfi_offset 14, -4
 259              	.LVL27:
 260              	.L16:
 159:main.c        ****         while(USBP_bGetEPAckState(2)==USBP_OUT_BUFFER_EMPTY)
 261              		.loc 1 159 0
 262 0002 0220     		movs	r0, #2
 263 0004 FFF7FEFF 		bl	USBP_EnableOutEP
 264              	.LVL28:
 160:main.c        ****         number_bytes_receive=USBP_GetEPCount(2);
 265              		.loc 1 160 0
 266 0008 04E0     		b	.L17
 267              	.L18:
 161:main.c        ****         USBP_ReadOutEP(2,RxPhoneData,number_bytes_receive);
 268              		.loc 1 161 0
 269 000a 0220     		movs	r0, #2
 270 000c FFF7FEFF 		bl	USBP_GetEPCount
 271              	.LVL29:
 272 0010 144B     		ldr	r3, .L22
 273 0012 9882     		strh	r0, [r3, #20]	@ movhi
 274              	.L17:
 160:main.c        ****         number_bytes_receive=USBP_GetEPCount(2);
 275              		.loc 1 160 0
 276 0014 0220     		movs	r0, #2
 277 0016 FFF7FEFF 		bl	USBP_GetEPAckState
 278              	.LVL30:
 279 001a 0028     		cmp	r0, #0
 280 001c F5D0     		beq	.L18
 162:main.c        ****         USBP_DisableOutEP(2);
 281              		.loc 1 162 0
 282 001e 124C     		ldr	r4, .L22+4
 283 0020 104B     		ldr	r3, .L22
 284 0022 9A8A     		ldrh	r2, [r3, #20]
 285 0024 2146     		mov	r1, r4
 286 0026 0220     		movs	r0, #2
 287 0028 FFF7FEFF 		bl	USBP_ReadOutEP
 288              	.LVL31:
 163:main.c        ****         if(RxPhoneData[0]==0x04 && RxPhoneData[1]==0x06){   //test connection
 289              		.loc 1 163 0
 290 002c 0220     		movs	r0, #2
 291 002e FFF7FEFF 		bl	USBP_DisableOutEP
 292              	.LVL32:
 164:main.c        ****             TxPhoneData[0]=0x02;
 293              		.loc 1 164 0
 294 0032 2378     		ldrb	r3, [r4]	@ zero_extendqisi2
 295 0034 042B     		cmp	r3, #4
 296 0036 10D1     		bne	.L19
 164:main.c        ****             TxPhoneData[0]=0x02;
 297              		.loc 1 164 0 is_stmt 0 discriminator 1
ARM GAS  C:\Users\PIERRE~1\AppData\Local\Temp\ccaf9B2g.s 			page 10


 298 0038 6378     		ldrb	r3, [r4, #1]	@ zero_extendqisi2
 299 003a 062B     		cmp	r3, #6
 300 003c 0DD1     		bne	.L19
 165:main.c        ****             TxPhoneData[1]=0x03;
 301              		.loc 1 165 0 is_stmt 1
 302 003e 0B49     		ldr	r1, .L22+8
 303 0040 0223     		movs	r3, #2
 304 0042 0B70     		strb	r3, [r1]
 166:main.c        ****             TxPhoneData[2]=0x46;
 305              		.loc 1 166 0
 306 0044 0323     		movs	r3, #3
 307 0046 4B70     		strb	r3, [r1, #1]
 167:main.c        ****             TxPhoneData[3]=0x37;
 308              		.loc 1 167 0
 309 0048 4623     		movs	r3, #70
 310 004a 8B70     		strb	r3, [r1, #2]
 168:main.c        ****             USBP_LoadInEP(1,TxPhoneData,4);
 311              		.loc 1 168 0
 312 004c 3723     		movs	r3, #55
 313 004e CB70     		strb	r3, [r1, #3]
 169:main.c        ****         }else{
 314              		.loc 1 169 0
 315 0050 0422     		movs	r2, #4
 316 0052 0120     		movs	r0, #1
 317 0054 FFF7FEFF 		bl	USBP_LoadInEP
 318              	.LVL33:
 319 0058 D3E7     		b	.L16
 320              	.L19:
 171:main.c        ****         }
 321              		.loc 1 171 0
 322 005a 4FF0FF30 		mov	r0, #-1
 323 005e FFF7FEFF 		bl	change_priorities
 324              	.LVL34:
 325 0062 CEE7     		b	.L16
 326              	.L23:
 327              		.align	2
 328              	.L22:
 329 0064 00000000 		.word	.LANCHOR0
 330 0068 00000000 		.word	RxPhoneData
 331 006c 00000000 		.word	TxPhoneData
 332              		.cfi_endproc
 333              	.LFE73:
 334              		.size	usb_in, .-usb_in
 335              		.section	.text.usb_out,"ax",%progbits
 336              		.align	2
 337              		.thumb
 338              		.thumb_func
 339              		.type	usb_out, %function
 340              	usb_out:
 341              	.LFB72:
 139:main.c        **** 
 342              		.loc 1 139 0
 343              		.cfi_startproc
 344              		@ args = 0, pretend = 0, frame = 0
 345              		@ frame_needed = 0, uses_anonymous_args = 0
 346              	.LVL35:
 347 0000 70B5     		push	{r4, r5, r6, lr}
ARM GAS  C:\Users\PIERRE~1\AppData\Local\Temp\ccaf9B2g.s 			page 11


 348              		.cfi_def_cfa_offset 16
 349              		.cfi_offset 4, -16
 350              		.cfi_offset 5, -12
 351              		.cfi_offset 6, -8
 352              		.cfi_offset 14, -4
 353              	.LVL36:
 354              	.L27:
 355              	.LBB2:
 143:main.c        ****             TxPhoneData[5*i]=all_clock_time[i];       
 356              		.loc 1 143 0
 357 0002 0021     		movs	r1, #0
 358 0004 14E0     		b	.L25
 359              	.LVL37:
 360              	.L26:
 144:main.c        ****             TxPhoneData[5*i+1]=all_clock_time[i]>>8;       
 361              		.loc 1 144 0 discriminator 3
 362 0006 01EB8103 		add	r3, r1, r1, lsl #2
 363 000a 0F48     		ldr	r0, .L29
 364 000c 00EBC100 		add	r0, r0, r1, lsl #3
 365 0010 8269     		ldr	r2, [r0, #24]
 366 0012 C469     		ldr	r4, [r0, #28]
 367 0014 0D48     		ldr	r0, .L29+4
 368 0016 C254     		strb	r2, [r0, r3]
 145:main.c        ****             TxPhoneData[5*i+2]=all_clock_time[i]>>16;       
 369              		.loc 1 145 0 discriminator 3
 370 0018 5D1C     		adds	r5, r3, #1
 371 001a 160A     		lsrs	r6, r2, #8
 372 001c 4655     		strb	r6, [r0, r5]
 146:main.c        ****             TxPhoneData[5*i+3]=all_clock_time[i]>>24;       
 373              		.loc 1 146 0 discriminator 3
 374 001e 9D1C     		adds	r5, r3, #2
 375 0020 160C     		lsrs	r6, r2, #16
 376 0022 4655     		strb	r6, [r0, r5]
 147:main.c        ****             TxPhoneData[5*i+4]=all_clock_time[i]>>32;
 377              		.loc 1 147 0 discriminator 3
 378 0024 DD1C     		adds	r5, r3, #3
 379 0026 120E     		lsrs	r2, r2, #24
 380 0028 4255     		strb	r2, [r0, r5]
 148:main.c        ****             //all_clock_time[i]=0;
 381              		.loc 1 148 0 discriminator 3
 382 002a 0433     		adds	r3, r3, #4
 383 002c C454     		strb	r4, [r0, r3]
 143:main.c        ****             TxPhoneData[5*i]=all_clock_time[i];       
 384              		.loc 1 143 0 discriminator 3
 385 002e 0131     		adds	r1, r1, #1
 386              	.LVL38:
 387              	.L25:
 143:main.c        ****             TxPhoneData[5*i]=all_clock_time[i];       
 388              		.loc 1 143 0 is_stmt 0 discriminator 1
 389 0030 0B29     		cmp	r1, #11
 390 0032 E8DD     		ble	.L26
 391              	.LBE2:
 151:main.c        ****         change_priorities(-2);
 392              		.loc 1 151 0 is_stmt 1
 393 0034 3F22     		movs	r2, #63
 394 0036 0549     		ldr	r1, .L29+4
 395              	.LVL39:
ARM GAS  C:\Users\PIERRE~1\AppData\Local\Temp\ccaf9B2g.s 			page 12


 396 0038 0120     		movs	r0, #1
 397 003a FFF7FEFF 		bl	USBP_LoadInEP
 398              	.LVL40:
 152:main.c        ****     }
 399              		.loc 1 152 0
 400 003e 6FF00100 		mvn	r0, #1
 401 0042 FFF7FEFF 		bl	change_priorities
 402              	.LVL41:
 153:main.c        **** }
 403              		.loc 1 153 0
 404 0046 DCE7     		b	.L27
 405              	.L30:
 406              		.align	2
 407              	.L29:
 408 0048 00000000 		.word	.LANCHOR0
 409 004c 00000000 		.word	TxPhoneData
 410              		.cfi_endproc
 411              	.LFE72:
 412              		.size	usb_out, .-usb_out
 413              		.section	.text.state_machine_task,"ax",%progbits
 414              		.align	2
 415              		.thumb
 416              		.thumb_func
 417              		.type	state_machine_task, %function
 418              	state_machine_task:
 419              	.LFB76:
 202:main.c        **** }
 203:main.c        **** 
 204:main.c        **** int main(void){
 205:main.c        **** 	LED_1_Write(LIGHT_OFF);
 206:main.c        ****     LED_2_Write(LIGHT_OFF);
 207:main.c        ****     LED_3_Write(LIGHT_OFF);
 208:main.c        ****     LED_4_Write(LIGHT_OFF);
 209:main.c        ****     
 210:main.c        ****     CyGlobalIntEnable;
 211:main.c        ****     
 212:main.c        ****     USBP_Start(0, USBP_DWR_VDDD_OPERATION);
 213:main.c        ****     
 214:main.c        ****     freeRTOSInit();
 215:main.c        ****     Timer_1_Start();
 216:main.c        ****     
 217:main.c        ****     /* initialisation of the DecaWave */
 218:main.c        ****     SPIM_Start();
 219:main.c        **** 	CyDelay(10u); //time for the DW to go from Wakeup to init and then IDLE
 220:main.c        **** 	DWM_Init();
 221:main.c        ****     
 222:main.c        ****     /* Sets up the GPIO interrupt and enables it */
 223:main.c        ****     IRQ_StartEx(ISR);
 224:main.c        ****     IRQ_SetPriority(ISR_PRIORITY);
 225:main.c        ****     while(!USBP_bGetConfiguration());
 226:main.c        ****     //initialize tasks (one for each slave + usb_out, usb_in)
 227:main.c        ****     irq_queue = xQueueCreate(10, sizeof(uint32_t));
 228:main.c        ****     Rx_q = xQueueCreate(1, sizeof(uint8_t));
 229:main.c        ****     Tx_q = xQueueCreate(1, sizeof(uint8_t));
 230:main.c        ****     semaphoreBuf1 = xSemaphoreCreateMutex();
 231:main.c        ****     xTaskCreate(interrupt_routine, "interrupt_routine",1024, NULL, INTERRUPT_PRIORITY, NULL);
 232:main.c        ****     int slaveNummer = 1;
ARM GAS  C:\Users\PIERRE~1\AppData\Local\Temp\ccaf9B2g.s 			page 13


 233:main.c        ****     xTaskCreate(state_machine_task,"slave_1", 1024, (void*) slaveNummer, 1, &taskHandler1);
 234:main.c        ****     slaveNummer = 2;
 235:main.c        ****     xTaskCreate(state_machine_task,"slave_2", 1024, (void*) slaveNummer, 1, &taskHandler2);
 236:main.c        ****     slaveNummer = 3;
 237:main.c        ****     xTaskCreate(state_machine_task,"slave_3", 1024, (void*) slaveNummer, 1, &taskHandler3);
 238:main.c        ****     xTaskCreate(usb_out, "usb_out", 1024, NULL, usb_out_prio, &usbOutHandler);
 239:main.c        ****     xTaskCreate(usb_in, "usb_in", 1024, NULL, usb_in_prio, &usbInHandler);
 240:main.c        ****     vTaskStartScheduler();
 241:main.c        ****     for(;;){
 242:main.c        ****     }
 243:main.c        **** }
 244:main.c        ****     
 245:main.c        **** static void state_machine_task(void *arg){	
 420              		.loc 1 245 0
 421              		.cfi_startproc
 422              		@ args = 0, pretend = 0, frame = 304
 423              		@ frame_needed = 0, uses_anonymous_args = 0
 424              	.LVL42:
 425 0000 2DE9F04F 		push	{r4, r5, r6, r7, r8, r9, r10, fp, lr}
 426              		.cfi_def_cfa_offset 36
 427              		.cfi_offset 4, -36
 428              		.cfi_offset 5, -32
 429              		.cfi_offset 6, -28
 430              		.cfi_offset 7, -24
 431              		.cfi_offset 8, -20
 432              		.cfi_offset 9, -16
 433              		.cfi_offset 10, -12
 434              		.cfi_offset 11, -8
 435              		.cfi_offset 14, -4
 436 0004 CDB0     		sub	sp, sp, #308
 437              		.cfi_def_cfa_offset 344
 246:main.c        **** 	uint8_t slaveNummer = (uint8_t) arg;
 438              		.loc 1 246 0
 439 0006 C3B2     		uxtb	r3, r0
 440 0008 1A46     		mov	r2, r3
 441 000a 1893     		str	r3, [sp, #96]
 442              	.LVL43:
 247:main.c        ****     uint8_t master_first_message = 0x10 | slaveNummer;
 443              		.loc 1 247 0
 444 000c 43F01003 		orr	r3, r3, #16
 445              	.LVL44:
 446 0010 1293     		str	r3, [sp, #72]
 447              	.LVL45:
 248:main.c        ****     uint8_t master_second_message	= 0x20 | slaveNummer;
 448              		.loc 1 248 0
 449 0012 42F02003 		orr	r3, r2, #32
 450 0016 1393     		str	r3, [sp, #76]
 451              	.LVL46:
 249:main.c        ****     uint8_t slave_standard_message	= 0x0A | slaveNummer<<4;
 452              		.loc 1 249 0
 453 0018 0301     		lsls	r3, r0, #4
 454 001a 03F47F63 		and	r3, r3, #4080
 455 001e 43F00A03 		orr	r3, r3, #10
 456 0022 DBB2     		uxtb	r3, r3
 457 0024 1993     		str	r3, [sp, #100]
 458              	.LVL47:
 250:main.c        ****     uint32_t RxFlag,TxFlag;
ARM GAS  C:\Users\PIERRE~1\AppData\Local\Temp\ccaf9B2g.s 			page 14


 251:main.c        ****     uint8_t RxData[15], TxData[128];
 252:main.c        ****     uint64_t t1, t2, t3, t4, t5, t6;
 253:main.c        ****     uint8_t t1_8[5], t2_8[5], t3_8[5], t4_8[5], t5_8[5], t6_8[5];
 254:main.c        ****     uint64_t TroundMaster, TreplySlave, TroundSlave, TreplyMaster;
 255:main.c        ****     uint8_t done = 0;
 256:main.c        ****     state = STATE_INIT;
 459              		.loc 1 256 0
 460 0026 0022     		movs	r2, #0
 461              	.LVL48:
 462 0028 854B     		ldr	r3, .L63
 463 002a 1A70     		strb	r2, [r3]
 464              	.LVL49:
 465              	.L34:
 257:main.c        **** 	for(;;){
 258:main.c        ****         a:      //label
 259:main.c        ****         CyDelay(1); //without this, semaphore can sometimes be taken by 2 anchors at the same time
 466              		.loc 1 259 0
 467 002c 0120     		movs	r0, #1
 468 002e FFF7FEFF 		bl	CyDelay
 469              	.LVL50:
 260:main.c        ****         if(xSemaphoreTake(semaphoreBuf1, 5) == pdPASS){
 470              		.loc 1 260 0
 471 0032 0521     		movs	r1, #5
 472 0034 834B     		ldr	r3, .L63+4
 473 0036 1868     		ldr	r0, [r3]
 474 0038 FFF7FEFF 		bl	xQueueSemaphoreTake
 475              	.LVL51:
 476 003c 0128     		cmp	r0, #1
 477 003e F5D1     		bne	.L34
 261:main.c        ****             vTaskPrioritySet(NULL, 25);
 478              		.loc 1 261 0
 479 0040 1921     		movs	r1, #25
 480 0042 0020     		movs	r0, #0
 481 0044 FFF7FEFF 		bl	vTaskPrioritySet
 482              	.LVL52:
 262:main.c        ****             done = 0;
 263:main.c        ****             while(done == 0){
 483              		.loc 1 263 0
 484 0048 2DE2     		b	.L60
 485              	.L36:
 264:main.c        ****                 switch(state){
 265:main.c        ****         			case STATE_INIT :
 266:main.c        ****         				TxOk = 0;
 486              		.loc 1 266 0
 487 004a 7F4D     		ldr	r5, .L63+8
 488 004c 0024     		movs	r4, #0
 489 004e 85F87840 		strb	r4, [r5, #120]
 267:main.c        ****                         TxOk = 0;
 268:main.c        ****                         RxState = 0;
 490              		.loc 1 268 0
 491 0052 85F87940 		strb	r4, [r5, #121]
 269:main.c        ****                         RxFlag=0;
 492              		.loc 1 269 0
 493 0056 4B94     		str	r4, [sp, #300]
 270:main.c        ****         		        TxFlag=0;
 494              		.loc 1 270 0
 495 0058 4A94     		str	r4, [sp, #296]
ARM GAS  C:\Users\PIERRE~1\AppData\Local\Temp\ccaf9B2g.s 			page 15


 271:main.c        ****                         idle();
 496              		.loc 1 271 0
 497 005a FFF7FEFF 		bl	idle
 498              	.LVL53:
 272:main.c        ****                         xQueueReset(Rx_q);
 499              		.loc 1 272 0
 500 005e 2146     		mov	r1, r4
 501 0060 E86F     		ldr	r0, [r5, #124]
 502 0062 FFF7FEFF 		bl	xQueueGenericReset
 503              	.LVL54:
 273:main.c        ****         		        xQueueReset(Tx_q);
 504              		.loc 1 273 0
 505 0066 2146     		mov	r1, r4
 506 0068 D5F88000 		ldr	r0, [r5, #128]
 507 006c FFF7FEFF 		bl	xQueueGenericReset
 508              	.LVL55:
 274:main.c        ****                         TxData[0] = master_first_message;
 509              		.loc 1 274 0
 510 0070 4CA8     		add	r0, sp, #304
 511 0072 9DF84830 		ldrb	r3, [sp, #72]	@ zero_extendqisi2
 512 0076 00F8983D 		strb	r3, [r0, #-152]!
 275:main.c        ****                         DWM_SendData(TxData,1,1);
 513              		.loc 1 275 0
 514 007a 0122     		movs	r2, #1
 515 007c 1146     		mov	r1, r2
 516 007e FFF7FEFF 		bl	DWM_SendData
 517              	.LVL56:
 276:main.c        ****         				state = STATE_WAIT_FIRST_SEND;
 518              		.loc 1 276 0
 519 0082 0122     		movs	r2, #1
 520 0084 6E4B     		ldr	r3, .L63
 521 0086 1A70     		strb	r2, [r3]
 277:main.c        ****         			break;
 522              		.loc 1 277 0
 523 0088 0DE2     		b	.L60
 524              	.L38:
 278:main.c        ****                             
 279:main.c        ****         			case STATE_WAIT_FIRST_SEND :
 280:main.c        ****                         if (xQueueReceive(Tx_q,&TxFlag,portMAX_DELAY)){
 525              		.loc 1 280 0
 526 008a 4FF0FF32 		mov	r2, #-1
 527 008e 4AA9     		add	r1, sp, #296
 528 0090 6D4B     		ldr	r3, .L63+8
 529 0092 D3F88000 		ldr	r0, [r3, #128]
 530 0096 FFF7FEFF 		bl	xQueueReceive
 531              	.LVL57:
 532 009a 0028     		cmp	r0, #0
 533 009c 00F00382 		beq	.L60
 281:main.c        ****         					DWM_ReadSPI_ext(TX_TIME, NO_SUB, t1_8, 5);//get tx time (T1)
 534              		.loc 1 281 0
 535 00a0 0523     		movs	r3, #5
 536 00a2 24AA     		add	r2, sp, #144
 537 00a4 4FF6FF71 		movw	r1, #65535
 538 00a8 1720     		movs	r0, #23
 539 00aa FFF7FEFF 		bl	DWM_ReadSPI_ext
 540              	.LVL58:
 282:main.c        ****         					TxFlag = 0;
ARM GAS  C:\Users\PIERRE~1\AppData\Local\Temp\ccaf9B2g.s 			page 16


 541              		.loc 1 282 0
 542 00ae 0023     		movs	r3, #0
 543 00b0 4A93     		str	r3, [sp, #296]
 283:main.c        ****                             TxOk = 0;
 544              		.loc 1 283 0
 545 00b2 654A     		ldr	r2, .L63+8
 546 00b4 82F87830 		strb	r3, [r2, #120]
 284:main.c        ****                             idle();
 547              		.loc 1 284 0
 548 00b8 FFF7FEFF 		bl	idle
 549              	.LVL59:
 285:main.c        ****                             DWM_Enable_Rx();
 550              		.loc 1 285 0
 551 00bc FFF7FEFF 		bl	DWM_Enable_Rx
 552              	.LVL60:
 286:main.c        ****                             state = STATE_WAIT_RESPONSE;
 553              		.loc 1 286 0
 554 00c0 0222     		movs	r2, #2
 555 00c2 5F4B     		ldr	r3, .L63
 556 00c4 1A70     		strb	r2, [r3]
 557 00c6 EEE1     		b	.L60
 558              	.L39:
 287:main.c        ****         				}
 288:main.c        ****         			break;
 289:main.c        ****                             
 290:main.c        ****         			case STATE_WAIT_RESPONSE:
 291:main.c        ****                         if(xQueueReceive(Rx_q,&RxFlag,32) == pdPASS ){  //5 ou 32 mais pas 20
 559              		.loc 1 291 0
 560 00c8 2022     		movs	r2, #32
 561 00ca 4BA9     		add	r1, sp, #300
 562 00cc 5E4B     		ldr	r3, .L63+8
 563 00ce D86F     		ldr	r0, [r3, #124]
 564 00d0 FFF7FEFF 		bl	xQueueReceive
 565              	.LVL61:
 566 00d4 0128     		cmp	r0, #1
 567 00d6 2BD1     		bne	.L40
 292:main.c        ****                             if (RxFlag == 2){
 568              		.loc 1 292 0
 569 00d8 4B9B     		ldr	r3, [sp, #300]
 570 00da 022B     		cmp	r3, #2
 571 00dc 07D1     		bne	.L41
 293:main.c        ****                                 idle();
 572              		.loc 1 293 0
 573 00de FFF7FEFF 		bl	idle
 574              	.LVL62:
 294:main.c        ****         				        DWM_Reset_Rx();
 575              		.loc 1 294 0
 576 00e2 FFF7FEFF 		bl	DWM_Reset_Rx
 577              	.LVL63:
 295:main.c        ****         				        state = STATE_INIT;
 578              		.loc 1 295 0
 579 00e6 0022     		movs	r2, #0
 580 00e8 554B     		ldr	r3, .L63
 581 00ea 1A70     		strb	r2, [r3]
 582 00ec DBE1     		b	.L60
 583              	.L41:
 296:main.c        ****         			        } else if (RxFlag == 1){
ARM GAS  C:\Users\PIERRE~1\AppData\Local\Temp\ccaf9B2g.s 			page 17


 584              		.loc 1 296 0
 585 00ee 012B     		cmp	r3, #1
 586 00f0 40F0D981 		bne	.L60
 297:main.c        ****         					    DWM_ReceiveData(RxData); 	// Read Rx buffer
 587              		.loc 1 297 0
 588 00f4 46A8     		add	r0, sp, #280
 589 00f6 FFF7FEFF 		bl	DWM_ReceiveData
 590              	.LVL64:
 298:main.c        ****         					    if (RxData[0] == slave_standard_message){   // Check RxFrame
 591              		.loc 1 298 0
 592 00fa 9DF81831 		ldrb	r3, [sp, #280]	@ zero_extendqisi2
 593 00fe 199A     		ldr	r2, [sp, #100]
 594 0100 9A42     		cmp	r2, r3
 595 0102 0CD1     		bne	.L42
 299:main.c        ****                                 DWM_ReadSPI_ext(RX_TIME,NO_SUB, t4_8,5);// get T4
 596              		.loc 1 299 0
 597 0104 0523     		movs	r3, #5
 598 0106 1EAA     		add	r2, sp, #120
 599 0108 4FF6FF71 		movw	r1, #65535
 600 010c 1520     		movs	r0, #21
 601 010e FFF7FEFF 		bl	DWM_ReadSPI_ext
 602              	.LVL65:
 300:main.c        ****         						state = STATE_SECOND_SEND;
 603              		.loc 1 300 0
 604 0112 0322     		movs	r2, #3
 605 0114 4A4B     		ldr	r3, .L63
 606 0116 1A70     		strb	r2, [r3]
 301:main.c        ****                                 idle();
 607              		.loc 1 301 0
 608 0118 FFF7FEFF 		bl	idle
 609              	.LVL66:
 610 011c 02E0     		b	.L43
 611              	.L42:
 302:main.c        ****         						}else{
 303:main.c        ****                                     state = STATE_INIT;
 612              		.loc 1 303 0
 613 011e 0022     		movs	r2, #0
 614 0120 474B     		ldr	r3, .L63
 615 0122 1A70     		strb	r2, [r3]
 616              	.L43:
 304:main.c        ****         						}
 305:main.c        ****         						RxFlag = 0;
 617              		.loc 1 305 0
 618 0124 0023     		movs	r3, #0
 619 0126 4B93     		str	r3, [sp, #300]
 306:main.c        ****                                 RxState = 0;
 620              		.loc 1 306 0
 621 0128 474A     		ldr	r2, .L63+8
 622 012a 82F87930 		strb	r3, [r2, #121]
 623 012e BAE1     		b	.L60
 624              	.L40:
 307:main.c        ****                             }
 308:main.c        ****         				}else{
 309:main.c        ****                             state = STATE_INIT;
 625              		.loc 1 309 0
 626 0130 0024     		movs	r4, #0
 627 0132 434B     		ldr	r3, .L63
ARM GAS  C:\Users\PIERRE~1\AppData\Local\Temp\ccaf9B2g.s 			page 18


 628 0134 1C70     		strb	r4, [r3]
 310:main.c        ****                             taskENTER_CRITICAL();
 629              		.loc 1 310 0
 630 0136 FFF7FEFF 		bl	vPortEnterCritical
 631              	.LVL67:
 311:main.c        ****                             xSemaphoreGive(semaphoreBuf1);
 632              		.loc 1 311 0
 633 013a 2346     		mov	r3, r4
 634 013c 2246     		mov	r2, r4
 635 013e 2146     		mov	r1, r4
 636 0140 4048     		ldr	r0, .L63+4
 637 0142 0068     		ldr	r0, [r0]
 638 0144 FFF7FEFF 		bl	xQueueGenericSend
 639              	.LVL68:
 312:main.c        ****                             vTaskPrioritySet(NULL, uxTaskPriorityGet(NULL)-6);
 640              		.loc 1 312 0
 641 0148 2046     		mov	r0, r4
 642 014a FFF7FEFF 		bl	uxTaskPriorityGet
 643              	.LVL69:
 644 014e 811F     		subs	r1, r0, #6
 645 0150 2046     		mov	r0, r4
 646 0152 FFF7FEFF 		bl	vTaskPrioritySet
 647              	.LVL70:
 313:main.c        ****                             taskEXIT_CRITICAL();
 648              		.loc 1 313 0
 649 0156 FFF7FEFF 		bl	vPortExitCritical
 650              	.LVL71:
 314:main.c        ****                             goto a;
 651              		.loc 1 314 0
 652 015a 67E7     		b	.L34
 653              	.L44:
 315:main.c        ****                             
 316:main.c        ****                             
 317:main.c        ****                         }
 318:main.c        ****         			break;
 319:main.c        ****                             
 320:main.c        ****         			case STATE_SECOND_SEND:	
 321:main.c        ****                         
 322:main.c        ****         				TxData[0] = master_second_message;
 654              		.loc 1 322 0
 655 015c 4CA8     		add	r0, sp, #304
 656 015e 9DF84C30 		ldrb	r3, [sp, #76]	@ zero_extendqisi2
 657 0162 00F8983D 		strb	r3, [r0, #-152]!
 323:main.c        ****         				DWM_SendData(TxData, 1, 1);
 658              		.loc 1 323 0
 659 0166 0122     		movs	r2, #1
 660 0168 1146     		mov	r1, r2
 661 016a FFF7FEFF 		bl	DWM_SendData
 662              	.LVL72:
 324:main.c        ****         				state = STATE_WAIT_SECOND_SEND;
 663              		.loc 1 324 0
 664 016e 0422     		movs	r2, #4
 665 0170 334B     		ldr	r3, .L63
 666 0172 1A70     		strb	r2, [r3]
 325:main.c        ****         			break;
 667              		.loc 1 325 0
 668 0174 97E1     		b	.L60
ARM GAS  C:\Users\PIERRE~1\AppData\Local\Temp\ccaf9B2g.s 			page 19


 669              	.L45:
 326:main.c        ****                             
 327:main.c        ****         			case STATE_WAIT_SECOND_SEND:
 328:main.c        ****                         if (xQueueReceive(Tx_q,&TxFlag,portMAX_DELAY)){
 670              		.loc 1 328 0
 671 0176 4FF0FF32 		mov	r2, #-1
 672 017a 4AA9     		add	r1, sp, #296
 673 017c 324B     		ldr	r3, .L63+8
 674 017e D3F88000 		ldr	r0, [r3, #128]
 675 0182 FFF7FEFF 		bl	xQueueReceive
 676              	.LVL73:
 677 0186 0028     		cmp	r0, #0
 678 0188 00F08D81 		beq	.L60
 329:main.c        ****         						DWM_ReadSPI_ext(TX_TIME, NO_SUB, t5_8, 5);	//get tx time (T5)
 679              		.loc 1 329 0
 680 018c 0523     		movs	r3, #5
 681 018e 1CAA     		add	r2, sp, #112
 682 0190 4FF6FF71 		movw	r1, #65535
 683 0194 1720     		movs	r0, #23
 684 0196 FFF7FEFF 		bl	DWM_ReadSPI_ext
 685              	.LVL74:
 330:main.c        ****                                 TxFlag =0;
 686              		.loc 1 330 0
 687 019a 0023     		movs	r3, #0
 688 019c 4A93     		str	r3, [sp, #296]
 331:main.c        ****                                 TxOk = 0;
 689              		.loc 1 331 0
 690 019e 2A4A     		ldr	r2, .L63+8
 691 01a0 82F87830 		strb	r3, [r2, #120]
 332:main.c        ****                                 idle();
 692              		.loc 1 332 0
 693 01a4 FFF7FEFF 		bl	idle
 694              	.LVL75:
 333:main.c        ****                                 DWM_Enable_Rx();
 695              		.loc 1 333 0
 696 01a8 FFF7FEFF 		bl	DWM_Enable_Rx
 697              	.LVL76:
 334:main.c        ****                                 state = STATE_GET_TIMES;
 698              		.loc 1 334 0
 699 01ac 0522     		movs	r2, #5
 700 01ae 244B     		ldr	r3, .L63
 701 01b0 1A70     		strb	r2, [r3]
 702 01b2 78E1     		b	.L60
 703              	.L46:
 335:main.c        ****         				}
 336:main.c        ****         			break;
 337:main.c        ****                             
 338:main.c        ****         			case STATE_GET_TIMES :
 339:main.c        ****                         if(xQueueReceive(Rx_q,&RxFlag,32) == pdPASS ){ //5 ou 32 mais pas 20
 704              		.loc 1 339 0
 705 01b4 2022     		movs	r2, #32
 706 01b6 4BA9     		add	r1, sp, #300
 707 01b8 234B     		ldr	r3, .L63+8
 708 01ba D86F     		ldr	r0, [r3, #124]
 709 01bc FFF7FEFF 		bl	xQueueReceive
 710              	.LVL77:
 711 01c0 0128     		cmp	r0, #1
ARM GAS  C:\Users\PIERRE~1\AppData\Local\Temp\ccaf9B2g.s 			page 20


 712 01c2 40F0E180 		bne	.L47
 340:main.c        ****                             if (RxFlag == 2){
 713              		.loc 1 340 0
 714 01c6 4B9B     		ldr	r3, [sp, #300]
 715 01c8 022B     		cmp	r3, #2
 716 01ca 05D1     		bne	.L48
 341:main.c        ****             					DWM_Reset_Rx();
 717              		.loc 1 341 0
 718 01cc FFF7FEFF 		bl	DWM_Reset_Rx
 719              	.LVL78:
 342:main.c        ****             					state = STATE_INIT;
 720              		.loc 1 342 0
 721 01d0 0022     		movs	r2, #0
 722 01d2 1B4B     		ldr	r3, .L63
 723 01d4 1A70     		strb	r2, [r3]
 724 01d6 D1E0     		b	.L49
 725              	.L48:
 343:main.c        ****             				} else if (RxFlag == 1){
 726              		.loc 1 343 0
 727 01d8 012B     		cmp	r3, #1
 728 01da 40F0CF80 		bne	.L49
 344:main.c        ****         						DWM_ReceiveData(RxData);	//Read Rx Buffer
 729              		.loc 1 344 0
 730 01de 46A8     		add	r0, sp, #280
 731 01e0 FFF7FEFF 		bl	DWM_ReceiveData
 732              	.LVL79:
 733              	.LBB3:
 345:main.c        ****         						for (int i=0;i<5;i++){
 734              		.loc 1 345 0
 735 01e4 0023     		movs	r3, #0
 736 01e6 14E0     		b	.L50
 737              	.LVL80:
 738              	.L51:
 346:main.c        ****         							t2_8[i] = RxData[i];
 739              		.loc 1 346 0 discriminator 3
 740 01e8 4CAA     		add	r2, sp, #304
 741 01ea 1A44     		add	r2, r2, r3
 742 01ec 12F8181C 		ldrb	r1, [r2, #-24]	@ zero_extendqisi2
 743 01f0 02F8A81C 		strb	r1, [r2, #-168]
 347:main.c        ****         							t3_8[i] = RxData[i+5];
 744              		.loc 1 347 0 discriminator 3
 745 01f4 591D     		adds	r1, r3, #5
 746 01f6 4CA8     		add	r0, sp, #304
 747 01f8 0144     		add	r1, r1, r0
 748 01fa 11F8181C 		ldrb	r1, [r1, #-24]	@ zero_extendqisi2
 749 01fe 02F8B01C 		strb	r1, [r2, #-176]
 348:main.c        ****         							t6_8[i] = RxData[i+10];
 750              		.loc 1 348 0 discriminator 3
 751 0202 03F10A01 		add	r1, r3, #10
 752 0206 0144     		add	r1, r1, r0
 753 0208 11F8181C 		ldrb	r1, [r1, #-24]	@ zero_extendqisi2
 754 020c 02F8C81C 		strb	r1, [r2, #-200]
 345:main.c        ****         							t2_8[i] = RxData[i];
 755              		.loc 1 345 0 discriminator 3
 756 0210 0133     		adds	r3, r3, #1
 757              	.LVL81:
 758              	.L50:
ARM GAS  C:\Users\PIERRE~1\AppData\Local\Temp\ccaf9B2g.s 			page 21


 345:main.c        ****         							t2_8[i] = RxData[i];
 759              		.loc 1 345 0 is_stmt 0 discriminator 1
 760 0212 042B     		cmp	r3, #4
 761 0214 E8DD     		ble	.L51
 762 0216 0022     		movs	r2, #0
 763 0218 0023     		movs	r3, #0
 764              	.LVL82:
 765 021a 0024     		movs	r4, #0
 766 021c CDE90C34 		strd	r3, [sp, #48]
 767              	.LVL83:
 768 0220 CDE90E34 		strd	r3, [sp, #56]
 769              	.LVL84:
 770 0224 1E46     		mov	r6, r3
 771              	.LVL85:
 772 0226 2746     		mov	r7, r4
 773 0228 CDE90834 		strd	r3, [sp, #32]
 774              	.LVL86:
 775 022c CDE90A34 		strd	r3, [sp, #40]
 776              	.LVL87:
 777 0230 CDE91034 		strd	r3, [sp, #64]
 778              	.LVL88:
 779 0234 DDE914AB 		ldrd	r10, [sp, #80]
 780 0238 DDE91645 		ldrd	r4, [sp, #88]
 781 023c 7FE0     		b	.L52
 782              	.L64:
 783 023e 00BF     		.align	2
 784              	.L63:
 785 0240 00000000 		.word	state
 786 0244 00000000 		.word	semaphoreBuf1
 787 0248 00000000 		.word	.LANCHOR0
 788              	.LVL89:
 789              	.L53:
 790              	.LBE3:
 791              	.LBB4:
 349:main.c        ****         						}
 350:main.c        ****                                
 351:main.c        ****         						// Cast all times to uint64
 352:main.c        ****         						t1 = t2 = t3 = t4 = t5 = t6 = 0;
 353:main.c        ****         						for (int i=0;i<5;i++){
 354:main.c        ****         							t1 = (t1 << 8) | t1_8[4-i];
 792              		.loc 1 354 0 is_stmt 1 discriminator 3
 793 024c DDE90A01 		ldrd	r0, [sp, #40]
 794 0250 4FEA012B 		lsl	fp, r1, #8
 795 0254 4BEA106B 		orr	fp, fp, r0, lsr #24
 796 0258 4FEA002A 		lsl	r10, r0, #8
 797 025c C2F10403 		rsb	r3, r2, #4
 798 0260 4CA9     		add	r1, sp, #304
 799 0262 0B44     		add	r3, r3, r1
 800 0264 13F8A08C 		ldrb	r8, [r3, #-160]	@ zero_extendqisi2
 801 0268 4FF00009 		mov	r9, #0
 802 026c 4AEA0800 		orr	r0, r10, r8
 803 0270 4BEA0901 		orr	r1, fp, r9
 804 0274 CDE90A01 		strd	r0, [sp, #40]
 805              	.LVL90:
 355:main.c        ****         							t2 = (t2 << 8) | t2_8[4-i];
 806              		.loc 1 355 0 discriminator 3
 807 0278 DDE90889 		ldrd	r8, [sp, #32]
ARM GAS  C:\Users\PIERRE~1\AppData\Local\Temp\ccaf9B2g.s 			page 22


 808 027c 4946     		mov	r1, r9
 809 027e 0902     		lsls	r1, r1, #8
 810 0280 4046     		mov	r0, r8
 811              	.LVL91:
 812 0282 41EA1861 		orr	r1, r1, r8, lsr #24
 813 0286 0191     		str	r1, [sp, #4]
 814 0288 0102     		lsls	r1, r0, #8
 815 028a 0091     		str	r1, [sp]
 816 028c 13F8A88C 		ldrb	r8, [r3, #-168]	@ zero_extendqisi2
 817 0290 4FF00009 		mov	r9, #0
 818 0294 DDE90001 		ldrd	r0, [sp]
 819 0298 40EA0800 		orr	r0, r0, r8
 820 029c 41EA0901 		orr	r1, r1, r9
 821 02a0 CDE90801 		strd	r0, [sp, #32]
 822              	.LVL92:
 356:main.c        ****         							t3 = (t3 << 8) | t3_8[4-i];
 823              		.loc 1 356 0 discriminator 3
 824 02a4 3902     		lsls	r1, r7, #8
 825 02a6 41EA1661 		orr	r1, r1, r6, lsr #24
 826 02aa 0391     		str	r1, [sp, #12]
 827 02ac 3102     		lsls	r1, r6, #8
 828 02ae 0291     		str	r1, [sp, #8]
 829 02b0 13F8B06C 		ldrb	r6, [r3, #-176]	@ zero_extendqisi2
 830              	.LVL93:
 831 02b4 0027     		movs	r7, #0
 832 02b6 DDE90201 		ldrd	r0, [sp, #8]
 833              	.LVL94:
 834 02ba 3043     		orrs	r0, r0, r6
 835 02bc 3943     		orrs	r1, r1, r7
 836 02be 0646     		mov	r6, r0
 837 02c0 0F46     		mov	r7, r1
 838              	.LVL95:
 357:main.c        ****         							t4 = (t4 << 8) | t4_8[4-i];
 839              		.loc 1 357 0 discriminator 3
 840 02c2 DDE90E89 		ldrd	r8, [sp, #56]
 841 02c6 4946     		mov	r1, r9
 842 02c8 0902     		lsls	r1, r1, #8
 843 02ca 4046     		mov	r0, r8
 844 02cc 41EA1861 		orr	r1, r1, r8, lsr #24
 845 02d0 0591     		str	r1, [sp, #20]
 846 02d2 0102     		lsls	r1, r0, #8
 847 02d4 0491     		str	r1, [sp, #16]
 848 02d6 13F8B88C 		ldrb	r8, [r3, #-184]	@ zero_extendqisi2
 849 02da 4FF00009 		mov	r9, #0
 850 02de DDE90401 		ldrd	r0, [sp, #16]
 851 02e2 40EA0800 		orr	r0, r0, r8
 852 02e6 41EA0901 		orr	r1, r1, r9
 853 02ea CDE90E01 		strd	r0, [sp, #56]
 854              	.LVL96:
 358:main.c        ****         							t5 = (t5 << 8) | t5_8[4-i];
 855              		.loc 1 358 0 discriminator 3
 856 02ee DDE90C89 		ldrd	r8, [sp, #48]
 857 02f2 4946     		mov	r1, r9
 858 02f4 0902     		lsls	r1, r1, #8
 859 02f6 4046     		mov	r0, r8
 860              	.LVL97:
 861 02f8 41EA1861 		orr	r1, r1, r8, lsr #24
ARM GAS  C:\Users\PIERRE~1\AppData\Local\Temp\ccaf9B2g.s 			page 23


 862 02fc 0791     		str	r1, [sp, #28]
 863 02fe 0102     		lsls	r1, r0, #8
 864 0300 0691     		str	r1, [sp, #24]
 865 0302 13F8C08C 		ldrb	r8, [r3, #-192]	@ zero_extendqisi2
 866 0306 4FF00009 		mov	r9, #0
 867 030a DDE90601 		ldrd	r0, [sp, #24]
 868 030e 40EA0800 		orr	r0, r0, r8
 869 0312 41EA0901 		orr	r1, r1, r9
 870 0316 CDE90C01 		strd	r0, [sp, #48]
 871              	.LVL98:
 359:main.c        ****         							t6 = (t6 << 8) | t6_8[4-i];
 872              		.loc 1 359 0 discriminator 3
 873 031a DDE91089 		ldrd	r8, [sp, #64]
 874 031e 4946     		mov	r1, r9
 875 0320 0D02     		lsls	r5, r1, #8
 876 0322 4146     		mov	r1, r8
 877 0324 45EA1865 		orr	r5, r5, r8, lsr #24
 878 0328 0C02     		lsls	r4, r1, #8
 879 032a 13F8C80C 		ldrb	r0, [r3, #-200]	@ zero_extendqisi2
 880              	.LVL99:
 881 032e 0021     		movs	r1, #0
 882 0330 40EA0408 		orr	r8, r0, r4
 883 0334 41EA0509 		orr	r9, r1, r5
 884 0338 CDE91089 		strd	r8, [sp, #64]
 885              	.LVL100:
 353:main.c        ****         							t1 = (t1 << 8) | t1_8[4-i];
 886              		.loc 1 353 0 discriminator 3
 887 033c 0132     		adds	r2, r2, #1
 888              	.LVL101:
 889              	.L52:
 353:main.c        ****         							t1 = (t1 << 8) | t1_8[4-i];
 890              		.loc 1 353 0 is_stmt 0 discriminator 1
 891 033e 042A     		cmp	r2, #4
 892 0340 84DD     		ble	.L53
 893 0342 DDE91001 		ldrd	r0, [sp, #64]
 894 0346 CDE914AB 		strd	r10, [sp, #80]
 895 034a CDE91645 		strd	r4, [sp, #88]
 896              	.LBE4:
 360:main.c        ****         						}
 361:main.c        ****         						if (t6 < t2 || t5 < t1){
 897              		.loc 1 361 0 is_stmt 1
 898 034e 0346     		mov	r3, r0
 899 0350 0C46     		mov	r4, r1
 900 0352 DDE90812 		ldrd	r1, [sp, #32]
 901 0356 9442     		cmp	r4, r2
 902 0358 08BF     		it	eq
 903 035a 8B42     		cmpeq	r3, r1
 904 035c 07D3     		bcc	.L54
 905              		.loc 1 361 0 is_stmt 0 discriminator 1
 906 035e DDE90C34 		ldrd	r3, [sp, #48]
 907 0362 DDE90A12 		ldrd	r1, [sp, #40]
 908 0366 9442     		cmp	r4, r2
 909 0368 08BF     		it	eq
 910 036a 8B42     		cmpeq	r3, r1
 911 036c 03D2     		bcs	.L55
 912              	.L54:
 362:main.c        ****         							state = STATE_INIT;
ARM GAS  C:\Users\PIERRE~1\AppData\Local\Temp\ccaf9B2g.s 			page 24


 913              		.loc 1 362 0 is_stmt 1
 914 036e 0022     		movs	r2, #0
 915              	.LVL102:
 916 0370 574B     		ldr	r3, .L65
 917 0372 1A70     		strb	r2, [r3]
 918 0374 02E0     		b	.L49
 919              	.LVL103:
 920              	.L55:
 363:main.c        ****         						}
 364:main.c        ****         						else{
 365:main.c        ****         							state = STATE_END;
 921              		.loc 1 365 0
 922 0376 0622     		movs	r2, #6
 923              	.LVL104:
 924 0378 554B     		ldr	r3, .L65
 925              	.LVL105:
 926 037a 1A70     		strb	r2, [r3]
 927              	.LVL106:
 928              	.L49:
 366:main.c        ****         							
 367:main.c        ****         						}
 368:main.c        ****                             }
 369:main.c        ****                             RxFlag = 0;
 929              		.loc 1 369 0
 930 037c 0023     		movs	r3, #0
 931 037e 4B93     		str	r3, [sp, #300]
 370:main.c        ****                             RxState = 0;
 932              		.loc 1 370 0
 933 0380 544A     		ldr	r2, .L65+4
 934 0382 82F87930 		strb	r3, [r2, #121]
 371:main.c        ****         				}else{
 372:main.c        ****                             state = STATE_INIT;
 373:main.c        ****                             taskENTER_CRITICAL();
 374:main.c        ****                             xSemaphoreGive(semaphoreBuf1);
 375:main.c        ****                             vTaskPrioritySet(NULL, uxTaskPriorityGet(NULL)-6);
 376:main.c        ****                             taskEXIT_CRITICAL();
 377:main.c        ****                             goto a;
 378:main.c        ****                         }
 379:main.c        ****         			break;
 935              		.loc 1 379 0
 936 0386 8EE0     		b	.L60
 937              	.L47:
 372:main.c        ****                             taskENTER_CRITICAL();
 938              		.loc 1 372 0
 939 0388 0024     		movs	r4, #0
 940 038a 514B     		ldr	r3, .L65
 941 038c 1C70     		strb	r4, [r3]
 373:main.c        ****                             xSemaphoreGive(semaphoreBuf1);
 942              		.loc 1 373 0
 943 038e FFF7FEFF 		bl	vPortEnterCritical
 944              	.LVL107:
 374:main.c        ****                             vTaskPrioritySet(NULL, uxTaskPriorityGet(NULL)-6);
 945              		.loc 1 374 0
 946 0392 2346     		mov	r3, r4
 947 0394 2246     		mov	r2, r4
 948 0396 2146     		mov	r1, r4
 949 0398 4F48     		ldr	r0, .L65+8
ARM GAS  C:\Users\PIERRE~1\AppData\Local\Temp\ccaf9B2g.s 			page 25


 950 039a 0068     		ldr	r0, [r0]
 951 039c FFF7FEFF 		bl	xQueueGenericSend
 952              	.LVL108:
 375:main.c        ****                             taskEXIT_CRITICAL();
 953              		.loc 1 375 0
 954 03a0 2046     		mov	r0, r4
 955 03a2 FFF7FEFF 		bl	uxTaskPriorityGet
 956              	.LVL109:
 957 03a6 811F     		subs	r1, r0, #6
 958 03a8 2046     		mov	r0, r4
 959 03aa FFF7FEFF 		bl	vTaskPrioritySet
 960              	.LVL110:
 376:main.c        ****                             goto a;
 961              		.loc 1 376 0
 962 03ae FFF7FEFF 		bl	vPortExitCritical
 963              	.LVL111:
 377:main.c        ****                         }
 964              		.loc 1 377 0
 965 03b2 3BE6     		b	.L34
 966              	.L56:
 380:main.c        ****         			
 381:main.c        ****         			case STATE_END :
 382:main.c        ****                         idle();
 967              		.loc 1 382 0
 968 03b4 FFF7FEFF 		bl	idle
 969              	.LVL112:
 383:main.c        ****                         TroundMaster = (t4-t1);         //Time calculation
 970              		.loc 1 383 0
 971 03b8 DDE90EAB 		ldrd	r10, [sp, #56]
 972 03bc DDE90A34 		ldrd	r3, [sp, #40]
 973 03c0 BAEB0308 		subs	r8, r10, r3
 974 03c4 6BEB0409 		sbc	r9, fp, r4
 975              	.LVL113:
 384:main.c        ****         				TreplySlave = (t3-t2);
 976              		.loc 1 384 0
 977 03c8 DDE90823 		ldrd	r2, [sp, #32]
 978 03cc B21A     		subs	r2, r6, r2
 979 03ce 67EB0303 		sbc	r3, r7, r3
 980              	.LVL114:
 385:main.c        ****         				TroundSlave = (t6-t3);
 981              		.loc 1 385 0
 982 03d2 DDE91045 		ldrd	r4, [sp, #64]
 983 03d6 A41B     		subs	r4, r4, r6
 984 03d8 65EB0705 		sbc	r5, r5, r7
 985              	.LVL115:
 386:main.c        ****         				TreplyMaster = (t5-t4);
 986              		.loc 1 386 0
 987 03dc DDE90C01 		ldrd	r0, [sp, #48]
 988 03e0 B0EB0A00 		subs	r0, r0, r10
 989 03e4 61EB0B01 		sbc	r1, r1, fp
 990              	.LVL116:
 387:main.c        ****                         all_clock_time[4*found] = TroundMaster;
 991              		.loc 1 387 0
 992 03e8 DFF8E8A0 		ldr	r10, .L65+4
 993 03ec 9AF884E0 		ldrb	lr, [r10, #132]	@ zero_extendqisi2
 994 03f0 4FEA8E0C 		lsl	ip, lr, #2
 995 03f4 0AEB4E1B 		add	fp, r10, lr, lsl #5
ARM GAS  C:\Users\PIERRE~1\AppData\Local\Temp\ccaf9B2g.s 			page 26


 996 03f8 CBE90689 		strd	r8, [fp, #24]
 388:main.c        ****                         all_clock_time[4*found+1] = TroundSlave;
 997              		.loc 1 388 0
 998 03fc 0CF10108 		add	r8, ip, #1
 999              	.LVL117:
 1000 0400 0AEBC808 		add	r8, r10, r8, lsl #3
 1001 0404 C8E90645 		strd	r4, [r8, #24]
 1002              	.LVL118:
 389:main.c        ****                         all_clock_time[4*found+2] = TreplyMaster;
 1003              		.loc 1 389 0
 1004 0408 0CF10204 		add	r4, ip, #2
 1005              	.LVL119:
 1006 040c 0AEBC404 		add	r4, r10, r4, lsl #3
 1007 0410 C4E90601 		strd	r0, [r4, #24]
 390:main.c        ****                         all_clock_time[4*found+3] = TreplySlave;
 1008              		.loc 1 390 0
 1009 0414 0CF1030C 		add	ip, ip, #3
 1010 0418 0AEBCC0C 		add	ip, r10, ip, lsl #3
 1011 041c CCE90623 		strd	r2, [ip, #24]
 391:main.c        ****                         found =found+1;
 1012              		.loc 1 391 0
 1013 0420 0EF10103 		add	r3, lr, #1
 1014 0424 DBB2     		uxtb	r3, r3
 1015 0426 8AF88430 		strb	r3, [r10, #132]
 392:main.c        ****                         state = STATE_INIT;
 1016              		.loc 1 392 0
 1017 042a 0021     		movs	r1, #0
 1018 042c 284A     		ldr	r2, .L65
 1019              	.LVL120:
 1020 042e 1170     		strb	r1, [r2]
 393:main.c        ****                         if(found == 1){
 1021              		.loc 1 393 0
 1022 0430 012B     		cmp	r3, #1
 1023 0432 05D1     		bne	.L57
 394:main.c        ****                             TxPhoneData[60] = slaveNummer;
 1024              		.loc 1 394 0
 1025 0434 294B     		ldr	r3, .L65+12
 1026 0436 9DF86020 		ldrb	r2, [sp, #96]	@ zero_extendqisi2
 1027 043a 83F83C20 		strb	r2, [r3, #60]
 1028 043e 22E0     		b	.L58
 1029              	.L57:
 395:main.c        ****                         }else if(found == 2){
 1030              		.loc 1 395 0
 1031 0440 022B     		cmp	r3, #2
 1032 0442 05D1     		bne	.L59
 396:main.c        ****                             TxPhoneData[61] = slaveNummer;
 1033              		.loc 1 396 0
 1034 0444 254B     		ldr	r3, .L65+12
 1035 0446 9DF86020 		ldrb	r2, [sp, #96]	@ zero_extendqisi2
 1036 044a 83F83D20 		strb	r2, [r3, #61]
 1037 044e 1AE0     		b	.L58
 1038              	.L59:
 397:main.c        ****                         }else if(found == 3){
 1039              		.loc 1 397 0
 1040 0450 032B     		cmp	r3, #3
 1041 0452 18D1     		bne	.L58
 398:main.c        ****                             found = 0;
ARM GAS  C:\Users\PIERRE~1\AppData\Local\Temp\ccaf9B2g.s 			page 27


 1042              		.loc 1 398 0
 1043 0454 0024     		movs	r4, #0
 1044 0456 1F4B     		ldr	r3, .L65+4
 1045 0458 83F88440 		strb	r4, [r3, #132]
 399:main.c        ****                             TxPhoneData[62] = slaveNummer;
 1046              		.loc 1 399 0
 1047 045c 1F4B     		ldr	r3, .L65+12
 1048 045e 9DF86020 		ldrb	r2, [sp, #96]	@ zero_extendqisi2
 1049 0462 83F83E20 		strb	r2, [r3, #62]
 1050              	.LVL121:
 400:main.c        ****                             done = 1;
 401:main.c        ****                             taskENTER_CRITICAL();
 1051              		.loc 1 401 0
 1052 0466 FFF7FEFF 		bl	vPortEnterCritical
 1053              	.LVL122:
 402:main.c        ****                             xSemaphoreGive(semaphoreBuf1);
 1054              		.loc 1 402 0
 1055 046a 2346     		mov	r3, r4
 1056 046c 2246     		mov	r2, r4
 1057 046e 2146     		mov	r1, r4
 1058 0470 1948     		ldr	r0, .L65+8
 1059 0472 0068     		ldr	r0, [r0]
 1060 0474 FFF7FEFF 		bl	xQueueGenericSend
 1061              	.LVL123:
 403:main.c        ****                             vTaskResume(usbOutHandler);
 1062              		.loc 1 403 0
 1063 0478 194B     		ldr	r3, .L65+16
 1064 047a 1868     		ldr	r0, [r3]
 1065 047c FFF7FEFF 		bl	vTaskResume
 1066              	.LVL124:
 404:main.c        ****                             taskEXIT_CRITICAL();
 1067              		.loc 1 404 0
 1068 0480 FFF7FEFF 		bl	vPortExitCritical
 1069              	.LVL125:
 405:main.c        ****                             goto a;
 1070              		.loc 1 405 0
 1071 0484 D2E5     		b	.L34
 1072              	.LVL126:
 1073              	.L58:
 406:main.c        ****                             break;
 407:main.c        ****                         }
 408:main.c        ****                         done = 1;
 409:main.c        ****                         taskENTER_CRITICAL();
 1074              		.loc 1 409 0
 1075 0486 FFF7FEFF 		bl	vPortEnterCritical
 1076              	.LVL127:
 410:main.c        ****                         xSemaphoreGive(semaphoreBuf1);
 1077              		.loc 1 410 0
 1078 048a 0023     		movs	r3, #0
 1079 048c 1A46     		mov	r2, r3
 1080 048e 1946     		mov	r1, r3
 1081 0490 1148     		ldr	r0, .L65+8
 1082 0492 0068     		ldr	r0, [r0]
 1083 0494 FFF7FEFF 		bl	xQueueGenericSend
 1084              	.LVL128:
 411:main.c        ****                         vTaskPrioritySet(NULL, 5);
 1085              		.loc 1 411 0
ARM GAS  C:\Users\PIERRE~1\AppData\Local\Temp\ccaf9B2g.s 			page 28


 1086 0498 0521     		movs	r1, #5
 1087 049a 0020     		movs	r0, #0
 1088 049c FFF7FEFF 		bl	vTaskPrioritySet
 1089              	.LVL129:
 412:main.c        ****                         taskEXIT_CRITICAL();
 1090              		.loc 1 412 0
 1091 04a0 FFF7FEFF 		bl	vPortExitCritical
 1092              	.LVL130:
 1093              	.L33:
 413:main.c        ****                         goto a;
 1094              		.loc 1 413 0
 1095 04a4 C2E5     		b	.L34
 1096              	.LVL131:
 1097              	.L60:
 264:main.c        ****         			case STATE_INIT :
 1098              		.loc 1 264 0
 1099 04a6 0A4B     		ldr	r3, .L65
 1100 04a8 1B78     		ldrb	r3, [r3]	@ zero_extendqisi2
 1101 04aa 062B     		cmp	r3, #6
 1102 04ac FBD8     		bhi	.L60
 1103 04ae 01A2     		adr	r2, .L61
 1104 04b0 52F823F0 		ldr	pc, [r2, r3, lsl #2]
 1105              		.p2align 2
 1106              	.L61:
 1107 04b4 4B000000 		.word	.L36+1
 1108 04b8 8B000000 		.word	.L38+1
 1109 04bc C9000000 		.word	.L39+1
 1110 04c0 5D010000 		.word	.L44+1
 1111 04c4 77010000 		.word	.L45+1
 1112 04c8 B5010000 		.word	.L46+1
 1113 04cc B5030000 		.word	.L56+1
 1114              		.p2align 1
 1115              	.L66:
 1116              		.align	2
 1117              	.L65:
 1118 04d0 00000000 		.word	state
 1119 04d4 00000000 		.word	.LANCHOR0
 1120 04d8 00000000 		.word	semaphoreBuf1
 1121 04dc 00000000 		.word	TxPhoneData
 1122 04e0 00000000 		.word	usbOutHandler
 1123              		.cfi_endproc
 1124              	.LFE76:
 1125              		.size	state_machine_task, .-state_machine_task
 1126              		.section	.text.interrupt_routine,"ax",%progbits
 1127              		.align	2
 1128              		.thumb
 1129              		.thumb_func
 1130              		.type	interrupt_routine, %function
 1131              	interrupt_routine:
 1132              	.LFB71:
  92:main.c        **** 
 1133              		.loc 1 92 0
 1134              		.cfi_startproc
 1135              		@ args = 0, pretend = 0, frame = 16
 1136              		@ frame_needed = 0, uses_anonymous_args = 0
 1137              	.LVL132:
 1138 0000 30B5     		push	{r4, r5, lr}
ARM GAS  C:\Users\PIERRE~1\AppData\Local\Temp\ccaf9B2g.s 			page 29


 1139              		.cfi_def_cfa_offset 12
 1140              		.cfi_offset 4, -12
 1141              		.cfi_offset 5, -8
 1142              		.cfi_offset 14, -4
 1143 0002 85B0     		sub	sp, sp, #20
 1144              		.cfi_def_cfa_offset 32
 1145              	.LVL133:
 1146              	.L68:
  99:main.c        ****             uint8_t RxBuffer[4];
 1147              		.loc 1 99 0
 1148 0004 1E22     		movs	r2, #30
 1149 0006 03A9     		add	r1, sp, #12
 1150 0008 484B     		ldr	r3, .L77
 1151 000a 1868     		ldr	r0, [r3]
 1152 000c FFF7FEFF 		bl	xQueueReceive
 1153              	.LVL134:
 1154 0010 0028     		cmp	r0, #0
 1155 0012 F7D0     		beq	.L68
 1156              	.LBB5:
 102:main.c        **** 			DWM_ReadSPI_ext(SYS_STATUS, NO_SUB,  RxBuffer, 4);
 1157              		.loc 1 102 0
 1158 0014 0023     		movs	r3, #0
 1159 0016 0293     		str	r3, [sp, #8]
 103:main.c        **** 			StatusRegister  = (RxBuffer[3] << 24) | (RxBuffer[2] << 16) | (RxBuffer[1] << 8) | RxBuffer[0];
 1160              		.loc 1 103 0
 1161 0018 0423     		movs	r3, #4
 1162 001a 0DEB0302 		add	r2, sp, r3
 1163 001e 4FF6FF71 		movw	r1, #65535
 1164 0022 0F20     		movs	r0, #15
 1165 0024 FFF7FEFF 		bl	DWM_ReadSPI_ext
 1166              	.LVL135:
 104:main.c        **** 			if (StatusRegister == 0xFFFFFFFF) {
 1167              		.loc 1 104 0
 1168 0028 9DF80740 		ldrb	r4, [sp, #7]	@ zero_extendqisi2
 1169 002c 9DF80630 		ldrb	r3, [sp, #6]	@ zero_extendqisi2
 1170 0030 1B04     		lsls	r3, r3, #16
 1171 0032 43EA0463 		orr	r3, r3, r4, lsl #24
 1172 0036 9DF80540 		ldrb	r4, [sp, #5]	@ zero_extendqisi2
 1173 003a 43EA0423 		orr	r3, r3, r4, lsl #8
 1174 003e 9DF80440 		ldrb	r4, [sp, #4]	@ zero_extendqisi2
 1175 0042 1C43     		orrs	r4, r4, r3
 1176              	.LVL136:
 105:main.c        **** 				DWM_ReadSPI_ext(SYS_STATUS, NO_SUB,  RxBuffer, 4);
 1177              		.loc 1 105 0
 1178 0044 B4F1FF3F 		cmp	r4, #-1
 1179 0048 15D1     		bne	.L69
 106:main.c        **** 				StatusRegister  = (RxBuffer[3] << 24) | (RxBuffer[2] << 16) | (RxBuffer[1] << 8) | RxBuffer[0];
 1180              		.loc 1 106 0
 1181 004a 0423     		movs	r3, #4
 1182 004c 0DEB0302 		add	r2, sp, r3
 1183 0050 4FF6FF71 		movw	r1, #65535
 1184 0054 0F20     		movs	r0, #15
 1185 0056 FFF7FEFF 		bl	DWM_ReadSPI_ext
 1186              	.LVL137:
 107:main.c        **** 			}
 1187              		.loc 1 107 0
 1188 005a 9DF80720 		ldrb	r2, [sp, #7]	@ zero_extendqisi2
ARM GAS  C:\Users\PIERRE~1\AppData\Local\Temp\ccaf9B2g.s 			page 30


 1189 005e 9DF80630 		ldrb	r3, [sp, #6]	@ zero_extendqisi2
 1190 0062 1B04     		lsls	r3, r3, #16
 1191 0064 43EA0263 		orr	r3, r3, r2, lsl #24
 1192 0068 9DF80540 		ldrb	r4, [sp, #5]	@ zero_extendqisi2
 1193              	.LVL138:
 1194 006c 43EA0423 		orr	r3, r3, r4, lsl #8
 1195 0070 9DF80440 		ldrb	r4, [sp, #4]	@ zero_extendqisi2
 1196 0074 1C43     		orrs	r4, r4, r3
 1197              	.LVL139:
 1198              	.L69:
 109:main.c        **** 				TxOk = 1;
 1199              		.loc 1 109 0
 1200 0076 14F0800F 		tst	r4, #128
 1201 007a 11D0     		beq	.L70
 110:main.c        **** 				xQueueSend(Tx_q,(void*) &TxOk,portMAX_DELAY);
 1202              		.loc 1 110 0
 1203 007c 2B48     		ldr	r0, .L77
 1204 007e 0125     		movs	r5, #1
 1205 0080 0146     		mov	r1, r0
 1206 0082 01F8785F 		strb	r5, [r1, #120]!
 111:main.c        **** 				setBit(ack, 4, TX_OK_BIT, 1);
 1207              		.loc 1 111 0
 1208 0086 0023     		movs	r3, #0
 1209 0088 4FF0FF32 		mov	r2, #-1
 1210 008c D0F88000 		ldr	r0, [r0, #128]
 1211 0090 FFF7FEFF 		bl	xQueueGenericSend
 1212              	.LVL140:
 112:main.c        **** 			}
 1213              		.loc 1 112 0
 1214 0094 2B46     		mov	r3, r5
 1215 0096 0722     		movs	r2, #7
 1216 0098 0421     		movs	r1, #4
 1217 009a 02A8     		add	r0, sp, #8
 1218 009c FFF7FEFF 		bl	setBit
 1219              	.LVL141:
 1220              	.L70:
 116:main.c        **** 				ack[0] |= RX_FINISHED_MASK;
 1221              		.loc 1 116 0
 1222 00a0 04F4C843 		and	r3, r4, #25600
 1223 00a4 B3F5C84F 		cmp	r3, #25600
 1224 00a8 09D1     		bne	.L71
 118:main.c        **** 				ack[2] |= RX_FINISHED_MASK >> 16;
 1225              		.loc 1 118 0
 1226 00aa 9DF80930 		ldrb	r3, [sp, #9]	@ zero_extendqisi2
 1227 00ae 43F06403 		orr	r3, r3, #100
 1228 00b2 8DF80930 		strb	r3, [sp, #9]
 121:main.c        **** 			}
 1229              		.loc 1 121 0
 1230 00b6 0122     		movs	r2, #1
 1231 00b8 1C4B     		ldr	r3, .L77
 1232 00ba 83F87920 		strb	r2, [r3, #121]
 1233              	.L71:
 123:main.c        **** 				ack[0] |= RX_ERROR_MASK;
 1234              		.loc 1 123 0
 1235 00be 1C4B     		ldr	r3, .L77+4
 1236 00c0 1C42     		tst	r4, r3
 1237 00c2 15D0     		beq	.L72
ARM GAS  C:\Users\PIERRE~1\AppData\Local\Temp\ccaf9B2g.s 			page 31


 125:main.c        **** 				ack[2] |= RX_ERROR_MASK >> 16;
 1238              		.loc 1 125 0
 1239 00c4 9DF80930 		ldrb	r3, [sp, #9]	@ zero_extendqisi2
 1240 00c8 63F06F03 		orn	r3, r3, #111
 1241 00cc 8DF80930 		strb	r3, [sp, #9]
 126:main.c        **** 				ack[3] |= RX_ERROR_MASK >> 24;
 1242              		.loc 1 126 0
 1243 00d0 9DF80A30 		ldrb	r3, [sp, #10]	@ zero_extendqisi2
 1244 00d4 43F02703 		orr	r3, r3, #39
 1245 00d8 8DF80A30 		strb	r3, [sp, #10]
 127:main.c        **** 				RxState = 2;
 1246              		.loc 1 127 0
 1247 00dc 9DF80B30 		ldrb	r3, [sp, #11]	@ zero_extendqisi2
 1248 00e0 43F00403 		orr	r3, r3, #4
 1249 00e4 8DF80B30 		strb	r3, [sp, #11]
 128:main.c        **** 			}
 1250              		.loc 1 128 0
 1251 00e8 0222     		movs	r2, #2
 1252 00ea 104B     		ldr	r3, .L77
 1253 00ec 83F87920 		strb	r2, [r3, #121]
 1254              	.L72:
 130:main.c        ****                 xQueueSend(Rx_q,(void*) &RxState,portMAX_DELAY);
 1255              		.loc 1 130 0
 1256 00f0 0E4B     		ldr	r3, .L77
 1257 00f2 93F87930 		ldrb	r3, [r3, #121]	@ zero_extendqisi2
 1258 00f6 DBB2     		uxtb	r3, r3
 1259 00f8 012B     		cmp	r3, #1
 1260 00fa 05D0     		beq	.L73
 130:main.c        ****                 xQueueSend(Rx_q,(void*) &RxState,portMAX_DELAY);
 1261              		.loc 1 130 0 is_stmt 0 discriminator 1
 1262 00fc 0B4B     		ldr	r3, .L77
 1263 00fe 93F87930 		ldrb	r3, [r3, #121]	@ zero_extendqisi2
 1264 0102 DBB2     		uxtb	r3, r3
 1265 0104 022B     		cmp	r3, #2
 1266 0106 08D1     		bne	.L74
 1267              	.L73:
 131:main.c        ****             }
 1268              		.loc 1 131 0 is_stmt 1
 1269 0108 0848     		ldr	r0, .L77
 1270 010a 0023     		movs	r3, #0
 1271 010c 4FF0FF32 		mov	r2, #-1
 1272 0110 00F17901 		add	r1, r0, #121
 1273 0114 C06F     		ldr	r0, [r0, #124]
 1274 0116 FFF7FEFF 		bl	xQueueGenericSend
 1275              	.LVL142:
 1276              	.L74:
 133:main.c        ****          }
 1277              		.loc 1 133 0
 1278 011a 0423     		movs	r3, #4
 1279 011c 02AA     		add	r2, sp, #8
 1280 011e 4FF6FF71 		movw	r1, #65535
 1281 0122 0F20     		movs	r0, #15
 1282 0124 FFF7FEFF 		bl	DWM_WriteSPI_ext
 1283              	.LVL143:
 1284 0128 6CE7     		b	.L68
 1285              	.L78:
 1286 012a 00BF     		.align	2
ARM GAS  C:\Users\PIERRE~1\AppData\Local\Temp\ccaf9B2g.s 			page 32


 1287              	.L77:
 1288 012c 00000000 		.word	.LANCHOR0
 1289 0130 00902704 		.word	69701632
 1290              	.LBE5:
 1291              		.cfi_endproc
 1292              	.LFE71:
 1293              		.size	interrupt_routine, .-interrupt_routine
 1294              		.section	.text.main,"ax",%progbits
 1295              		.align	2
 1296              		.global	main
 1297              		.thumb
 1298              		.thumb_func
 1299              		.type	main, %function
 1300              	main:
 1301              	.LFB75:
 204:main.c        **** 	LED_1_Write(LIGHT_OFF);
 1302              		.loc 1 204 0
 1303              		.cfi_startproc
 1304              		@ args = 0, pretend = 0, frame = 0
 1305              		@ frame_needed = 0, uses_anonymous_args = 0
 1306 0000 70B5     		push	{r4, r5, r6, lr}
 1307              		.cfi_def_cfa_offset 16
 1308              		.cfi_offset 4, -16
 1309              		.cfi_offset 5, -12
 1310              		.cfi_offset 6, -8
 1311              		.cfi_offset 14, -4
 1312 0002 82B0     		sub	sp, sp, #8
 1313              		.cfi_def_cfa_offset 24
 205:main.c        ****     LED_2_Write(LIGHT_OFF);
 1314              		.loc 1 205 0
 1315 0004 0020     		movs	r0, #0
 1316 0006 FFF7FEFF 		bl	LED_1_Write
 1317              	.LVL144:
 206:main.c        ****     LED_3_Write(LIGHT_OFF);
 1318              		.loc 1 206 0
 1319 000a 0020     		movs	r0, #0
 1320 000c FFF7FEFF 		bl	LED_2_Write
 1321              	.LVL145:
 207:main.c        ****     LED_4_Write(LIGHT_OFF);
 1322              		.loc 1 207 0
 1323 0010 0020     		movs	r0, #0
 1324 0012 FFF7FEFF 		bl	LED_3_Write
 1325              	.LVL146:
 208:main.c        ****     
 1326              		.loc 1 208 0
 1327 0016 0020     		movs	r0, #0
 1328 0018 FFF7FEFF 		bl	LED_4_Write
 1329              	.LVL147:
 210:main.c        ****     
 1330              		.loc 1 210 0
 1331              		.syntax unified
 1332              	@ 210 "main.c" 1
 1333 001c 62B6     		CPSIE   i
 1334              	@ 0 "" 2
 212:main.c        ****     
 1335              		.loc 1 212 0
 1336              		.thumb
ARM GAS  C:\Users\PIERRE~1\AppData\Local\Temp\ccaf9B2g.s 			page 33


 1337              		.syntax unified
 1338 001e 0221     		movs	r1, #2
 1339 0020 0020     		movs	r0, #0
 1340 0022 FFF7FEFF 		bl	USBP_Start
 1341              	.LVL148:
 214:main.c        ****     Timer_1_Start();
 1342              		.loc 1 214 0
 1343 0026 FFF7FEFF 		bl	freeRTOSInit
 1344              	.LVL149:
 215:main.c        ****     
 1345              		.loc 1 215 0
 1346 002a FFF7FEFF 		bl	Timer_1_Start
 1347              	.LVL150:
 218:main.c        **** 	CyDelay(10u); //time for the DW to go from Wakeup to init and then IDLE
 1348              		.loc 1 218 0
 1349 002e FFF7FEFF 		bl	SPIM_Start
 1350              	.LVL151:
 219:main.c        **** 	DWM_Init();
 1351              		.loc 1 219 0
 1352 0032 0A20     		movs	r0, #10
 1353 0034 FFF7FEFF 		bl	CyDelay
 1354              	.LVL152:
 220:main.c        ****     
 1355              		.loc 1 220 0
 1356 0038 FFF7FEFF 		bl	DWM_Init
 1357              	.LVL153:
 223:main.c        ****     IRQ_SetPriority(ISR_PRIORITY);
 1358              		.loc 1 223 0
 1359 003c 3348     		ldr	r0, .L83
 1360 003e FFF7FEFF 		bl	IRQ_StartEx
 1361              	.LVL154:
 224:main.c        ****     while(!USBP_bGetConfiguration());
 1362              		.loc 1 224 0
 1363 0042 1520     		movs	r0, #21
 1364 0044 FFF7FEFF 		bl	IRQ_SetPriority
 1365              	.LVL155:
 1366              	.L80:
 225:main.c        ****     //initialize tasks (one for each slave + usb_out, usb_in)
 1367              		.loc 1 225 0 discriminator 1
 1368 0048 FFF7FEFF 		bl	USBP_GetConfiguration
 1369              	.LVL156:
 1370 004c 0028     		cmp	r0, #0
 1371 004e FBD0     		beq	.L80
 227:main.c        ****     Rx_q = xQueueCreate(1, sizeof(uint8_t));
 1372              		.loc 1 227 0
 1373 0050 0022     		movs	r2, #0
 1374 0052 0421     		movs	r1, #4
 1375 0054 0A20     		movs	r0, #10
 1376 0056 FFF7FEFF 		bl	xQueueGenericCreate
 1377              	.LVL157:
 1378 005a 2D4C     		ldr	r4, .L83+4
 1379 005c 2060     		str	r0, [r4]
 228:main.c        ****     Tx_q = xQueueCreate(1, sizeof(uint8_t));
 1380              		.loc 1 228 0
 1381 005e 0022     		movs	r2, #0
 1382 0060 0121     		movs	r1, #1
 1383 0062 0846     		mov	r0, r1
ARM GAS  C:\Users\PIERRE~1\AppData\Local\Temp\ccaf9B2g.s 			page 34


 1384 0064 FFF7FEFF 		bl	xQueueGenericCreate
 1385              	.LVL158:
 1386 0068 E067     		str	r0, [r4, #124]
 229:main.c        ****     semaphoreBuf1 = xSemaphoreCreateMutex();
 1387              		.loc 1 229 0
 1388 006a 0022     		movs	r2, #0
 1389 006c 0121     		movs	r1, #1
 1390 006e 0846     		mov	r0, r1
 1391 0070 FFF7FEFF 		bl	xQueueGenericCreate
 1392              	.LVL159:
 1393 0074 C4F88000 		str	r0, [r4, #128]
 230:main.c        ****     xTaskCreate(interrupt_routine, "interrupt_routine",1024, NULL, INTERRUPT_PRIORITY, NULL);
 1394              		.loc 1 230 0
 1395 0078 0120     		movs	r0, #1
 1396 007a FFF7FEFF 		bl	xQueueCreateMutex
 1397              	.LVL160:
 1398 007e 254B     		ldr	r3, .L83+8
 1399 0080 1860     		str	r0, [r3]
 231:main.c        ****     int slaveNummer = 1;
 1400              		.loc 1 231 0
 1401 0082 0024     		movs	r4, #0
 1402 0084 0194     		str	r4, [sp, #4]
 1403 0086 1623     		movs	r3, #22
 1404 0088 0093     		str	r3, [sp]
 1405 008a 2346     		mov	r3, r4
 1406 008c 4FF48062 		mov	r2, #1024
 1407 0090 2149     		ldr	r1, .L83+12
 1408 0092 2248     		ldr	r0, .L83+16
 1409 0094 FFF7FEFF 		bl	xTaskCreate
 1410              	.LVL161:
 233:main.c        ****     slaveNummer = 2;
 1411              		.loc 1 233 0
 1412 0098 214E     		ldr	r6, .L83+20
 1413 009a 224B     		ldr	r3, .L83+24
 1414 009c 0193     		str	r3, [sp, #4]
 1415 009e 0125     		movs	r5, #1
 1416 00a0 0095     		str	r5, [sp]
 1417 00a2 2B46     		mov	r3, r5
 1418 00a4 4FF48062 		mov	r2, #1024
 1419 00a8 1F49     		ldr	r1, .L83+28
 1420 00aa 3046     		mov	r0, r6
 1421 00ac FFF7FEFF 		bl	xTaskCreate
 1422              	.LVL162:
 235:main.c        ****     slaveNummer = 3;
 1423              		.loc 1 235 0
 1424 00b0 1E4B     		ldr	r3, .L83+32
 1425 00b2 0193     		str	r3, [sp, #4]
 1426 00b4 0095     		str	r5, [sp]
 1427 00b6 0223     		movs	r3, #2
 1428 00b8 4FF48062 		mov	r2, #1024
 1429 00bc 1C49     		ldr	r1, .L83+36
 1430 00be 3046     		mov	r0, r6
 1431 00c0 FFF7FEFF 		bl	xTaskCreate
 1432              	.LVL163:
 237:main.c        ****     xTaskCreate(usb_out, "usb_out", 1024, NULL, usb_out_prio, &usbOutHandler);
 1433              		.loc 1 237 0
 1434 00c4 1B4B     		ldr	r3, .L83+40
ARM GAS  C:\Users\PIERRE~1\AppData\Local\Temp\ccaf9B2g.s 			page 35


 1435 00c6 0193     		str	r3, [sp, #4]
 1436 00c8 0095     		str	r5, [sp]
 1437 00ca 0323     		movs	r3, #3
 1438 00cc 4FF48062 		mov	r2, #1024
 1439 00d0 1949     		ldr	r1, .L83+44
 1440 00d2 3046     		mov	r0, r6
 1441 00d4 FFF7FEFF 		bl	xTaskCreate
 1442              	.LVL164:
 238:main.c        ****     xTaskCreate(usb_in, "usb_in", 1024, NULL, usb_in_prio, &usbInHandler);
 1443              		.loc 1 238 0
 1444 00d8 184B     		ldr	r3, .L83+48
 1445 00da 0193     		str	r3, [sp, #4]
 1446 00dc 184D     		ldr	r5, .L83+52
 1447 00de EB78     		ldrb	r3, [r5, #3]	@ zero_extendqisi2
 1448 00e0 0093     		str	r3, [sp]
 1449 00e2 2346     		mov	r3, r4
 1450 00e4 4FF48062 		mov	r2, #1024
 1451 00e8 1649     		ldr	r1, .L83+56
 1452 00ea 1748     		ldr	r0, .L83+60
 1453 00ec FFF7FEFF 		bl	xTaskCreate
 1454              	.LVL165:
 239:main.c        ****     vTaskStartScheduler();
 1455              		.loc 1 239 0
 1456 00f0 164B     		ldr	r3, .L83+64
 1457 00f2 0193     		str	r3, [sp, #4]
 1458 00f4 2B79     		ldrb	r3, [r5, #4]	@ zero_extendqisi2
 1459 00f6 0093     		str	r3, [sp]
 1460 00f8 2346     		mov	r3, r4
 1461 00fa 4FF48062 		mov	r2, #1024
 1462 00fe 1449     		ldr	r1, .L83+68
 1463 0100 1448     		ldr	r0, .L83+72
 1464 0102 FFF7FEFF 		bl	xTaskCreate
 1465              	.LVL166:
 240:main.c        ****     for(;;){
 1466              		.loc 1 240 0
 1467 0106 FFF7FEFF 		bl	vTaskStartScheduler
 1468              	.LVL167:
 1469              	.L81:
 1470 010a FEE7     		b	.L81
 1471              	.L84:
 1472              		.align	2
 1473              	.L83:
 1474 010c 00000000 		.word	ISR
 1475 0110 00000000 		.word	.LANCHOR0
 1476 0114 00000000 		.word	semaphoreBuf1
 1477 0118 00000000 		.word	.LC0
 1478 011c 00000000 		.word	interrupt_routine
 1479 0120 00000000 		.word	state_machine_task
 1480 0124 00000000 		.word	taskHandler1
 1481 0128 14000000 		.word	.LC1
 1482 012c 00000000 		.word	taskHandler2
 1483 0130 1C000000 		.word	.LC2
 1484 0134 00000000 		.word	taskHandler3
 1485 0138 24000000 		.word	.LC3
 1486 013c 00000000 		.word	usbOutHandler
 1487 0140 00000000 		.word	.LANCHOR1
 1488 0144 2C000000 		.word	.LC4
ARM GAS  C:\Users\PIERRE~1\AppData\Local\Temp\ccaf9B2g.s 			page 36


 1489 0148 00000000 		.word	usb_out
 1490 014c 00000000 		.word	usbInHandler
 1491 0150 34000000 		.word	.LC5
 1492 0154 00000000 		.word	usb_in
 1493              		.cfi_endproc
 1494              	.LFE75:
 1495              		.size	main, .-main
 1496              		.comm	semaphoreBuf1,4,4
 1497              		.comm	usbInHandler,4,4
 1498              		.comm	usbOutHandler,4,4
 1499              		.comm	taskHandler4,4,4
 1500              		.comm	taskHandler3,4,4
 1501              		.comm	taskHandler2,4,4
 1502              		.comm	taskHandler1,4,4
 1503              		.comm	state,1,1
 1504              		.global	TxOk
 1505              		.global	found
 1506              		.global	all_clock_time
 1507              		.comm	TxPhoneData,63,4
 1508              		.comm	RxPhoneData,8,4
 1509              		.global	number_bytes_receive
 1510              		.global	usb_in_prio
 1511              		.global	usb_out_prio
 1512              		.global	prio4
 1513              		.global	prio3
 1514              		.global	prio2
 1515              		.global	prio1
 1516              		.global	prio_matrice
 1517              		.data
 1518              		.set	.LANCHOR1,. + 0
 1519              		.type	prio1, %object
 1520              		.size	prio1, 1
 1521              	prio1:
 1522 0000 14       		.byte	20
 1523              		.type	prio2, %object
 1524              		.size	prio2, 1
 1525              	prio2:
 1526 0001 14       		.byte	20
 1527              		.type	prio3, %object
 1528              		.size	prio3, 1
 1529              	prio3:
 1530 0002 14       		.byte	20
 1531              		.type	usb_out_prio, %object
 1532              		.size	usb_out_prio, 1
 1533              	usb_out_prio:
 1534 0003 1D       		.byte	29
 1535              		.type	usb_in_prio, %object
 1536              		.size	usb_in_prio, 1
 1537              	usb_in_prio:
 1538 0004 1E       		.byte	30
 1539              		.type	prio4, %object
 1540              		.size	prio4, 1
 1541              	prio4:
 1542 0005 14       		.byte	20
 1543              		.section	.rodata.str1.4,"aMS",%progbits,1
 1544              		.align	2
 1545              	.LC0:
ARM GAS  C:\Users\PIERRE~1\AppData\Local\Temp\ccaf9B2g.s 			page 37


 1546 0000 696E7465 		.ascii	"interrupt_routine\000"
 1546      72727570 
 1546      745F726F 
 1546      7574696E 
 1546      6500
 1547 0012 0000     		.space	2
 1548              	.LC1:
 1549 0014 736C6176 		.ascii	"slave_1\000"
 1549      655F3100 
 1550              	.LC2:
 1551 001c 736C6176 		.ascii	"slave_2\000"
 1551      655F3200 
 1552              	.LC3:
 1553 0024 736C6176 		.ascii	"slave_3\000"
 1553      655F3300 
 1554              	.LC4:
 1555 002c 7573625F 		.ascii	"usb_out\000"
 1555      6F757400 
 1556              	.LC5:
 1557 0034 7573625F 		.ascii	"usb_in\000"
 1557      696E00
 1558              		.bss
 1559              		.align	3
 1560              		.set	.LANCHOR0,. + 0
 1561              		.type	irq_queue, %object
 1562              		.size	irq_queue, 4
 1563              	irq_queue:
 1564 0000 00000000 		.space	4
 1565              		.type	prio_matrice, %object
 1566              		.size	prio_matrice, 16
 1567              	prio_matrice:
 1568 0004 00000000 		.space	16
 1568      00000000 
 1568      00000000 
 1568      00000000 
 1569              		.type	number_bytes_receive, %object
 1570              		.size	number_bytes_receive, 2
 1571              	number_bytes_receive:
 1572 0014 0000     		.space	2
 1573 0016 0000     		.space	2
 1574              		.type	all_clock_time, %object
 1575              		.size	all_clock_time, 96
 1576              	all_clock_time:
 1577 0018 00000000 		.space	96
 1577      00000000 
 1577      00000000 
 1577      00000000 
 1577      00000000 
 1578              		.type	TxOk, %object
 1579              		.size	TxOk, 1
 1580              	TxOk:
 1581 0078 00       		.space	1
 1582              		.type	RxState, %object
 1583              		.size	RxState, 1
 1584              	RxState:
 1585 0079 00       		.space	1
 1586 007a 0000     		.space	2
ARM GAS  C:\Users\PIERRE~1\AppData\Local\Temp\ccaf9B2g.s 			page 38


 1587              		.type	Rx_q, %object
 1588              		.size	Rx_q, 4
 1589              	Rx_q:
 1590 007c 00000000 		.space	4
 1591              		.type	Tx_q, %object
 1592              		.size	Tx_q, 4
 1593              	Tx_q:
 1594 0080 00000000 		.space	4
 1595              		.type	found, %object
 1596              		.size	found, 1
 1597              	found:
 1598 0084 00       		.space	1
 1599              		.text
 1600              	.Letext0:
 1601              		.file 2 "c:\\program files (x86)\\cypress\\psoc creator\\4.3\\psoc creator\\import\\gnu\\arm\\5.4.
 1602              		.file 3 "c:\\program files (x86)\\cypress\\psoc creator\\4.3\\psoc creator\\import\\gnu\\arm\\5.4.
 1603              		.file 4 "Generated_Source\\PSoC5/cytypes.h"
 1604              		.file 5 ".\\FreeRTOS\\include/portmacro.h"
 1605              		.file 6 ".\\FreeRTOS\\include/task.h"
 1606              		.file 7 ".\\FreeRTOS\\include/queue.h"
 1607              		.file 8 ".\\FreeRTOS\\include/semphr.h"
 1608              		.file 9 "Generated_Source\\PSoC5/core_cm3.h"
 1609              		.file 10 "Generated_Source\\PSoC5/IRQ.h"
 1610              		.file 11 "Generated_Source\\PSoC5/pin_1.h"
 1611              		.file 12 "Generated_Source\\PSoC5/USBP.h"
 1612              		.file 13 "Generated_Source\\PSoC5/CyLib.h"
 1613              		.file 14 "dwm1000.h"
 1614              		.file 15 "Generated_Source\\PSoC5/LED_1.h"
 1615              		.file 16 "Generated_Source\\PSoC5/LED_2.h"
 1616              		.file 17 "Generated_Source\\PSoC5/LED_3.h"
 1617              		.file 18 "Generated_Source\\PSoC5/LED_4.h"
 1618              		.file 19 "Generated_Source\\PSoC5/Timer_1.h"
 1619              		.file 20 "Generated_Source\\PSoC5/SPIM.h"
 1620              		.file 21 "main.h"