ARM GAS  C:\Users\PIERRE~1\AppData\Local\Temp\ccqePNI3.s 			page 1


   1              		.syntax unified
   2              		.cpu cortex-m3
   3              		.fpu softvfp
   4              		.eabi_attribute 20, 1
   5              		.eabi_attribute 21, 1
   6              		.eabi_attribute 23, 3
   7              		.eabi_attribute 24, 1
   8              		.eabi_attribute 25, 1
   9              		.eabi_attribute 26, 1
  10              		.eabi_attribute 30, 1
  11              		.eabi_attribute 34, 1
  12              		.eabi_attribute 18, 4
  13              		.thumb
  14              		.syntax unified
  15              		.file	"SPIM.c"
  16              		.text
  17              	.Ltext0:
  18              		.cfi_sections	.debug_frame
  19              		.section	.text.SPIM_EnableTxInt,"ax",%progbits
  20              		.align	2
  21              		.global	SPIM_EnableTxInt
  22              		.thumb
  23              		.thumb_func
  24              		.type	SPIM_EnableTxInt, %function
  25              	SPIM_EnableTxInt:
  26              	.LFB4:
  27              		.file 1 "Generated_Source\\PSoC5\\SPIM.c"
   1:Generated_Source\PSoC5/SPIM.c **** /*******************************************************************************
   2:Generated_Source\PSoC5/SPIM.c **** * File Name: SPIM.c
   3:Generated_Source\PSoC5/SPIM.c **** * Version 2.50
   4:Generated_Source\PSoC5/SPIM.c **** *
   5:Generated_Source\PSoC5/SPIM.c **** * Description:
   6:Generated_Source\PSoC5/SPIM.c **** *  This file provides all API functionality of the SPI Master component.
   7:Generated_Source\PSoC5/SPIM.c **** *
   8:Generated_Source\PSoC5/SPIM.c **** * Note:
   9:Generated_Source\PSoC5/SPIM.c **** *  None.
  10:Generated_Source\PSoC5/SPIM.c **** *
  11:Generated_Source\PSoC5/SPIM.c **** ********************************************************************************
  12:Generated_Source\PSoC5/SPIM.c **** * Copyright 2008-2015, Cypress Semiconductor Corporation.  All rights reserved.
  13:Generated_Source\PSoC5/SPIM.c **** * You may use this file only in accordance with the license, terms, conditions,
  14:Generated_Source\PSoC5/SPIM.c **** * disclaimers, and limitations in the end user license agreement accompanying
  15:Generated_Source\PSoC5/SPIM.c **** * the software package with which this file was provided.
  16:Generated_Source\PSoC5/SPIM.c **** *******************************************************************************/
  17:Generated_Source\PSoC5/SPIM.c **** 
  18:Generated_Source\PSoC5/SPIM.c **** #include "SPIM_PVT.h"
  19:Generated_Source\PSoC5/SPIM.c **** 
  20:Generated_Source\PSoC5/SPIM.c **** #if(SPIM_TX_SOFTWARE_BUF_ENABLED)
  21:Generated_Source\PSoC5/SPIM.c ****     volatile uint8 SPIM_txBuffer[SPIM_TX_BUFFER_SIZE];
  22:Generated_Source\PSoC5/SPIM.c ****     volatile uint8 SPIM_txBufferFull;
  23:Generated_Source\PSoC5/SPIM.c ****     volatile uint8 SPIM_txBufferRead;
  24:Generated_Source\PSoC5/SPIM.c ****     volatile uint8 SPIM_txBufferWrite;
  25:Generated_Source\PSoC5/SPIM.c **** #endif /* (SPIM_TX_SOFTWARE_BUF_ENABLED) */
  26:Generated_Source\PSoC5/SPIM.c **** 
  27:Generated_Source\PSoC5/SPIM.c **** #if(SPIM_RX_SOFTWARE_BUF_ENABLED)
  28:Generated_Source\PSoC5/SPIM.c ****     volatile uint8 SPIM_rxBuffer[SPIM_RX_BUFFER_SIZE];
  29:Generated_Source\PSoC5/SPIM.c ****     volatile uint8 SPIM_rxBufferFull;
  30:Generated_Source\PSoC5/SPIM.c ****     volatile uint8 SPIM_rxBufferRead;
ARM GAS  C:\Users\PIERRE~1\AppData\Local\Temp\ccqePNI3.s 			page 2


  31:Generated_Source\PSoC5/SPIM.c ****     volatile uint8 SPIM_rxBufferWrite;
  32:Generated_Source\PSoC5/SPIM.c **** #endif /* (SPIM_RX_SOFTWARE_BUF_ENABLED) */
  33:Generated_Source\PSoC5/SPIM.c **** 
  34:Generated_Source\PSoC5/SPIM.c **** uint8 SPIM_initVar = 0u;
  35:Generated_Source\PSoC5/SPIM.c **** 
  36:Generated_Source\PSoC5/SPIM.c **** volatile uint8 SPIM_swStatusTx;
  37:Generated_Source\PSoC5/SPIM.c **** volatile uint8 SPIM_swStatusRx;
  38:Generated_Source\PSoC5/SPIM.c **** 
  39:Generated_Source\PSoC5/SPIM.c **** 
  40:Generated_Source\PSoC5/SPIM.c **** /*******************************************************************************
  41:Generated_Source\PSoC5/SPIM.c **** * Function Name: SPIM_Init
  42:Generated_Source\PSoC5/SPIM.c **** ********************************************************************************
  43:Generated_Source\PSoC5/SPIM.c **** *
  44:Generated_Source\PSoC5/SPIM.c **** * Summary:
  45:Generated_Source\PSoC5/SPIM.c **** *  Inits/Restores default SPIM configuration provided with customizer.
  46:Generated_Source\PSoC5/SPIM.c **** *
  47:Generated_Source\PSoC5/SPIM.c **** * Parameters:
  48:Generated_Source\PSoC5/SPIM.c **** *  None.
  49:Generated_Source\PSoC5/SPIM.c **** *
  50:Generated_Source\PSoC5/SPIM.c **** * Return:
  51:Generated_Source\PSoC5/SPIM.c **** *  None.
  52:Generated_Source\PSoC5/SPIM.c **** *
  53:Generated_Source\PSoC5/SPIM.c **** * Side Effects:
  54:Generated_Source\PSoC5/SPIM.c **** *  When this function is called it initializes all of the necessary parameters
  55:Generated_Source\PSoC5/SPIM.c **** *  for execution. i.e. setting the initial interrupt mask, configuring the
  56:Generated_Source\PSoC5/SPIM.c **** *  interrupt service routine, configuring the bit-counter parameters and
  57:Generated_Source\PSoC5/SPIM.c **** *  clearing the FIFO and Status Register.
  58:Generated_Source\PSoC5/SPIM.c **** *
  59:Generated_Source\PSoC5/SPIM.c **** * Reentrant:
  60:Generated_Source\PSoC5/SPIM.c **** *  No.
  61:Generated_Source\PSoC5/SPIM.c **** *
  62:Generated_Source\PSoC5/SPIM.c **** *******************************************************************************/
  63:Generated_Source\PSoC5/SPIM.c **** void SPIM_Init(void) 
  64:Generated_Source\PSoC5/SPIM.c **** {
  65:Generated_Source\PSoC5/SPIM.c ****     /* Initialize the Bit counter */
  66:Generated_Source\PSoC5/SPIM.c ****     SPIM_COUNTER_PERIOD_REG = SPIM_BITCTR_INIT;
  67:Generated_Source\PSoC5/SPIM.c **** 
  68:Generated_Source\PSoC5/SPIM.c ****     /* Init TX ISR  */
  69:Generated_Source\PSoC5/SPIM.c ****     #if(0u != SPIM_INTERNAL_TX_INT_ENABLED)
  70:Generated_Source\PSoC5/SPIM.c ****         CyIntDisable         (SPIM_TX_ISR_NUMBER);
  71:Generated_Source\PSoC5/SPIM.c ****         CyIntSetPriority     (SPIM_TX_ISR_NUMBER,  SPIM_TX_ISR_PRIORITY);
  72:Generated_Source\PSoC5/SPIM.c ****         (void) CyIntSetVector(SPIM_TX_ISR_NUMBER, &SPIM_TX_ISR);
  73:Generated_Source\PSoC5/SPIM.c ****     #endif /* (0u != SPIM_INTERNAL_TX_INT_ENABLED) */
  74:Generated_Source\PSoC5/SPIM.c **** 
  75:Generated_Source\PSoC5/SPIM.c ****     /* Init RX ISR  */
  76:Generated_Source\PSoC5/SPIM.c ****     #if(0u != SPIM_INTERNAL_RX_INT_ENABLED)
  77:Generated_Source\PSoC5/SPIM.c ****         CyIntDisable         (SPIM_RX_ISR_NUMBER);
  78:Generated_Source\PSoC5/SPIM.c ****         CyIntSetPriority     (SPIM_RX_ISR_NUMBER,  SPIM_RX_ISR_PRIORITY);
  79:Generated_Source\PSoC5/SPIM.c ****         (void) CyIntSetVector(SPIM_RX_ISR_NUMBER, &SPIM_RX_ISR);
  80:Generated_Source\PSoC5/SPIM.c ****     #endif /* (0u != SPIM_INTERNAL_RX_INT_ENABLED) */
  81:Generated_Source\PSoC5/SPIM.c **** 
  82:Generated_Source\PSoC5/SPIM.c ****     /* Clear any stray data from the RX and TX FIFO */
  83:Generated_Source\PSoC5/SPIM.c ****     SPIM_ClearFIFO();
  84:Generated_Source\PSoC5/SPIM.c **** 
  85:Generated_Source\PSoC5/SPIM.c ****     #if(SPIM_RX_SOFTWARE_BUF_ENABLED)
  86:Generated_Source\PSoC5/SPIM.c ****         SPIM_rxBufferFull  = 0u;
  87:Generated_Source\PSoC5/SPIM.c ****         SPIM_rxBufferRead  = 0u;
ARM GAS  C:\Users\PIERRE~1\AppData\Local\Temp\ccqePNI3.s 			page 3


  88:Generated_Source\PSoC5/SPIM.c ****         SPIM_rxBufferWrite = 0u;
  89:Generated_Source\PSoC5/SPIM.c ****     #endif /* (SPIM_RX_SOFTWARE_BUF_ENABLED) */
  90:Generated_Source\PSoC5/SPIM.c **** 
  91:Generated_Source\PSoC5/SPIM.c ****     #if(SPIM_TX_SOFTWARE_BUF_ENABLED)
  92:Generated_Source\PSoC5/SPIM.c ****         SPIM_txBufferFull  = 0u;
  93:Generated_Source\PSoC5/SPIM.c ****         SPIM_txBufferRead  = 0u;
  94:Generated_Source\PSoC5/SPIM.c ****         SPIM_txBufferWrite = 0u;
  95:Generated_Source\PSoC5/SPIM.c ****     #endif /* (SPIM_TX_SOFTWARE_BUF_ENABLED) */
  96:Generated_Source\PSoC5/SPIM.c **** 
  97:Generated_Source\PSoC5/SPIM.c ****     (void) SPIM_ReadTxStatus(); /* Clear Tx status and swStatusTx */
  98:Generated_Source\PSoC5/SPIM.c ****     (void) SPIM_ReadRxStatus(); /* Clear Rx status and swStatusRx */
  99:Generated_Source\PSoC5/SPIM.c **** 
 100:Generated_Source\PSoC5/SPIM.c ****     /* Configure TX and RX interrupt mask */
 101:Generated_Source\PSoC5/SPIM.c ****     SPIM_TX_STATUS_MASK_REG = SPIM_TX_INIT_INTERRUPTS_MASK;
 102:Generated_Source\PSoC5/SPIM.c ****     SPIM_RX_STATUS_MASK_REG = SPIM_RX_INIT_INTERRUPTS_MASK;
 103:Generated_Source\PSoC5/SPIM.c **** }
 104:Generated_Source\PSoC5/SPIM.c **** 
 105:Generated_Source\PSoC5/SPIM.c **** 
 106:Generated_Source\PSoC5/SPIM.c **** /*******************************************************************************
 107:Generated_Source\PSoC5/SPIM.c **** * Function Name: SPIM_Enable
 108:Generated_Source\PSoC5/SPIM.c **** ********************************************************************************
 109:Generated_Source\PSoC5/SPIM.c **** *
 110:Generated_Source\PSoC5/SPIM.c **** * Summary:
 111:Generated_Source\PSoC5/SPIM.c **** *  Enable SPIM component.
 112:Generated_Source\PSoC5/SPIM.c **** *
 113:Generated_Source\PSoC5/SPIM.c **** * Parameters:
 114:Generated_Source\PSoC5/SPIM.c **** *  None.
 115:Generated_Source\PSoC5/SPIM.c **** *
 116:Generated_Source\PSoC5/SPIM.c **** * Return:
 117:Generated_Source\PSoC5/SPIM.c **** *  None.
 118:Generated_Source\PSoC5/SPIM.c **** *
 119:Generated_Source\PSoC5/SPIM.c **** *******************************************************************************/
 120:Generated_Source\PSoC5/SPIM.c **** void SPIM_Enable(void) 
 121:Generated_Source\PSoC5/SPIM.c **** {
 122:Generated_Source\PSoC5/SPIM.c ****     uint8 enableInterrupts;
 123:Generated_Source\PSoC5/SPIM.c **** 
 124:Generated_Source\PSoC5/SPIM.c ****     enableInterrupts = CyEnterCriticalSection();
 125:Generated_Source\PSoC5/SPIM.c ****     SPIM_COUNTER_CONTROL_REG |= SPIM_CNTR_ENABLE;
 126:Generated_Source\PSoC5/SPIM.c ****     SPIM_TX_STATUS_ACTL_REG  |= SPIM_INT_ENABLE;
 127:Generated_Source\PSoC5/SPIM.c ****     SPIM_RX_STATUS_ACTL_REG  |= SPIM_INT_ENABLE;
 128:Generated_Source\PSoC5/SPIM.c ****     CyExitCriticalSection(enableInterrupts);
 129:Generated_Source\PSoC5/SPIM.c **** 
 130:Generated_Source\PSoC5/SPIM.c ****     #if(0u != SPIM_INTERNAL_CLOCK)
 131:Generated_Source\PSoC5/SPIM.c ****         SPIM_IntClock_Enable();
 132:Generated_Source\PSoC5/SPIM.c ****     #endif /* (0u != SPIM_INTERNAL_CLOCK) */
 133:Generated_Source\PSoC5/SPIM.c **** 
 134:Generated_Source\PSoC5/SPIM.c ****     SPIM_EnableTxInt();
 135:Generated_Source\PSoC5/SPIM.c ****     SPIM_EnableRxInt();
 136:Generated_Source\PSoC5/SPIM.c **** }
 137:Generated_Source\PSoC5/SPIM.c **** 
 138:Generated_Source\PSoC5/SPIM.c **** 
 139:Generated_Source\PSoC5/SPIM.c **** /*******************************************************************************
 140:Generated_Source\PSoC5/SPIM.c **** * Function Name: SPIM_Start
 141:Generated_Source\PSoC5/SPIM.c **** ********************************************************************************
 142:Generated_Source\PSoC5/SPIM.c **** *
 143:Generated_Source\PSoC5/SPIM.c **** * Summary:
 144:Generated_Source\PSoC5/SPIM.c **** *  Initialize and Enable the SPI Master component.
ARM GAS  C:\Users\PIERRE~1\AppData\Local\Temp\ccqePNI3.s 			page 4


 145:Generated_Source\PSoC5/SPIM.c **** *
 146:Generated_Source\PSoC5/SPIM.c **** * Parameters:
 147:Generated_Source\PSoC5/SPIM.c **** *  None.
 148:Generated_Source\PSoC5/SPIM.c **** *
 149:Generated_Source\PSoC5/SPIM.c **** * Return:
 150:Generated_Source\PSoC5/SPIM.c **** *  None.
 151:Generated_Source\PSoC5/SPIM.c **** *
 152:Generated_Source\PSoC5/SPIM.c **** * Global variables:
 153:Generated_Source\PSoC5/SPIM.c **** *  SPIM_initVar - used to check initial configuration, modified on
 154:Generated_Source\PSoC5/SPIM.c **** *  first function call.
 155:Generated_Source\PSoC5/SPIM.c **** *
 156:Generated_Source\PSoC5/SPIM.c **** * Theory:
 157:Generated_Source\PSoC5/SPIM.c **** *  Enable the clock input to enable operation.
 158:Generated_Source\PSoC5/SPIM.c **** *
 159:Generated_Source\PSoC5/SPIM.c **** * Reentrant:
 160:Generated_Source\PSoC5/SPIM.c **** *  No.
 161:Generated_Source\PSoC5/SPIM.c **** *
 162:Generated_Source\PSoC5/SPIM.c **** *******************************************************************************/
 163:Generated_Source\PSoC5/SPIM.c **** void SPIM_Start(void) 
 164:Generated_Source\PSoC5/SPIM.c **** {
 165:Generated_Source\PSoC5/SPIM.c ****     if(0u == SPIM_initVar)
 166:Generated_Source\PSoC5/SPIM.c ****     {
 167:Generated_Source\PSoC5/SPIM.c ****         SPIM_Init();
 168:Generated_Source\PSoC5/SPIM.c ****         SPIM_initVar = 1u;
 169:Generated_Source\PSoC5/SPIM.c ****     }
 170:Generated_Source\PSoC5/SPIM.c **** 
 171:Generated_Source\PSoC5/SPIM.c ****     SPIM_Enable();
 172:Generated_Source\PSoC5/SPIM.c **** }
 173:Generated_Source\PSoC5/SPIM.c **** 
 174:Generated_Source\PSoC5/SPIM.c **** 
 175:Generated_Source\PSoC5/SPIM.c **** /*******************************************************************************
 176:Generated_Source\PSoC5/SPIM.c **** * Function Name: SPIM_Stop
 177:Generated_Source\PSoC5/SPIM.c **** ********************************************************************************
 178:Generated_Source\PSoC5/SPIM.c **** *
 179:Generated_Source\PSoC5/SPIM.c **** * Summary:
 180:Generated_Source\PSoC5/SPIM.c **** *  Disable the SPI Master component.
 181:Generated_Source\PSoC5/SPIM.c **** *
 182:Generated_Source\PSoC5/SPIM.c **** * Parameters:
 183:Generated_Source\PSoC5/SPIM.c **** *  None.
 184:Generated_Source\PSoC5/SPIM.c **** *
 185:Generated_Source\PSoC5/SPIM.c **** * Return:
 186:Generated_Source\PSoC5/SPIM.c **** *  None.
 187:Generated_Source\PSoC5/SPIM.c **** *
 188:Generated_Source\PSoC5/SPIM.c **** * Theory:
 189:Generated_Source\PSoC5/SPIM.c **** *  Disable the clock input to enable operation.
 190:Generated_Source\PSoC5/SPIM.c **** *
 191:Generated_Source\PSoC5/SPIM.c **** *******************************************************************************/
 192:Generated_Source\PSoC5/SPIM.c **** void SPIM_Stop(void) 
 193:Generated_Source\PSoC5/SPIM.c **** {
 194:Generated_Source\PSoC5/SPIM.c ****     uint8 enableInterrupts;
 195:Generated_Source\PSoC5/SPIM.c **** 
 196:Generated_Source\PSoC5/SPIM.c ****     enableInterrupts = CyEnterCriticalSection();
 197:Generated_Source\PSoC5/SPIM.c ****     SPIM_TX_STATUS_ACTL_REG &= ((uint8) ~SPIM_INT_ENABLE);
 198:Generated_Source\PSoC5/SPIM.c ****     SPIM_RX_STATUS_ACTL_REG &= ((uint8) ~SPIM_INT_ENABLE);
 199:Generated_Source\PSoC5/SPIM.c ****     CyExitCriticalSection(enableInterrupts);
 200:Generated_Source\PSoC5/SPIM.c **** 
 201:Generated_Source\PSoC5/SPIM.c ****     #if(0u != SPIM_INTERNAL_CLOCK)
ARM GAS  C:\Users\PIERRE~1\AppData\Local\Temp\ccqePNI3.s 			page 5


 202:Generated_Source\PSoC5/SPIM.c ****         SPIM_IntClock_Disable();
 203:Generated_Source\PSoC5/SPIM.c ****     #endif /* (0u != SPIM_INTERNAL_CLOCK) */
 204:Generated_Source\PSoC5/SPIM.c **** 
 205:Generated_Source\PSoC5/SPIM.c ****     SPIM_DisableTxInt();
 206:Generated_Source\PSoC5/SPIM.c ****     SPIM_DisableRxInt();
 207:Generated_Source\PSoC5/SPIM.c **** }
 208:Generated_Source\PSoC5/SPIM.c **** 
 209:Generated_Source\PSoC5/SPIM.c **** 
 210:Generated_Source\PSoC5/SPIM.c **** /*******************************************************************************
 211:Generated_Source\PSoC5/SPIM.c **** * Function Name: SPIM_EnableTxInt
 212:Generated_Source\PSoC5/SPIM.c **** ********************************************************************************
 213:Generated_Source\PSoC5/SPIM.c **** *
 214:Generated_Source\PSoC5/SPIM.c **** * Summary:
 215:Generated_Source\PSoC5/SPIM.c **** *  Enable internal Tx interrupt generation.
 216:Generated_Source\PSoC5/SPIM.c **** *
 217:Generated_Source\PSoC5/SPIM.c **** * Parameters:
 218:Generated_Source\PSoC5/SPIM.c **** *  None.
 219:Generated_Source\PSoC5/SPIM.c **** *
 220:Generated_Source\PSoC5/SPIM.c **** * Return:
 221:Generated_Source\PSoC5/SPIM.c **** *  None.
 222:Generated_Source\PSoC5/SPIM.c **** *
 223:Generated_Source\PSoC5/SPIM.c **** * Theory:
 224:Generated_Source\PSoC5/SPIM.c **** *  Enable the internal Tx interrupt output -or- the interrupt component itself.
 225:Generated_Source\PSoC5/SPIM.c **** *
 226:Generated_Source\PSoC5/SPIM.c **** *******************************************************************************/
 227:Generated_Source\PSoC5/SPIM.c **** void SPIM_EnableTxInt(void) 
 228:Generated_Source\PSoC5/SPIM.c **** {
  28              		.loc 1 228 0
  29              		.cfi_startproc
  30              		@ args = 0, pretend = 0, frame = 0
  31              		@ frame_needed = 0, uses_anonymous_args = 0
  32              		@ link register save eliminated.
  33 0000 7047     		bx	lr
  34              		.cfi_endproc
  35              	.LFE4:
  36              		.size	SPIM_EnableTxInt, .-SPIM_EnableTxInt
  37 0002 00BF     		.section	.text.SPIM_EnableRxInt,"ax",%progbits
  38              		.align	2
  39              		.global	SPIM_EnableRxInt
  40              		.thumb
  41              		.thumb_func
  42              		.type	SPIM_EnableRxInt, %function
  43              	SPIM_EnableRxInt:
  44              	.LFB5:
 229:Generated_Source\PSoC5/SPIM.c ****     #if(0u != SPIM_INTERNAL_TX_INT_ENABLED)
 230:Generated_Source\PSoC5/SPIM.c ****         CyIntEnable(SPIM_TX_ISR_NUMBER);
 231:Generated_Source\PSoC5/SPIM.c ****     #endif /* (0u != SPIM_INTERNAL_TX_INT_ENABLED) */
 232:Generated_Source\PSoC5/SPIM.c **** }
 233:Generated_Source\PSoC5/SPIM.c **** 
 234:Generated_Source\PSoC5/SPIM.c **** 
 235:Generated_Source\PSoC5/SPIM.c **** /*******************************************************************************
 236:Generated_Source\PSoC5/SPIM.c **** * Function Name: SPIM_EnableRxInt
 237:Generated_Source\PSoC5/SPIM.c **** ********************************************************************************
 238:Generated_Source\PSoC5/SPIM.c **** *
 239:Generated_Source\PSoC5/SPIM.c **** * Summary:
 240:Generated_Source\PSoC5/SPIM.c **** *  Enable internal Rx interrupt generation.
 241:Generated_Source\PSoC5/SPIM.c **** *
ARM GAS  C:\Users\PIERRE~1\AppData\Local\Temp\ccqePNI3.s 			page 6


 242:Generated_Source\PSoC5/SPIM.c **** * Parameters:
 243:Generated_Source\PSoC5/SPIM.c **** *  None.
 244:Generated_Source\PSoC5/SPIM.c **** *
 245:Generated_Source\PSoC5/SPIM.c **** * Return:
 246:Generated_Source\PSoC5/SPIM.c **** *  None.
 247:Generated_Source\PSoC5/SPIM.c **** *
 248:Generated_Source\PSoC5/SPIM.c **** * Theory:
 249:Generated_Source\PSoC5/SPIM.c **** *  Enable the internal Rx interrupt output -or- the interrupt component itself.
 250:Generated_Source\PSoC5/SPIM.c **** *
 251:Generated_Source\PSoC5/SPIM.c **** *******************************************************************************/
 252:Generated_Source\PSoC5/SPIM.c **** void SPIM_EnableRxInt(void) 
 253:Generated_Source\PSoC5/SPIM.c **** {
  45              		.loc 1 253 0
  46              		.cfi_startproc
  47              		@ args = 0, pretend = 0, frame = 0
  48              		@ frame_needed = 0, uses_anonymous_args = 0
  49              		@ link register save eliminated.
 254:Generated_Source\PSoC5/SPIM.c ****     #if(0u != SPIM_INTERNAL_RX_INT_ENABLED)
 255:Generated_Source\PSoC5/SPIM.c ****         CyIntEnable(SPIM_RX_ISR_NUMBER);
  50              		.loc 1 255 0
  51 0000 0222     		movs	r2, #2
  52 0002 014B     		ldr	r3, .L3
  53 0004 1A60     		str	r2, [r3]
  54 0006 7047     		bx	lr
  55              	.L4:
  56              		.align	2
  57              	.L3:
  58 0008 00E100E0 		.word	-536813312
  59              		.cfi_endproc
  60              	.LFE5:
  61              		.size	SPIM_EnableRxInt, .-SPIM_EnableRxInt
  62              		.section	.text.SPIM_Enable,"ax",%progbits
  63              		.align	2
  64              		.global	SPIM_Enable
  65              		.thumb
  66              		.thumb_func
  67              		.type	SPIM_Enable, %function
  68              	SPIM_Enable:
  69              	.LFB1:
 121:Generated_Source\PSoC5/SPIM.c ****     uint8 enableInterrupts;
  70              		.loc 1 121 0
  71              		.cfi_startproc
  72              		@ args = 0, pretend = 0, frame = 0
  73              		@ frame_needed = 0, uses_anonymous_args = 0
  74 0000 08B5     		push	{r3, lr}
  75              		.cfi_def_cfa_offset 8
  76              		.cfi_offset 3, -8
  77              		.cfi_offset 14, -4
 124:Generated_Source\PSoC5/SPIM.c ****     SPIM_COUNTER_CONTROL_REG |= SPIM_CNTR_ENABLE;
  78              		.loc 1 124 0
  79 0002 FFF7FEFF 		bl	CyEnterCriticalSection
  80              	.LVL0:
 125:Generated_Source\PSoC5/SPIM.c ****     SPIM_TX_STATUS_ACTL_REG  |= SPIM_INT_ENABLE;
  81              		.loc 1 125 0
  82 0006 0A4A     		ldr	r2, .L7
  83 0008 1378     		ldrb	r3, [r2]	@ zero_extendqisi2
  84 000a 43F02003 		orr	r3, r3, #32
ARM GAS  C:\Users\PIERRE~1\AppData\Local\Temp\ccqePNI3.s 			page 7


  85 000e 1370     		strb	r3, [r2]
 126:Generated_Source\PSoC5/SPIM.c ****     SPIM_RX_STATUS_ACTL_REG  |= SPIM_INT_ENABLE;
  86              		.loc 1 126 0
  87 0010 02F58072 		add	r2, r2, #256
  88 0014 1378     		ldrb	r3, [r2]	@ zero_extendqisi2
  89 0016 43F01003 		orr	r3, r3, #16
  90 001a 1370     		strb	r3, [r2]
 127:Generated_Source\PSoC5/SPIM.c ****     CyExitCriticalSection(enableInterrupts);
  91              		.loc 1 127 0
  92 001c 0132     		adds	r2, r2, #1
  93 001e 1378     		ldrb	r3, [r2]	@ zero_extendqisi2
  94 0020 43F01003 		orr	r3, r3, #16
  95 0024 1370     		strb	r3, [r2]
 128:Generated_Source\PSoC5/SPIM.c **** 
  96              		.loc 1 128 0
  97 0026 FFF7FEFF 		bl	CyExitCriticalSection
  98              	.LVL1:
 135:Generated_Source\PSoC5/SPIM.c **** }
  99              		.loc 1 135 0
 100 002a FFF7FEFF 		bl	SPIM_EnableRxInt
 101              	.LVL2:
 102 002e 08BD     		pop	{r3, pc}
 103              	.L8:
 104              		.align	2
 105              	.L7:
 106 0030 96640040 		.word	1073767574
 107              		.cfi_endproc
 108              	.LFE1:
 109              		.size	SPIM_Enable, .-SPIM_Enable
 110              		.section	.text.SPIM_DisableTxInt,"ax",%progbits
 111              		.align	2
 112              		.global	SPIM_DisableTxInt
 113              		.thumb
 114              		.thumb_func
 115              		.type	SPIM_DisableTxInt, %function
 116              	SPIM_DisableTxInt:
 117              	.LFB6:
 256:Generated_Source\PSoC5/SPIM.c ****     #endif /* (0u != SPIM_INTERNAL_RX_INT_ENABLED) */
 257:Generated_Source\PSoC5/SPIM.c **** }
 258:Generated_Source\PSoC5/SPIM.c **** 
 259:Generated_Source\PSoC5/SPIM.c **** 
 260:Generated_Source\PSoC5/SPIM.c **** /*******************************************************************************
 261:Generated_Source\PSoC5/SPIM.c **** * Function Name: SPIM_DisableTxInt
 262:Generated_Source\PSoC5/SPIM.c **** ********************************************************************************
 263:Generated_Source\PSoC5/SPIM.c **** *
 264:Generated_Source\PSoC5/SPIM.c **** * Summary:
 265:Generated_Source\PSoC5/SPIM.c **** *  Disable internal Tx interrupt generation.
 266:Generated_Source\PSoC5/SPIM.c **** *
 267:Generated_Source\PSoC5/SPIM.c **** * Parameters:
 268:Generated_Source\PSoC5/SPIM.c **** *  None.
 269:Generated_Source\PSoC5/SPIM.c **** *
 270:Generated_Source\PSoC5/SPIM.c **** * Return:
 271:Generated_Source\PSoC5/SPIM.c **** *  None.
 272:Generated_Source\PSoC5/SPIM.c **** *
 273:Generated_Source\PSoC5/SPIM.c **** * Theory:
 274:Generated_Source\PSoC5/SPIM.c **** *  Disable the internal Tx interrupt output -or- the interrupt component itself.
 275:Generated_Source\PSoC5/SPIM.c **** *
ARM GAS  C:\Users\PIERRE~1\AppData\Local\Temp\ccqePNI3.s 			page 8


 276:Generated_Source\PSoC5/SPIM.c **** *******************************************************************************/
 277:Generated_Source\PSoC5/SPIM.c **** void SPIM_DisableTxInt(void) 
 278:Generated_Source\PSoC5/SPIM.c **** {
 118              		.loc 1 278 0
 119              		.cfi_startproc
 120              		@ args = 0, pretend = 0, frame = 0
 121              		@ frame_needed = 0, uses_anonymous_args = 0
 122              		@ link register save eliminated.
 123 0000 7047     		bx	lr
 124              		.cfi_endproc
 125              	.LFE6:
 126              		.size	SPIM_DisableTxInt, .-SPIM_DisableTxInt
 127 0002 00BF     		.section	.text.SPIM_DisableRxInt,"ax",%progbits
 128              		.align	2
 129              		.global	SPIM_DisableRxInt
 130              		.thumb
 131              		.thumb_func
 132              		.type	SPIM_DisableRxInt, %function
 133              	SPIM_DisableRxInt:
 134              	.LFB7:
 279:Generated_Source\PSoC5/SPIM.c ****     #if(0u != SPIM_INTERNAL_TX_INT_ENABLED)
 280:Generated_Source\PSoC5/SPIM.c ****         CyIntDisable(SPIM_TX_ISR_NUMBER);
 281:Generated_Source\PSoC5/SPIM.c ****     #endif /* (0u != SPIM_INTERNAL_TX_INT_ENABLED) */
 282:Generated_Source\PSoC5/SPIM.c **** }
 283:Generated_Source\PSoC5/SPIM.c **** 
 284:Generated_Source\PSoC5/SPIM.c **** 
 285:Generated_Source\PSoC5/SPIM.c **** /*******************************************************************************
 286:Generated_Source\PSoC5/SPIM.c **** * Function Name: SPIM_DisableRxInt
 287:Generated_Source\PSoC5/SPIM.c **** ********************************************************************************
 288:Generated_Source\PSoC5/SPIM.c **** *
 289:Generated_Source\PSoC5/SPIM.c **** * Summary:
 290:Generated_Source\PSoC5/SPIM.c **** *  Disable internal Rx interrupt generation.
 291:Generated_Source\PSoC5/SPIM.c **** *
 292:Generated_Source\PSoC5/SPIM.c **** * Parameters:
 293:Generated_Source\PSoC5/SPIM.c **** *  None.
 294:Generated_Source\PSoC5/SPIM.c **** *
 295:Generated_Source\PSoC5/SPIM.c **** * Return:
 296:Generated_Source\PSoC5/SPIM.c **** *  None.
 297:Generated_Source\PSoC5/SPIM.c **** *
 298:Generated_Source\PSoC5/SPIM.c **** * Theory:
 299:Generated_Source\PSoC5/SPIM.c **** *  Disable the internal Rx interrupt output -or- the interrupt component itself.
 300:Generated_Source\PSoC5/SPIM.c **** *
 301:Generated_Source\PSoC5/SPIM.c **** *******************************************************************************/
 302:Generated_Source\PSoC5/SPIM.c **** void SPIM_DisableRxInt(void) 
 303:Generated_Source\PSoC5/SPIM.c **** {
 135              		.loc 1 303 0
 136              		.cfi_startproc
 137              		@ args = 0, pretend = 0, frame = 0
 138              		@ frame_needed = 0, uses_anonymous_args = 0
 139              		@ link register save eliminated.
 304:Generated_Source\PSoC5/SPIM.c ****     #if(0u != SPIM_INTERNAL_RX_INT_ENABLED)
 305:Generated_Source\PSoC5/SPIM.c ****         CyIntDisable(SPIM_RX_ISR_NUMBER);
 140              		.loc 1 305 0
 141 0000 0222     		movs	r2, #2
 142 0002 014B     		ldr	r3, .L11
 143 0004 1A60     		str	r2, [r3]
 144 0006 7047     		bx	lr
ARM GAS  C:\Users\PIERRE~1\AppData\Local\Temp\ccqePNI3.s 			page 9


 145              	.L12:
 146              		.align	2
 147              	.L11:
 148 0008 80E100E0 		.word	-536813184
 149              		.cfi_endproc
 150              	.LFE7:
 151              		.size	SPIM_DisableRxInt, .-SPIM_DisableRxInt
 152              		.section	.text.SPIM_Stop,"ax",%progbits
 153              		.align	2
 154              		.global	SPIM_Stop
 155              		.thumb
 156              		.thumb_func
 157              		.type	SPIM_Stop, %function
 158              	SPIM_Stop:
 159              	.LFB3:
 193:Generated_Source\PSoC5/SPIM.c ****     uint8 enableInterrupts;
 160              		.loc 1 193 0
 161              		.cfi_startproc
 162              		@ args = 0, pretend = 0, frame = 0
 163              		@ frame_needed = 0, uses_anonymous_args = 0
 164 0000 08B5     		push	{r3, lr}
 165              		.cfi_def_cfa_offset 8
 166              		.cfi_offset 3, -8
 167              		.cfi_offset 14, -4
 196:Generated_Source\PSoC5/SPIM.c ****     SPIM_TX_STATUS_ACTL_REG &= ((uint8) ~SPIM_INT_ENABLE);
 168              		.loc 1 196 0
 169 0002 FFF7FEFF 		bl	CyEnterCriticalSection
 170              	.LVL3:
 197:Generated_Source\PSoC5/SPIM.c ****     SPIM_RX_STATUS_ACTL_REG &= ((uint8) ~SPIM_INT_ENABLE);
 171              		.loc 1 197 0
 172 0006 074A     		ldr	r2, .L15
 173 0008 1378     		ldrb	r3, [r2]	@ zero_extendqisi2
 174 000a 03F0EF03 		and	r3, r3, #239
 175 000e 1370     		strb	r3, [r2]
 198:Generated_Source\PSoC5/SPIM.c ****     CyExitCriticalSection(enableInterrupts);
 176              		.loc 1 198 0
 177 0010 0132     		adds	r2, r2, #1
 178 0012 1378     		ldrb	r3, [r2]	@ zero_extendqisi2
 179 0014 03F0EF03 		and	r3, r3, #239
 180 0018 1370     		strb	r3, [r2]
 199:Generated_Source\PSoC5/SPIM.c **** 
 181              		.loc 1 199 0
 182 001a FFF7FEFF 		bl	CyExitCriticalSection
 183              	.LVL4:
 206:Generated_Source\PSoC5/SPIM.c **** }
 184              		.loc 1 206 0
 185 001e FFF7FEFF 		bl	SPIM_DisableRxInt
 186              	.LVL5:
 187 0022 08BD     		pop	{r3, pc}
 188              	.L16:
 189              		.align	2
 190              	.L15:
 191 0024 96650040 		.word	1073767830
 192              		.cfi_endproc
 193              	.LFE3:
 194              		.size	SPIM_Stop, .-SPIM_Stop
 195              		.section	.text.SPIM_SetTxInterruptMode,"ax",%progbits
ARM GAS  C:\Users\PIERRE~1\AppData\Local\Temp\ccqePNI3.s 			page 10


 196              		.align	2
 197              		.global	SPIM_SetTxInterruptMode
 198              		.thumb
 199              		.thumb_func
 200              		.type	SPIM_SetTxInterruptMode, %function
 201              	SPIM_SetTxInterruptMode:
 202              	.LFB8:
 306:Generated_Source\PSoC5/SPIM.c ****     #endif /* (0u != SPIM_INTERNAL_RX_INT_ENABLED) */
 307:Generated_Source\PSoC5/SPIM.c **** }
 308:Generated_Source\PSoC5/SPIM.c **** 
 309:Generated_Source\PSoC5/SPIM.c **** 
 310:Generated_Source\PSoC5/SPIM.c **** /*******************************************************************************
 311:Generated_Source\PSoC5/SPIM.c **** * Function Name: SPIM_SetTxInterruptMode
 312:Generated_Source\PSoC5/SPIM.c **** ********************************************************************************
 313:Generated_Source\PSoC5/SPIM.c **** *
 314:Generated_Source\PSoC5/SPIM.c **** * Summary:
 315:Generated_Source\PSoC5/SPIM.c **** *  Configure which status bits trigger an interrupt event.
 316:Generated_Source\PSoC5/SPIM.c **** *
 317:Generated_Source\PSoC5/SPIM.c **** * Parameters:
 318:Generated_Source\PSoC5/SPIM.c **** *  intSrc: An or'd combination of the desired status bit masks (defined in the
 319:Generated_Source\PSoC5/SPIM.c **** *  header file).
 320:Generated_Source\PSoC5/SPIM.c **** *
 321:Generated_Source\PSoC5/SPIM.c **** * Return:
 322:Generated_Source\PSoC5/SPIM.c **** *  None.
 323:Generated_Source\PSoC5/SPIM.c **** *
 324:Generated_Source\PSoC5/SPIM.c **** * Theory:
 325:Generated_Source\PSoC5/SPIM.c **** *  Enables the output of specific status bits to the interrupt controller.
 326:Generated_Source\PSoC5/SPIM.c **** *
 327:Generated_Source\PSoC5/SPIM.c **** *******************************************************************************/
 328:Generated_Source\PSoC5/SPIM.c **** void SPIM_SetTxInterruptMode(uint8 intSrc) 
 329:Generated_Source\PSoC5/SPIM.c **** {
 203              		.loc 1 329 0
 204              		.cfi_startproc
 205              		@ args = 0, pretend = 0, frame = 0
 206              		@ frame_needed = 0, uses_anonymous_args = 0
 207              		@ link register save eliminated.
 208              	.LVL6:
 330:Generated_Source\PSoC5/SPIM.c ****     SPIM_TX_STATUS_MASK_REG = intSrc;
 209              		.loc 1 330 0
 210 0000 014B     		ldr	r3, .L18
 211 0002 1870     		strb	r0, [r3]
 212 0004 7047     		bx	lr
 213              	.L19:
 214 0006 00BF     		.align	2
 215              	.L18:
 216 0008 86650040 		.word	1073767814
 217              		.cfi_endproc
 218              	.LFE8:
 219              		.size	SPIM_SetTxInterruptMode, .-SPIM_SetTxInterruptMode
 220              		.section	.text.SPIM_SetRxInterruptMode,"ax",%progbits
 221              		.align	2
 222              		.global	SPIM_SetRxInterruptMode
 223              		.thumb
 224              		.thumb_func
 225              		.type	SPIM_SetRxInterruptMode, %function
 226              	SPIM_SetRxInterruptMode:
 227              	.LFB9:
ARM GAS  C:\Users\PIERRE~1\AppData\Local\Temp\ccqePNI3.s 			page 11


 331:Generated_Source\PSoC5/SPIM.c **** }
 332:Generated_Source\PSoC5/SPIM.c **** 
 333:Generated_Source\PSoC5/SPIM.c **** 
 334:Generated_Source\PSoC5/SPIM.c **** /*******************************************************************************
 335:Generated_Source\PSoC5/SPIM.c **** * Function Name: SPIM_SetRxInterruptMode
 336:Generated_Source\PSoC5/SPIM.c **** ********************************************************************************
 337:Generated_Source\PSoC5/SPIM.c **** *
 338:Generated_Source\PSoC5/SPIM.c **** * Summary:
 339:Generated_Source\PSoC5/SPIM.c **** *  Configure which status bits trigger an interrupt event.
 340:Generated_Source\PSoC5/SPIM.c **** *
 341:Generated_Source\PSoC5/SPIM.c **** * Parameters:
 342:Generated_Source\PSoC5/SPIM.c **** *  intSrc: An or'd combination of the desired status bit masks (defined in the
 343:Generated_Source\PSoC5/SPIM.c **** *  header file).
 344:Generated_Source\PSoC5/SPIM.c **** *
 345:Generated_Source\PSoC5/SPIM.c **** * Return:
 346:Generated_Source\PSoC5/SPIM.c **** *  None.
 347:Generated_Source\PSoC5/SPIM.c **** *
 348:Generated_Source\PSoC5/SPIM.c **** * Theory:
 349:Generated_Source\PSoC5/SPIM.c **** *  Enables the output of specific status bits to the interrupt controller.
 350:Generated_Source\PSoC5/SPIM.c **** *
 351:Generated_Source\PSoC5/SPIM.c **** *******************************************************************************/
 352:Generated_Source\PSoC5/SPIM.c **** void SPIM_SetRxInterruptMode(uint8 intSrc) 
 353:Generated_Source\PSoC5/SPIM.c **** {
 228              		.loc 1 353 0
 229              		.cfi_startproc
 230              		@ args = 0, pretend = 0, frame = 0
 231              		@ frame_needed = 0, uses_anonymous_args = 0
 232              		@ link register save eliminated.
 233              	.LVL7:
 354:Generated_Source\PSoC5/SPIM.c ****     SPIM_RX_STATUS_MASK_REG  = intSrc;
 234              		.loc 1 354 0
 235 0000 014B     		ldr	r3, .L21
 236 0002 1870     		strb	r0, [r3]
 237 0004 7047     		bx	lr
 238              	.L22:
 239 0006 00BF     		.align	2
 240              	.L21:
 241 0008 87650040 		.word	1073767815
 242              		.cfi_endproc
 243              	.LFE9:
 244              		.size	SPIM_SetRxInterruptMode, .-SPIM_SetRxInterruptMode
 245              		.section	.text.SPIM_ReadTxStatus,"ax",%progbits
 246              		.align	2
 247              		.global	SPIM_ReadTxStatus
 248              		.thumb
 249              		.thumb_func
 250              		.type	SPIM_ReadTxStatus, %function
 251              	SPIM_ReadTxStatus:
 252              	.LFB10:
 355:Generated_Source\PSoC5/SPIM.c **** }
 356:Generated_Source\PSoC5/SPIM.c **** 
 357:Generated_Source\PSoC5/SPIM.c **** 
 358:Generated_Source\PSoC5/SPIM.c **** /*******************************************************************************
 359:Generated_Source\PSoC5/SPIM.c **** * Function Name: SPIM_ReadTxStatus
 360:Generated_Source\PSoC5/SPIM.c **** ********************************************************************************
 361:Generated_Source\PSoC5/SPIM.c **** *
 362:Generated_Source\PSoC5/SPIM.c **** * Summary:
ARM GAS  C:\Users\PIERRE~1\AppData\Local\Temp\ccqePNI3.s 			page 12


 363:Generated_Source\PSoC5/SPIM.c **** *  Read the Tx status register for the component.
 364:Generated_Source\PSoC5/SPIM.c **** *
 365:Generated_Source\PSoC5/SPIM.c **** * Parameters:
 366:Generated_Source\PSoC5/SPIM.c **** *  None.
 367:Generated_Source\PSoC5/SPIM.c **** *
 368:Generated_Source\PSoC5/SPIM.c **** * Return:
 369:Generated_Source\PSoC5/SPIM.c **** *  Contents of the Tx status register.
 370:Generated_Source\PSoC5/SPIM.c **** *
 371:Generated_Source\PSoC5/SPIM.c **** * Global variables:
 372:Generated_Source\PSoC5/SPIM.c **** *  SPIM_swStatusTx - used to store in software status register,
 373:Generated_Source\PSoC5/SPIM.c **** *  modified every function call - resets to zero.
 374:Generated_Source\PSoC5/SPIM.c **** *
 375:Generated_Source\PSoC5/SPIM.c **** * Theory:
 376:Generated_Source\PSoC5/SPIM.c **** *  Allows the user and the API to read the Tx status register for error
 377:Generated_Source\PSoC5/SPIM.c **** *  detection and flow control.
 378:Generated_Source\PSoC5/SPIM.c **** *
 379:Generated_Source\PSoC5/SPIM.c **** * Side Effects:
 380:Generated_Source\PSoC5/SPIM.c **** *  Clear Tx status register of the component.
 381:Generated_Source\PSoC5/SPIM.c **** *
 382:Generated_Source\PSoC5/SPIM.c **** * Reentrant:
 383:Generated_Source\PSoC5/SPIM.c **** *  No.
 384:Generated_Source\PSoC5/SPIM.c **** *
 385:Generated_Source\PSoC5/SPIM.c **** *******************************************************************************/
 386:Generated_Source\PSoC5/SPIM.c **** uint8 SPIM_ReadTxStatus(void) 
 387:Generated_Source\PSoC5/SPIM.c **** {
 253              		.loc 1 387 0
 254              		.cfi_startproc
 255              		@ args = 0, pretend = 0, frame = 0
 256              		@ frame_needed = 0, uses_anonymous_args = 0
 257              		@ link register save eliminated.
 388:Generated_Source\PSoC5/SPIM.c ****     uint8 tmpStatus;
 389:Generated_Source\PSoC5/SPIM.c **** 
 390:Generated_Source\PSoC5/SPIM.c ****     #if(SPIM_TX_SOFTWARE_BUF_ENABLED)
 391:Generated_Source\PSoC5/SPIM.c ****         /* Disable TX interrupt to protect global veriables */
 392:Generated_Source\PSoC5/SPIM.c ****         SPIM_DisableTxInt();
 393:Generated_Source\PSoC5/SPIM.c **** 
 394:Generated_Source\PSoC5/SPIM.c ****         tmpStatus = SPIM_GET_STATUS_TX(SPIM_swStatusTx);
 395:Generated_Source\PSoC5/SPIM.c ****         SPIM_swStatusTx = 0u;
 396:Generated_Source\PSoC5/SPIM.c **** 
 397:Generated_Source\PSoC5/SPIM.c ****         SPIM_EnableTxInt();
 398:Generated_Source\PSoC5/SPIM.c **** 
 399:Generated_Source\PSoC5/SPIM.c ****     #else
 400:Generated_Source\PSoC5/SPIM.c **** 
 401:Generated_Source\PSoC5/SPIM.c ****         tmpStatus = SPIM_TX_STATUS_REG;
 258              		.loc 1 401 0
 259 0000 014B     		ldr	r3, .L24
 260 0002 1878     		ldrb	r0, [r3]	@ zero_extendqisi2
 261              	.LVL8:
 402:Generated_Source\PSoC5/SPIM.c **** 
 403:Generated_Source\PSoC5/SPIM.c ****     #endif /* (SPIM_TX_SOFTWARE_BUF_ENABLED) */
 404:Generated_Source\PSoC5/SPIM.c **** 
 405:Generated_Source\PSoC5/SPIM.c ****     return(tmpStatus);
 406:Generated_Source\PSoC5/SPIM.c **** }
 262              		.loc 1 406 0
 263 0004 7047     		bx	lr
 264              	.L25:
 265 0006 00BF     		.align	2
ARM GAS  C:\Users\PIERRE~1\AppData\Local\Temp\ccqePNI3.s 			page 13


 266              	.L24:
 267 0008 66650040 		.word	1073767782
 268              		.cfi_endproc
 269              	.LFE10:
 270              		.size	SPIM_ReadTxStatus, .-SPIM_ReadTxStatus
 271              		.section	.text.SPIM_ReadRxStatus,"ax",%progbits
 272              		.align	2
 273              		.global	SPIM_ReadRxStatus
 274              		.thumb
 275              		.thumb_func
 276              		.type	SPIM_ReadRxStatus, %function
 277              	SPIM_ReadRxStatus:
 278              	.LFB11:
 407:Generated_Source\PSoC5/SPIM.c **** 
 408:Generated_Source\PSoC5/SPIM.c **** 
 409:Generated_Source\PSoC5/SPIM.c **** /*******************************************************************************
 410:Generated_Source\PSoC5/SPIM.c **** * Function Name: SPIM_ReadRxStatus
 411:Generated_Source\PSoC5/SPIM.c **** ********************************************************************************
 412:Generated_Source\PSoC5/SPIM.c **** *
 413:Generated_Source\PSoC5/SPIM.c **** * Summary:
 414:Generated_Source\PSoC5/SPIM.c **** *  Read the Rx status register for the component.
 415:Generated_Source\PSoC5/SPIM.c **** *
 416:Generated_Source\PSoC5/SPIM.c **** * Parameters:
 417:Generated_Source\PSoC5/SPIM.c **** *  None.
 418:Generated_Source\PSoC5/SPIM.c **** *
 419:Generated_Source\PSoC5/SPIM.c **** * Return:
 420:Generated_Source\PSoC5/SPIM.c **** *  Contents of the Rx status register.
 421:Generated_Source\PSoC5/SPIM.c **** *
 422:Generated_Source\PSoC5/SPIM.c **** * Global variables:
 423:Generated_Source\PSoC5/SPIM.c **** *  SPIM_swStatusRx - used to store in software Rx status register,
 424:Generated_Source\PSoC5/SPIM.c **** *  modified every function call - resets to zero.
 425:Generated_Source\PSoC5/SPIM.c **** *
 426:Generated_Source\PSoC5/SPIM.c **** * Theory:
 427:Generated_Source\PSoC5/SPIM.c **** *  Allows the user and the API to read the Rx status register for error
 428:Generated_Source\PSoC5/SPIM.c **** *  detection and flow control.
 429:Generated_Source\PSoC5/SPIM.c **** *
 430:Generated_Source\PSoC5/SPIM.c **** * Side Effects:
 431:Generated_Source\PSoC5/SPIM.c **** *  Clear Rx status register of the component.
 432:Generated_Source\PSoC5/SPIM.c **** *
 433:Generated_Source\PSoC5/SPIM.c **** * Reentrant:
 434:Generated_Source\PSoC5/SPIM.c **** *  No.
 435:Generated_Source\PSoC5/SPIM.c **** *
 436:Generated_Source\PSoC5/SPIM.c **** *******************************************************************************/
 437:Generated_Source\PSoC5/SPIM.c **** uint8 SPIM_ReadRxStatus(void) 
 438:Generated_Source\PSoC5/SPIM.c **** {
 279              		.loc 1 438 0
 280              		.cfi_startproc
 281              		@ args = 0, pretend = 0, frame = 0
 282              		@ frame_needed = 0, uses_anonymous_args = 0
 283 0000 10B5     		push	{r4, lr}
 284              		.cfi_def_cfa_offset 8
 285              		.cfi_offset 4, -8
 286              		.cfi_offset 14, -4
 439:Generated_Source\PSoC5/SPIM.c ****     uint8 tmpStatus;
 440:Generated_Source\PSoC5/SPIM.c **** 
 441:Generated_Source\PSoC5/SPIM.c ****     #if(SPIM_RX_SOFTWARE_BUF_ENABLED)
 442:Generated_Source\PSoC5/SPIM.c ****         /* Disable RX interrupt to protect global veriables */
ARM GAS  C:\Users\PIERRE~1\AppData\Local\Temp\ccqePNI3.s 			page 14


 443:Generated_Source\PSoC5/SPIM.c ****         SPIM_DisableRxInt();
 287              		.loc 1 443 0
 288 0002 FFF7FEFF 		bl	SPIM_DisableRxInt
 289              	.LVL9:
 444:Generated_Source\PSoC5/SPIM.c **** 
 445:Generated_Source\PSoC5/SPIM.c ****         tmpStatus = SPIM_GET_STATUS_RX(SPIM_swStatusRx);
 290              		.loc 1 445 0
 291 0006 064B     		ldr	r3, .L28
 292 0008 1B78     		ldrb	r3, [r3]	@ zero_extendqisi2
 293 000a 064A     		ldr	r2, .L28+4
 294 000c 1478     		ldrb	r4, [r2]	@ zero_extendqisi2
 295 000e 04F04004 		and	r4, r4, #64
 296 0012 1C43     		orrs	r4, r4, r3
 297              	.LVL10:
 446:Generated_Source\PSoC5/SPIM.c ****         SPIM_swStatusRx = 0u;
 298              		.loc 1 446 0
 299 0014 0023     		movs	r3, #0
 300 0016 1370     		strb	r3, [r2]
 447:Generated_Source\PSoC5/SPIM.c **** 
 448:Generated_Source\PSoC5/SPIM.c ****         SPIM_EnableRxInt();
 301              		.loc 1 448 0
 302 0018 FFF7FEFF 		bl	SPIM_EnableRxInt
 303              	.LVL11:
 449:Generated_Source\PSoC5/SPIM.c **** 
 450:Generated_Source\PSoC5/SPIM.c ****     #else
 451:Generated_Source\PSoC5/SPIM.c **** 
 452:Generated_Source\PSoC5/SPIM.c ****         tmpStatus = SPIM_RX_STATUS_REG;
 453:Generated_Source\PSoC5/SPIM.c **** 
 454:Generated_Source\PSoC5/SPIM.c ****     #endif /* (SPIM_RX_SOFTWARE_BUF_ENABLED) */
 455:Generated_Source\PSoC5/SPIM.c **** 
 456:Generated_Source\PSoC5/SPIM.c ****     return(tmpStatus);
 457:Generated_Source\PSoC5/SPIM.c **** }
 304              		.loc 1 457 0
 305 001c 2046     		mov	r0, r4
 306 001e 10BD     		pop	{r4, pc}
 307              	.LVL12:
 308              	.L29:
 309              		.align	2
 310              	.L28:
 311 0020 67650040 		.word	1073767783
 312 0024 00000000 		.word	SPIM_swStatusRx
 313              		.cfi_endproc
 314              	.LFE11:
 315              		.size	SPIM_ReadRxStatus, .-SPIM_ReadRxStatus
 316              		.section	.text.SPIM_WriteTxData,"ax",%progbits
 317              		.align	2
 318              		.global	SPIM_WriteTxData
 319              		.thumb
 320              		.thumb_func
 321              		.type	SPIM_WriteTxData, %function
 322              	SPIM_WriteTxData:
 323              	.LFB12:
 458:Generated_Source\PSoC5/SPIM.c **** 
 459:Generated_Source\PSoC5/SPIM.c **** 
 460:Generated_Source\PSoC5/SPIM.c **** /*******************************************************************************
 461:Generated_Source\PSoC5/SPIM.c **** * Function Name: SPIM_WriteTxData
 462:Generated_Source\PSoC5/SPIM.c **** ********************************************************************************
ARM GAS  C:\Users\PIERRE~1\AppData\Local\Temp\ccqePNI3.s 			page 15


 463:Generated_Source\PSoC5/SPIM.c **** *
 464:Generated_Source\PSoC5/SPIM.c **** * Summary:
 465:Generated_Source\PSoC5/SPIM.c **** *  Write a byte of data to be sent across the SPI.
 466:Generated_Source\PSoC5/SPIM.c **** *
 467:Generated_Source\PSoC5/SPIM.c **** * Parameters:
 468:Generated_Source\PSoC5/SPIM.c **** *  txDataByte: The data value to send across the SPI.
 469:Generated_Source\PSoC5/SPIM.c **** *
 470:Generated_Source\PSoC5/SPIM.c **** * Return:
 471:Generated_Source\PSoC5/SPIM.c **** *  None.
 472:Generated_Source\PSoC5/SPIM.c **** *
 473:Generated_Source\PSoC5/SPIM.c **** * Global variables:
 474:Generated_Source\PSoC5/SPIM.c **** *  SPIM_txBufferWrite - used for the account of the bytes which
 475:Generated_Source\PSoC5/SPIM.c **** *  have been written down in the TX software buffer, modified every function
 476:Generated_Source\PSoC5/SPIM.c **** *  call if TX Software Buffer is used.
 477:Generated_Source\PSoC5/SPIM.c **** *  SPIM_txBufferRead - used for the account of the bytes which
 478:Generated_Source\PSoC5/SPIM.c **** *  have been read from the TX software buffer.
 479:Generated_Source\PSoC5/SPIM.c **** *  SPIM_txBuffer[SPIM_TX_BUFFER_SIZE] - used to store
 480:Generated_Source\PSoC5/SPIM.c **** *  data to sending, modified every function call if TX Software Buffer is used.
 481:Generated_Source\PSoC5/SPIM.c **** *
 482:Generated_Source\PSoC5/SPIM.c **** * Theory:
 483:Generated_Source\PSoC5/SPIM.c **** *  Allows the user to transmit any byte of data in a single transfer.
 484:Generated_Source\PSoC5/SPIM.c **** *
 485:Generated_Source\PSoC5/SPIM.c **** * Side Effects:
 486:Generated_Source\PSoC5/SPIM.c **** *  If this function is called again before the previous byte is finished then
 487:Generated_Source\PSoC5/SPIM.c **** *  the next byte will be appended to the transfer with no time between
 488:Generated_Source\PSoC5/SPIM.c **** *  the byte transfers. Clear Tx status register of the component.
 489:Generated_Source\PSoC5/SPIM.c **** *
 490:Generated_Source\PSoC5/SPIM.c **** * Reentrant:
 491:Generated_Source\PSoC5/SPIM.c **** *  No.
 492:Generated_Source\PSoC5/SPIM.c **** *
 493:Generated_Source\PSoC5/SPIM.c **** *******************************************************************************/
 494:Generated_Source\PSoC5/SPIM.c **** void SPIM_WriteTxData(uint8 txData) 
 495:Generated_Source\PSoC5/SPIM.c **** {
 324              		.loc 1 495 0
 325              		.cfi_startproc
 326              		@ args = 0, pretend = 0, frame = 0
 327              		@ frame_needed = 0, uses_anonymous_args = 0
 328              		@ link register save eliminated.
 329              	.LVL13:
 330              	.L31:
 496:Generated_Source\PSoC5/SPIM.c ****     #if(SPIM_TX_SOFTWARE_BUF_ENABLED)
 497:Generated_Source\PSoC5/SPIM.c **** 
 498:Generated_Source\PSoC5/SPIM.c ****         uint8 tempStatus;
 499:Generated_Source\PSoC5/SPIM.c ****         uint8 tmpTxBufferRead;
 500:Generated_Source\PSoC5/SPIM.c **** 
 501:Generated_Source\PSoC5/SPIM.c ****         /* Block if TX buffer is FULL: don't overwrite */
 502:Generated_Source\PSoC5/SPIM.c ****         do
 503:Generated_Source\PSoC5/SPIM.c ****         {
 504:Generated_Source\PSoC5/SPIM.c ****             tmpTxBufferRead = SPIM_txBufferRead;
 505:Generated_Source\PSoC5/SPIM.c ****             if(0u == tmpTxBufferRead)
 506:Generated_Source\PSoC5/SPIM.c ****             {
 507:Generated_Source\PSoC5/SPIM.c ****                 tmpTxBufferRead = (SPIM_TX_BUFFER_SIZE - 1u);
 508:Generated_Source\PSoC5/SPIM.c ****             }
 509:Generated_Source\PSoC5/SPIM.c ****             else
 510:Generated_Source\PSoC5/SPIM.c ****             {
 511:Generated_Source\PSoC5/SPIM.c ****                 tmpTxBufferRead--;
 512:Generated_Source\PSoC5/SPIM.c ****             }
ARM GAS  C:\Users\PIERRE~1\AppData\Local\Temp\ccqePNI3.s 			page 16


 513:Generated_Source\PSoC5/SPIM.c **** 
 514:Generated_Source\PSoC5/SPIM.c ****         }while(tmpTxBufferRead == SPIM_txBufferWrite);
 515:Generated_Source\PSoC5/SPIM.c **** 
 516:Generated_Source\PSoC5/SPIM.c ****         /* Disable TX interrupt to protect global veriables */
 517:Generated_Source\PSoC5/SPIM.c ****         SPIM_DisableTxInt();
 518:Generated_Source\PSoC5/SPIM.c **** 
 519:Generated_Source\PSoC5/SPIM.c ****         tempStatus = SPIM_GET_STATUS_TX(SPIM_swStatusTx);
 520:Generated_Source\PSoC5/SPIM.c ****         SPIM_swStatusTx = tempStatus;
 521:Generated_Source\PSoC5/SPIM.c **** 
 522:Generated_Source\PSoC5/SPIM.c **** 
 523:Generated_Source\PSoC5/SPIM.c ****         if((SPIM_txBufferRead == SPIM_txBufferWrite) &&
 524:Generated_Source\PSoC5/SPIM.c ****            (0u != (SPIM_swStatusTx & SPIM_STS_TX_FIFO_NOT_FULL)))
 525:Generated_Source\PSoC5/SPIM.c ****         {
 526:Generated_Source\PSoC5/SPIM.c ****             /* Put data element into the TX FIFO */
 527:Generated_Source\PSoC5/SPIM.c ****             CY_SET_REG8(SPIM_TXDATA_PTR, txData);
 528:Generated_Source\PSoC5/SPIM.c ****         }
 529:Generated_Source\PSoC5/SPIM.c ****         else
 530:Generated_Source\PSoC5/SPIM.c ****         {
 531:Generated_Source\PSoC5/SPIM.c ****             /* Add to the TX software buffer */
 532:Generated_Source\PSoC5/SPIM.c ****             SPIM_txBufferWrite++;
 533:Generated_Source\PSoC5/SPIM.c ****             if(SPIM_txBufferWrite >= SPIM_TX_BUFFER_SIZE)
 534:Generated_Source\PSoC5/SPIM.c ****             {
 535:Generated_Source\PSoC5/SPIM.c ****                 SPIM_txBufferWrite = 0u;
 536:Generated_Source\PSoC5/SPIM.c ****             }
 537:Generated_Source\PSoC5/SPIM.c **** 
 538:Generated_Source\PSoC5/SPIM.c ****             if(SPIM_txBufferWrite == SPIM_txBufferRead)
 539:Generated_Source\PSoC5/SPIM.c ****             {
 540:Generated_Source\PSoC5/SPIM.c ****                 SPIM_txBufferRead++;
 541:Generated_Source\PSoC5/SPIM.c ****                 if(SPIM_txBufferRead >= SPIM_TX_BUFFER_SIZE)
 542:Generated_Source\PSoC5/SPIM.c ****                 {
 543:Generated_Source\PSoC5/SPIM.c ****                     SPIM_txBufferRead = 0u;
 544:Generated_Source\PSoC5/SPIM.c ****                 }
 545:Generated_Source\PSoC5/SPIM.c ****                 SPIM_txBufferFull = 1u;
 546:Generated_Source\PSoC5/SPIM.c ****             }
 547:Generated_Source\PSoC5/SPIM.c **** 
 548:Generated_Source\PSoC5/SPIM.c ****             SPIM_txBuffer[SPIM_txBufferWrite] = txData;
 549:Generated_Source\PSoC5/SPIM.c **** 
 550:Generated_Source\PSoC5/SPIM.c ****             SPIM_TX_STATUS_MASK_REG |= SPIM_STS_TX_FIFO_NOT_FULL;
 551:Generated_Source\PSoC5/SPIM.c ****         }
 552:Generated_Source\PSoC5/SPIM.c **** 
 553:Generated_Source\PSoC5/SPIM.c ****         SPIM_EnableTxInt();
 554:Generated_Source\PSoC5/SPIM.c **** 
 555:Generated_Source\PSoC5/SPIM.c ****     #else
 556:Generated_Source\PSoC5/SPIM.c ****         /* Wait until TX FIFO has a place */
 557:Generated_Source\PSoC5/SPIM.c ****         while(0u == (SPIM_TX_STATUS_REG & SPIM_STS_TX_FIFO_NOT_FULL))
 331              		.loc 1 557 0 discriminator 1
 332 0000 034B     		ldr	r3, .L32
 333 0002 1B78     		ldrb	r3, [r3]	@ zero_extendqisi2
 334 0004 13F0040F 		tst	r3, #4
 335 0008 FAD0     		beq	.L31
 558:Generated_Source\PSoC5/SPIM.c ****         {
 559:Generated_Source\PSoC5/SPIM.c ****         }
 560:Generated_Source\PSoC5/SPIM.c **** 
 561:Generated_Source\PSoC5/SPIM.c ****         /* Put data element into the TX FIFO */
 562:Generated_Source\PSoC5/SPIM.c ****         CY_SET_REG8(SPIM_TXDATA_PTR, txData);
 336              		.loc 1 562 0
 337 000a 024B     		ldr	r3, .L32+4
ARM GAS  C:\Users\PIERRE~1\AppData\Local\Temp\ccqePNI3.s 			page 17


 338 000c 1870     		strb	r0, [r3]
 339 000e 7047     		bx	lr
 340              	.L33:
 341              		.align	2
 342              	.L32:
 343 0010 66650040 		.word	1073767782
 344 0014 46640040 		.word	1073767494
 345              		.cfi_endproc
 346              	.LFE12:
 347              		.size	SPIM_WriteTxData, .-SPIM_WriteTxData
 348              		.section	.text.SPIM_ReadRxData,"ax",%progbits
 349              		.align	2
 350              		.global	SPIM_ReadRxData
 351              		.thumb
 352              		.thumb_func
 353              		.type	SPIM_ReadRxData, %function
 354              	SPIM_ReadRxData:
 355              	.LFB13:
 563:Generated_Source\PSoC5/SPIM.c **** 
 564:Generated_Source\PSoC5/SPIM.c ****     #endif /* (SPIM_TX_SOFTWARE_BUF_ENABLED) */
 565:Generated_Source\PSoC5/SPIM.c **** }
 566:Generated_Source\PSoC5/SPIM.c **** 
 567:Generated_Source\PSoC5/SPIM.c **** 
 568:Generated_Source\PSoC5/SPIM.c **** /*******************************************************************************
 569:Generated_Source\PSoC5/SPIM.c **** * Function Name: SPIM_ReadRxData
 570:Generated_Source\PSoC5/SPIM.c **** ********************************************************************************
 571:Generated_Source\PSoC5/SPIM.c **** *
 572:Generated_Source\PSoC5/SPIM.c **** * Summary:
 573:Generated_Source\PSoC5/SPIM.c **** *  Read the next byte of data received across the SPI.
 574:Generated_Source\PSoC5/SPIM.c **** *
 575:Generated_Source\PSoC5/SPIM.c **** * Parameters:
 576:Generated_Source\PSoC5/SPIM.c **** *  None.
 577:Generated_Source\PSoC5/SPIM.c **** *
 578:Generated_Source\PSoC5/SPIM.c **** * Return:
 579:Generated_Source\PSoC5/SPIM.c **** *  The next byte of data read from the FIFO.
 580:Generated_Source\PSoC5/SPIM.c **** *
 581:Generated_Source\PSoC5/SPIM.c **** * Global variables:
 582:Generated_Source\PSoC5/SPIM.c **** *  SPIM_rxBufferWrite - used for the account of the bytes which
 583:Generated_Source\PSoC5/SPIM.c **** *  have been written down in the RX software buffer.
 584:Generated_Source\PSoC5/SPIM.c **** *  SPIM_rxBufferRead - used for the account of the bytes which
 585:Generated_Source\PSoC5/SPIM.c **** *  have been read from the RX software buffer, modified every function
 586:Generated_Source\PSoC5/SPIM.c **** *  call if RX Software Buffer is used.
 587:Generated_Source\PSoC5/SPIM.c **** *  SPIM_rxBuffer[SPIM_RX_BUFFER_SIZE] - used to store
 588:Generated_Source\PSoC5/SPIM.c **** *  received data.
 589:Generated_Source\PSoC5/SPIM.c **** *
 590:Generated_Source\PSoC5/SPIM.c **** * Theory:
 591:Generated_Source\PSoC5/SPIM.c **** *  Allows the user to read a byte of data received.
 592:Generated_Source\PSoC5/SPIM.c **** *
 593:Generated_Source\PSoC5/SPIM.c **** * Side Effects:
 594:Generated_Source\PSoC5/SPIM.c **** *  Will return invalid data if the FIFO is empty. The user should Call
 595:Generated_Source\PSoC5/SPIM.c **** *  GetRxBufferSize() and if it returns a non-zero value then it is safe to call
 596:Generated_Source\PSoC5/SPIM.c **** *  ReadByte() function.
 597:Generated_Source\PSoC5/SPIM.c **** *
 598:Generated_Source\PSoC5/SPIM.c **** * Reentrant:
 599:Generated_Source\PSoC5/SPIM.c **** *  No.
 600:Generated_Source\PSoC5/SPIM.c **** *
 601:Generated_Source\PSoC5/SPIM.c **** *******************************************************************************/
ARM GAS  C:\Users\PIERRE~1\AppData\Local\Temp\ccqePNI3.s 			page 18


 602:Generated_Source\PSoC5/SPIM.c **** uint8 SPIM_ReadRxData(void) 
 603:Generated_Source\PSoC5/SPIM.c **** {
 356              		.loc 1 603 0
 357              		.cfi_startproc
 358              		@ args = 0, pretend = 0, frame = 0
 359              		@ frame_needed = 0, uses_anonymous_args = 0
 360 0000 10B5     		push	{r4, lr}
 361              		.cfi_def_cfa_offset 8
 362              		.cfi_offset 4, -8
 363              		.cfi_offset 14, -4
 604:Generated_Source\PSoC5/SPIM.c ****     uint8 rxData;
 605:Generated_Source\PSoC5/SPIM.c **** 
 606:Generated_Source\PSoC5/SPIM.c ****     #if(SPIM_RX_SOFTWARE_BUF_ENABLED)
 607:Generated_Source\PSoC5/SPIM.c **** 
 608:Generated_Source\PSoC5/SPIM.c ****         /* Disable RX interrupt to protect global veriables */
 609:Generated_Source\PSoC5/SPIM.c ****         SPIM_DisableRxInt();
 364              		.loc 1 609 0
 365 0002 FFF7FEFF 		bl	SPIM_DisableRxInt
 366              	.LVL14:
 610:Generated_Source\PSoC5/SPIM.c **** 
 611:Generated_Source\PSoC5/SPIM.c ****         if(SPIM_rxBufferRead != SPIM_rxBufferWrite)
 367              		.loc 1 611 0
 368 0006 134B     		ldr	r3, .L38
 369 0008 1A78     		ldrb	r2, [r3]	@ zero_extendqisi2
 370 000a D2B2     		uxtb	r2, r2
 371 000c 124B     		ldr	r3, .L38+4
 372 000e 1B78     		ldrb	r3, [r3]	@ zero_extendqisi2
 373 0010 DBB2     		uxtb	r3, r3
 374 0012 9A42     		cmp	r2, r3
 375 0014 14D0     		beq	.L35
 612:Generated_Source\PSoC5/SPIM.c ****         {
 613:Generated_Source\PSoC5/SPIM.c ****             if(0u == SPIM_rxBufferFull)
 376              		.loc 1 613 0
 377 0016 114B     		ldr	r3, .L38+8
 378 0018 1B78     		ldrb	r3, [r3]	@ zero_extendqisi2
 379 001a 13F0FF0F 		tst	r3, #255
 380 001e 0CD1     		bne	.L36
 614:Generated_Source\PSoC5/SPIM.c ****             {
 615:Generated_Source\PSoC5/SPIM.c ****                 SPIM_rxBufferRead++;
 381              		.loc 1 615 0
 382 0020 0C4A     		ldr	r2, .L38
 383 0022 1378     		ldrb	r3, [r2]	@ zero_extendqisi2
 384 0024 0133     		adds	r3, r3, #1
 385 0026 DBB2     		uxtb	r3, r3
 386 0028 1370     		strb	r3, [r2]
 616:Generated_Source\PSoC5/SPIM.c ****                 if(SPIM_rxBufferRead >= SPIM_RX_BUFFER_SIZE)
 387              		.loc 1 616 0
 388 002a 1378     		ldrb	r3, [r2]	@ zero_extendqisi2
 389 002c DBB2     		uxtb	r3, r3
 390 002e 0E2B     		cmp	r3, #14
 391 0030 06D9     		bls	.L35
 617:Generated_Source\PSoC5/SPIM.c ****                 {
 618:Generated_Source\PSoC5/SPIM.c ****                     SPIM_rxBufferRead = 0u;
 392              		.loc 1 618 0
 393 0032 0022     		movs	r2, #0
 394 0034 074B     		ldr	r3, .L38
 395 0036 1A70     		strb	r2, [r3]
ARM GAS  C:\Users\PIERRE~1\AppData\Local\Temp\ccqePNI3.s 			page 19


 396 0038 02E0     		b	.L35
 397              	.L36:
 619:Generated_Source\PSoC5/SPIM.c ****                 }
 620:Generated_Source\PSoC5/SPIM.c ****             }
 621:Generated_Source\PSoC5/SPIM.c ****             else
 622:Generated_Source\PSoC5/SPIM.c ****             {
 623:Generated_Source\PSoC5/SPIM.c ****                 SPIM_rxBufferFull = 0u;
 398              		.loc 1 623 0
 399 003a 0022     		movs	r2, #0
 400 003c 074B     		ldr	r3, .L38+8
 401 003e 1A70     		strb	r2, [r3]
 402              	.L35:
 624:Generated_Source\PSoC5/SPIM.c ****             }
 625:Generated_Source\PSoC5/SPIM.c ****         }
 626:Generated_Source\PSoC5/SPIM.c **** 
 627:Generated_Source\PSoC5/SPIM.c ****         rxData = SPIM_rxBuffer[SPIM_rxBufferRead];
 403              		.loc 1 627 0
 404 0040 044B     		ldr	r3, .L38
 405 0042 1B78     		ldrb	r3, [r3]	@ zero_extendqisi2
 406 0044 DBB2     		uxtb	r3, r3
 407 0046 064A     		ldr	r2, .L38+12
 408 0048 D45C     		ldrb	r4, [r2, r3]	@ zero_extendqisi2
 409 004a E4B2     		uxtb	r4, r4
 410              	.LVL15:
 628:Generated_Source\PSoC5/SPIM.c **** 
 629:Generated_Source\PSoC5/SPIM.c ****         SPIM_EnableRxInt();
 411              		.loc 1 629 0
 412 004c FFF7FEFF 		bl	SPIM_EnableRxInt
 413              	.LVL16:
 630:Generated_Source\PSoC5/SPIM.c **** 
 631:Generated_Source\PSoC5/SPIM.c ****     #else
 632:Generated_Source\PSoC5/SPIM.c **** 
 633:Generated_Source\PSoC5/SPIM.c ****         rxData = CY_GET_REG8(SPIM_RXDATA_PTR);
 634:Generated_Source\PSoC5/SPIM.c **** 
 635:Generated_Source\PSoC5/SPIM.c ****     #endif /* (SPIM_RX_SOFTWARE_BUF_ENABLED) */
 636:Generated_Source\PSoC5/SPIM.c **** 
 637:Generated_Source\PSoC5/SPIM.c ****     return(rxData);
 638:Generated_Source\PSoC5/SPIM.c **** }
 414              		.loc 1 638 0
 415 0050 2046     		mov	r0, r4
 416 0052 10BD     		pop	{r4, pc}
 417              	.LVL17:
 418              	.L39:
 419              		.align	2
 420              	.L38:
 421 0054 00000000 		.word	SPIM_rxBufferRead
 422 0058 00000000 		.word	SPIM_rxBufferWrite
 423 005c 00000000 		.word	SPIM_rxBufferFull
 424 0060 00000000 		.word	SPIM_rxBuffer
 425              		.cfi_endproc
 426              	.LFE13:
 427              		.size	SPIM_ReadRxData, .-SPIM_ReadRxData
 428              		.section	.text.SPIM_GetRxBufferSize,"ax",%progbits
 429              		.align	2
 430              		.global	SPIM_GetRxBufferSize
 431              		.thumb
 432              		.thumb_func
ARM GAS  C:\Users\PIERRE~1\AppData\Local\Temp\ccqePNI3.s 			page 20


 433              		.type	SPIM_GetRxBufferSize, %function
 434              	SPIM_GetRxBufferSize:
 435              	.LFB14:
 639:Generated_Source\PSoC5/SPIM.c **** 
 640:Generated_Source\PSoC5/SPIM.c **** 
 641:Generated_Source\PSoC5/SPIM.c **** /*******************************************************************************
 642:Generated_Source\PSoC5/SPIM.c **** * Function Name: SPIM_GetRxBufferSize
 643:Generated_Source\PSoC5/SPIM.c **** ********************************************************************************
 644:Generated_Source\PSoC5/SPIM.c **** *
 645:Generated_Source\PSoC5/SPIM.c **** * Summary:
 646:Generated_Source\PSoC5/SPIM.c **** *  Returns the number of bytes/words of data currently held in the RX buffer.
 647:Generated_Source\PSoC5/SPIM.c **** *  If RX Software Buffer not used then function return 0 if FIFO empty or 1 if
 648:Generated_Source\PSoC5/SPIM.c **** *  FIFO not empty. In another case function return size of RX Software Buffer.
 649:Generated_Source\PSoC5/SPIM.c **** *
 650:Generated_Source\PSoC5/SPIM.c **** * Parameters:
 651:Generated_Source\PSoC5/SPIM.c **** *  None.
 652:Generated_Source\PSoC5/SPIM.c **** *
 653:Generated_Source\PSoC5/SPIM.c **** * Return:
 654:Generated_Source\PSoC5/SPIM.c **** *  Integer count of the number of bytes/words in the RX buffer.
 655:Generated_Source\PSoC5/SPIM.c **** *
 656:Generated_Source\PSoC5/SPIM.c **** * Global variables:
 657:Generated_Source\PSoC5/SPIM.c **** *  SPIM_rxBufferWrite - used for the account of the bytes which
 658:Generated_Source\PSoC5/SPIM.c **** *  have been written down in the RX software buffer.
 659:Generated_Source\PSoC5/SPIM.c **** *  SPIM_rxBufferRead - used for the account of the bytes which
 660:Generated_Source\PSoC5/SPIM.c **** *  have been read from the RX software buffer.
 661:Generated_Source\PSoC5/SPIM.c **** *
 662:Generated_Source\PSoC5/SPIM.c **** * Side Effects:
 663:Generated_Source\PSoC5/SPIM.c **** *  Clear status register of the component.
 664:Generated_Source\PSoC5/SPIM.c **** *
 665:Generated_Source\PSoC5/SPIM.c **** *******************************************************************************/
 666:Generated_Source\PSoC5/SPIM.c **** uint8 SPIM_GetRxBufferSize(void) 
 667:Generated_Source\PSoC5/SPIM.c **** {
 436              		.loc 1 667 0
 437              		.cfi_startproc
 438              		@ args = 0, pretend = 0, frame = 0
 439              		@ frame_needed = 0, uses_anonymous_args = 0
 440 0000 10B5     		push	{r4, lr}
 441              		.cfi_def_cfa_offset 8
 442              		.cfi_offset 4, -8
 443              		.cfi_offset 14, -4
 668:Generated_Source\PSoC5/SPIM.c ****     uint8 size;
 669:Generated_Source\PSoC5/SPIM.c **** 
 670:Generated_Source\PSoC5/SPIM.c ****     #if(SPIM_RX_SOFTWARE_BUF_ENABLED)
 671:Generated_Source\PSoC5/SPIM.c **** 
 672:Generated_Source\PSoC5/SPIM.c ****         /* Disable RX interrupt to protect global veriables */
 673:Generated_Source\PSoC5/SPIM.c ****         SPIM_DisableRxInt();
 444              		.loc 1 673 0
 445 0002 FFF7FEFF 		bl	SPIM_DisableRxInt
 446              	.LVL18:
 674:Generated_Source\PSoC5/SPIM.c **** 
 675:Generated_Source\PSoC5/SPIM.c ****         if(SPIM_rxBufferRead == SPIM_rxBufferWrite)
 447              		.loc 1 675 0
 448 0006 124B     		ldr	r3, .L45
 449 0008 1A78     		ldrb	r2, [r3]	@ zero_extendqisi2
 450 000a D2B2     		uxtb	r2, r2
 451 000c 114B     		ldr	r3, .L45+4
 452 000e 1B78     		ldrb	r3, [r3]	@ zero_extendqisi2
ARM GAS  C:\Users\PIERRE~1\AppData\Local\Temp\ccqePNI3.s 			page 21


 453 0010 DBB2     		uxtb	r3, r3
 454 0012 9A42     		cmp	r2, r3
 455 0014 16D0     		beq	.L43
 676:Generated_Source\PSoC5/SPIM.c ****         {
 677:Generated_Source\PSoC5/SPIM.c ****             size = 0u;
 678:Generated_Source\PSoC5/SPIM.c ****         }
 679:Generated_Source\PSoC5/SPIM.c ****         else if(SPIM_rxBufferRead < SPIM_rxBufferWrite)
 456              		.loc 1 679 0
 457 0016 0E4B     		ldr	r3, .L45
 458 0018 1A78     		ldrb	r2, [r3]	@ zero_extendqisi2
 459 001a D2B2     		uxtb	r2, r2
 460 001c 0D4B     		ldr	r3, .L45+4
 461 001e 1B78     		ldrb	r3, [r3]	@ zero_extendqisi2
 462 0020 DBB2     		uxtb	r3, r3
 463 0022 9A42     		cmp	r2, r3
 464 0024 06D2     		bcs	.L42
 680:Generated_Source\PSoC5/SPIM.c ****         {
 681:Generated_Source\PSoC5/SPIM.c ****             size = (SPIM_rxBufferWrite - SPIM_rxBufferRead);
 465              		.loc 1 681 0
 466 0026 0B4B     		ldr	r3, .L45+4
 467 0028 1B78     		ldrb	r3, [r3]	@ zero_extendqisi2
 468 002a 094A     		ldr	r2, .L45
 469 002c 1478     		ldrb	r4, [r2]	@ zero_extendqisi2
 470 002e 1C1B     		subs	r4, r3, r4
 471 0030 E4B2     		uxtb	r4, r4
 472              	.LVL19:
 473 0032 08E0     		b	.L41
 474              	.LVL20:
 475              	.L42:
 682:Generated_Source\PSoC5/SPIM.c ****         }
 683:Generated_Source\PSoC5/SPIM.c ****         else
 684:Generated_Source\PSoC5/SPIM.c ****         {
 685:Generated_Source\PSoC5/SPIM.c ****             size = (SPIM_RX_BUFFER_SIZE - SPIM_rxBufferRead) + SPIM_rxBufferWrite;
 476              		.loc 1 685 0
 477 0034 074B     		ldr	r3, .L45+4
 478 0036 1B78     		ldrb	r3, [r3]	@ zero_extendqisi2
 479 0038 054A     		ldr	r2, .L45
 480 003a 1478     		ldrb	r4, [r2]	@ zero_extendqisi2
 481 003c 1C1B     		subs	r4, r3, r4
 482 003e 0F34     		adds	r4, r4, #15
 483 0040 E4B2     		uxtb	r4, r4
 484              	.LVL21:
 485 0042 00E0     		b	.L41
 486              	.LVL22:
 487              	.L43:
 677:Generated_Source\PSoC5/SPIM.c ****         }
 488              		.loc 1 677 0
 489 0044 0024     		movs	r4, #0
 490              	.L41:
 491              	.LVL23:
 686:Generated_Source\PSoC5/SPIM.c ****         }
 687:Generated_Source\PSoC5/SPIM.c **** 
 688:Generated_Source\PSoC5/SPIM.c ****         SPIM_EnableRxInt();
 492              		.loc 1 688 0
 493 0046 FFF7FEFF 		bl	SPIM_EnableRxInt
 494              	.LVL24:
 689:Generated_Source\PSoC5/SPIM.c **** 
ARM GAS  C:\Users\PIERRE~1\AppData\Local\Temp\ccqePNI3.s 			page 22


 690:Generated_Source\PSoC5/SPIM.c ****     #else
 691:Generated_Source\PSoC5/SPIM.c **** 
 692:Generated_Source\PSoC5/SPIM.c ****         /* We can only know if there is data in the RX FIFO */
 693:Generated_Source\PSoC5/SPIM.c ****         size = (0u != (SPIM_RX_STATUS_REG & SPIM_STS_RX_FIFO_NOT_EMPTY)) ? 1u : 0u;
 694:Generated_Source\PSoC5/SPIM.c **** 
 695:Generated_Source\PSoC5/SPIM.c ****     #endif /* (SPIM_TX_SOFTWARE_BUF_ENABLED) */
 696:Generated_Source\PSoC5/SPIM.c **** 
 697:Generated_Source\PSoC5/SPIM.c ****     return(size);
 698:Generated_Source\PSoC5/SPIM.c **** }
 495              		.loc 1 698 0
 496 004a 2046     		mov	r0, r4
 497 004c 10BD     		pop	{r4, pc}
 498              	.LVL25:
 499              	.L46:
 500 004e 00BF     		.align	2
 501              	.L45:
 502 0050 00000000 		.word	SPIM_rxBufferRead
 503 0054 00000000 		.word	SPIM_rxBufferWrite
 504              		.cfi_endproc
 505              	.LFE14:
 506              		.size	SPIM_GetRxBufferSize, .-SPIM_GetRxBufferSize
 507              		.section	.text.SPIM_GetTxBufferSize,"ax",%progbits
 508              		.align	2
 509              		.global	SPIM_GetTxBufferSize
 510              		.thumb
 511              		.thumb_func
 512              		.type	SPIM_GetTxBufferSize, %function
 513              	SPIM_GetTxBufferSize:
 514              	.LFB15:
 699:Generated_Source\PSoC5/SPIM.c **** 
 700:Generated_Source\PSoC5/SPIM.c **** 
 701:Generated_Source\PSoC5/SPIM.c **** /*******************************************************************************
 702:Generated_Source\PSoC5/SPIM.c **** * Function Name: SPIM_GetTxBufferSize
 703:Generated_Source\PSoC5/SPIM.c **** ********************************************************************************
 704:Generated_Source\PSoC5/SPIM.c **** *
 705:Generated_Source\PSoC5/SPIM.c **** * Summary:
 706:Generated_Source\PSoC5/SPIM.c **** *  Returns the number of bytes/words of data currently held in the TX buffer.
 707:Generated_Source\PSoC5/SPIM.c **** *  If TX Software Buffer not used then function return 0 - if FIFO empty, 1 - if
 708:Generated_Source\PSoC5/SPIM.c **** *  FIFO not full, 4 - if FIFO full. In another case function return size of TX
 709:Generated_Source\PSoC5/SPIM.c **** *  Software Buffer.
 710:Generated_Source\PSoC5/SPIM.c **** *
 711:Generated_Source\PSoC5/SPIM.c **** * Parameters:
 712:Generated_Source\PSoC5/SPIM.c **** *  None.
 713:Generated_Source\PSoC5/SPIM.c **** *
 714:Generated_Source\PSoC5/SPIM.c **** * Return:
 715:Generated_Source\PSoC5/SPIM.c **** *  Integer count of the number of bytes/words in the TX buffer.
 716:Generated_Source\PSoC5/SPIM.c **** *
 717:Generated_Source\PSoC5/SPIM.c **** * Global variables:
 718:Generated_Source\PSoC5/SPIM.c **** *  SPIM_txBufferWrite - used for the account of the bytes which
 719:Generated_Source\PSoC5/SPIM.c **** *  have been written down in the TX software buffer.
 720:Generated_Source\PSoC5/SPIM.c **** *  SPIM_txBufferRead - used for the account of the bytes which
 721:Generated_Source\PSoC5/SPIM.c **** *  have been read from the TX software buffer.
 722:Generated_Source\PSoC5/SPIM.c **** *
 723:Generated_Source\PSoC5/SPIM.c **** * Side Effects:
 724:Generated_Source\PSoC5/SPIM.c **** *  Clear status register of the component.
 725:Generated_Source\PSoC5/SPIM.c **** *
 726:Generated_Source\PSoC5/SPIM.c **** *******************************************************************************/
ARM GAS  C:\Users\PIERRE~1\AppData\Local\Temp\ccqePNI3.s 			page 23


 727:Generated_Source\PSoC5/SPIM.c **** uint8  SPIM_GetTxBufferSize(void) 
 728:Generated_Source\PSoC5/SPIM.c **** {
 515              		.loc 1 728 0
 516              		.cfi_startproc
 517              		@ args = 0, pretend = 0, frame = 0
 518              		@ frame_needed = 0, uses_anonymous_args = 0
 519              		@ link register save eliminated.
 729:Generated_Source\PSoC5/SPIM.c ****     uint8 size;
 730:Generated_Source\PSoC5/SPIM.c **** 
 731:Generated_Source\PSoC5/SPIM.c ****     #if(SPIM_TX_SOFTWARE_BUF_ENABLED)
 732:Generated_Source\PSoC5/SPIM.c ****         /* Disable TX interrupt to protect global veriables */
 733:Generated_Source\PSoC5/SPIM.c ****         SPIM_DisableTxInt();
 734:Generated_Source\PSoC5/SPIM.c **** 
 735:Generated_Source\PSoC5/SPIM.c ****         if(SPIM_txBufferRead == SPIM_txBufferWrite)
 736:Generated_Source\PSoC5/SPIM.c ****         {
 737:Generated_Source\PSoC5/SPIM.c ****             size = 0u;
 738:Generated_Source\PSoC5/SPIM.c ****         }
 739:Generated_Source\PSoC5/SPIM.c ****         else if(SPIM_txBufferRead < SPIM_txBufferWrite)
 740:Generated_Source\PSoC5/SPIM.c ****         {
 741:Generated_Source\PSoC5/SPIM.c ****             size = (SPIM_txBufferWrite - SPIM_txBufferRead);
 742:Generated_Source\PSoC5/SPIM.c ****         }
 743:Generated_Source\PSoC5/SPIM.c ****         else
 744:Generated_Source\PSoC5/SPIM.c ****         {
 745:Generated_Source\PSoC5/SPIM.c ****             size = (SPIM_TX_BUFFER_SIZE - SPIM_txBufferRead) + SPIM_txBufferWrite;
 746:Generated_Source\PSoC5/SPIM.c ****         }
 747:Generated_Source\PSoC5/SPIM.c **** 
 748:Generated_Source\PSoC5/SPIM.c ****         SPIM_EnableTxInt();
 749:Generated_Source\PSoC5/SPIM.c **** 
 750:Generated_Source\PSoC5/SPIM.c ****     #else
 751:Generated_Source\PSoC5/SPIM.c **** 
 752:Generated_Source\PSoC5/SPIM.c ****         size = SPIM_TX_STATUS_REG;
 520              		.loc 1 752 0
 521 0000 074B     		ldr	r3, .L51
 522 0002 1B78     		ldrb	r3, [r3]	@ zero_extendqisi2
 523 0004 DBB2     		uxtb	r3, r3
 524              	.LVL26:
 753:Generated_Source\PSoC5/SPIM.c **** 
 754:Generated_Source\PSoC5/SPIM.c ****         if(0u != (size & SPIM_STS_TX_FIFO_EMPTY))
 525              		.loc 1 754 0
 526 0006 13F0020F 		tst	r3, #2
 527 000a 04D1     		bne	.L49
 755:Generated_Source\PSoC5/SPIM.c ****         {
 756:Generated_Source\PSoC5/SPIM.c ****             size = 0u;
 757:Generated_Source\PSoC5/SPIM.c ****         }
 758:Generated_Source\PSoC5/SPIM.c ****         else if(0u != (size & SPIM_STS_TX_FIFO_NOT_FULL))
 528              		.loc 1 758 0
 529 000c 13F0040F 		tst	r3, #4
 530 0010 03D0     		beq	.L50
 759:Generated_Source\PSoC5/SPIM.c ****         {
 760:Generated_Source\PSoC5/SPIM.c ****             size = 1u;
 531              		.loc 1 760 0
 532 0012 0120     		movs	r0, #1
 533 0014 7047     		bx	lr
 534              	.L49:
 756:Generated_Source\PSoC5/SPIM.c ****         }
 535              		.loc 1 756 0
 536 0016 0020     		movs	r0, #0
ARM GAS  C:\Users\PIERRE~1\AppData\Local\Temp\ccqePNI3.s 			page 24


 537 0018 7047     		bx	lr
 538              	.L50:
 761:Generated_Source\PSoC5/SPIM.c ****         }
 762:Generated_Source\PSoC5/SPIM.c ****         else
 763:Generated_Source\PSoC5/SPIM.c ****         {
 764:Generated_Source\PSoC5/SPIM.c ****             size = SPIM_FIFO_SIZE;
 539              		.loc 1 764 0
 540 001a 0420     		movs	r0, #4
 541              	.LVL27:
 765:Generated_Source\PSoC5/SPIM.c ****         }
 766:Generated_Source\PSoC5/SPIM.c **** 
 767:Generated_Source\PSoC5/SPIM.c ****     #endif /* (SPIM_TX_SOFTWARE_BUF_ENABLED) */
 768:Generated_Source\PSoC5/SPIM.c **** 
 769:Generated_Source\PSoC5/SPIM.c ****     return(size);
 770:Generated_Source\PSoC5/SPIM.c **** }
 542              		.loc 1 770 0
 543 001c 7047     		bx	lr
 544              	.L52:
 545 001e 00BF     		.align	2
 546              	.L51:
 547 0020 66650040 		.word	1073767782
 548              		.cfi_endproc
 549              	.LFE15:
 550              		.size	SPIM_GetTxBufferSize, .-SPIM_GetTxBufferSize
 551              		.section	.text.SPIM_ClearRxBuffer,"ax",%progbits
 552              		.align	2
 553              		.global	SPIM_ClearRxBuffer
 554              		.thumb
 555              		.thumb_func
 556              		.type	SPIM_ClearRxBuffer, %function
 557              	SPIM_ClearRxBuffer:
 558              	.LFB16:
 771:Generated_Source\PSoC5/SPIM.c **** 
 772:Generated_Source\PSoC5/SPIM.c **** 
 773:Generated_Source\PSoC5/SPIM.c **** /*******************************************************************************
 774:Generated_Source\PSoC5/SPIM.c **** * Function Name: SPIM_ClearRxBuffer
 775:Generated_Source\PSoC5/SPIM.c **** ********************************************************************************
 776:Generated_Source\PSoC5/SPIM.c **** *
 777:Generated_Source\PSoC5/SPIM.c **** * Summary:
 778:Generated_Source\PSoC5/SPIM.c **** *  Clear the RX RAM buffer by setting the read and write pointers both to zero.
 779:Generated_Source\PSoC5/SPIM.c **** *
 780:Generated_Source\PSoC5/SPIM.c **** * Parameters:
 781:Generated_Source\PSoC5/SPIM.c **** *  None.
 782:Generated_Source\PSoC5/SPIM.c **** *
 783:Generated_Source\PSoC5/SPIM.c **** * Return:
 784:Generated_Source\PSoC5/SPIM.c **** *  None.
 785:Generated_Source\PSoC5/SPIM.c **** *
 786:Generated_Source\PSoC5/SPIM.c **** * Global variables:
 787:Generated_Source\PSoC5/SPIM.c **** *  SPIM_rxBufferWrite - used for the account of the bytes which
 788:Generated_Source\PSoC5/SPIM.c **** *  have been written down in the RX software buffer, modified every function
 789:Generated_Source\PSoC5/SPIM.c **** *  call - resets to zero.
 790:Generated_Source\PSoC5/SPIM.c **** *  SPIM_rxBufferRead - used for the account of the bytes which
 791:Generated_Source\PSoC5/SPIM.c **** *  have been read from the RX software buffer, modified every function call -
 792:Generated_Source\PSoC5/SPIM.c **** *  resets to zero.
 793:Generated_Source\PSoC5/SPIM.c **** *
 794:Generated_Source\PSoC5/SPIM.c **** * Theory:
 795:Generated_Source\PSoC5/SPIM.c **** *  Setting the pointers to zero makes the system believe there is no data to
ARM GAS  C:\Users\PIERRE~1\AppData\Local\Temp\ccqePNI3.s 			page 25


 796:Generated_Source\PSoC5/SPIM.c **** *  read and writing will resume at address 0 overwriting any data that may have
 797:Generated_Source\PSoC5/SPIM.c **** *  remained in the RAM.
 798:Generated_Source\PSoC5/SPIM.c **** *
 799:Generated_Source\PSoC5/SPIM.c **** * Side Effects:
 800:Generated_Source\PSoC5/SPIM.c **** *  Any received data not read from the RAM buffer will be lost when overwritten.
 801:Generated_Source\PSoC5/SPIM.c **** *
 802:Generated_Source\PSoC5/SPIM.c **** * Reentrant:
 803:Generated_Source\PSoC5/SPIM.c **** *  No.
 804:Generated_Source\PSoC5/SPIM.c **** *
 805:Generated_Source\PSoC5/SPIM.c **** *******************************************************************************/
 806:Generated_Source\PSoC5/SPIM.c **** void SPIM_ClearRxBuffer(void) 
 807:Generated_Source\PSoC5/SPIM.c **** {
 559              		.loc 1 807 0
 560              		.cfi_startproc
 561              		@ args = 0, pretend = 0, frame = 0
 562              		@ frame_needed = 0, uses_anonymous_args = 0
 563 0000 08B5     		push	{r3, lr}
 564              		.cfi_def_cfa_offset 8
 565              		.cfi_offset 3, -8
 566              		.cfi_offset 14, -4
 808:Generated_Source\PSoC5/SPIM.c ****     /* Clear Hardware RX FIFO */
 809:Generated_Source\PSoC5/SPIM.c ****     while(0u !=(SPIM_RX_STATUS_REG & SPIM_STS_RX_FIFO_NOT_EMPTY))
 567              		.loc 1 809 0
 568 0002 01E0     		b	.L54
 569              	.L55:
 810:Generated_Source\PSoC5/SPIM.c ****     {
 811:Generated_Source\PSoC5/SPIM.c ****         (void) CY_GET_REG8(SPIM_RXDATA_PTR);
 570              		.loc 1 811 0
 571 0004 094B     		ldr	r3, .L57
 572 0006 1B78     		ldrb	r3, [r3]	@ zero_extendqisi2
 573              	.L54:
 809:Generated_Source\PSoC5/SPIM.c ****     {
 574              		.loc 1 809 0
 575 0008 094B     		ldr	r3, .L57+4
 576 000a 1B78     		ldrb	r3, [r3]	@ zero_extendqisi2
 577 000c 13F0200F 		tst	r3, #32
 578 0010 F8D1     		bne	.L55
 812:Generated_Source\PSoC5/SPIM.c ****     }
 813:Generated_Source\PSoC5/SPIM.c **** 
 814:Generated_Source\PSoC5/SPIM.c ****     #if(SPIM_RX_SOFTWARE_BUF_ENABLED)
 815:Generated_Source\PSoC5/SPIM.c ****         /* Disable RX interrupt to protect global veriables */
 816:Generated_Source\PSoC5/SPIM.c ****         SPIM_DisableRxInt();
 579              		.loc 1 816 0
 580 0012 FFF7FEFF 		bl	SPIM_DisableRxInt
 581              	.LVL28:
 817:Generated_Source\PSoC5/SPIM.c **** 
 818:Generated_Source\PSoC5/SPIM.c ****         SPIM_rxBufferFull  = 0u;
 582              		.loc 1 818 0
 583 0016 0023     		movs	r3, #0
 584 0018 064A     		ldr	r2, .L57+8
 585 001a 1370     		strb	r3, [r2]
 819:Generated_Source\PSoC5/SPIM.c ****         SPIM_rxBufferRead  = 0u;
 586              		.loc 1 819 0
 587 001c 064A     		ldr	r2, .L57+12
 588 001e 1370     		strb	r3, [r2]
 820:Generated_Source\PSoC5/SPIM.c ****         SPIM_rxBufferWrite = 0u;
 589              		.loc 1 820 0
ARM GAS  C:\Users\PIERRE~1\AppData\Local\Temp\ccqePNI3.s 			page 26


 590 0020 064A     		ldr	r2, .L57+16
 591 0022 1370     		strb	r3, [r2]
 821:Generated_Source\PSoC5/SPIM.c **** 
 822:Generated_Source\PSoC5/SPIM.c ****         SPIM_EnableRxInt();
 592              		.loc 1 822 0
 593 0024 FFF7FEFF 		bl	SPIM_EnableRxInt
 594              	.LVL29:
 595 0028 08BD     		pop	{r3, pc}
 596              	.L58:
 597 002a 00BF     		.align	2
 598              	.L57:
 599 002c 56640040 		.word	1073767510
 600 0030 67650040 		.word	1073767783
 601 0034 00000000 		.word	SPIM_rxBufferFull
 602 0038 00000000 		.word	SPIM_rxBufferRead
 603 003c 00000000 		.word	SPIM_rxBufferWrite
 604              		.cfi_endproc
 605              	.LFE16:
 606              		.size	SPIM_ClearRxBuffer, .-SPIM_ClearRxBuffer
 607              		.section	.text.SPIM_ClearTxBuffer,"ax",%progbits
 608              		.align	2
 609              		.global	SPIM_ClearTxBuffer
 610              		.thumb
 611              		.thumb_func
 612              		.type	SPIM_ClearTxBuffer, %function
 613              	SPIM_ClearTxBuffer:
 614              	.LFB17:
 823:Generated_Source\PSoC5/SPIM.c ****     #endif /* (SPIM_RX_SOFTWARE_BUF_ENABLED) */
 824:Generated_Source\PSoC5/SPIM.c **** }
 825:Generated_Source\PSoC5/SPIM.c **** 
 826:Generated_Source\PSoC5/SPIM.c **** 
 827:Generated_Source\PSoC5/SPIM.c **** /*******************************************************************************
 828:Generated_Source\PSoC5/SPIM.c **** * Function Name: SPIM_ClearTxBuffer
 829:Generated_Source\PSoC5/SPIM.c **** ********************************************************************************
 830:Generated_Source\PSoC5/SPIM.c **** *
 831:Generated_Source\PSoC5/SPIM.c **** * Summary:
 832:Generated_Source\PSoC5/SPIM.c **** *  Clear the TX RAM buffer by setting the read and write pointers both to zero.
 833:Generated_Source\PSoC5/SPIM.c **** *
 834:Generated_Source\PSoC5/SPIM.c **** * Parameters:
 835:Generated_Source\PSoC5/SPIM.c **** *  None.
 836:Generated_Source\PSoC5/SPIM.c **** *
 837:Generated_Source\PSoC5/SPIM.c **** * Return:
 838:Generated_Source\PSoC5/SPIM.c **** *  None.
 839:Generated_Source\PSoC5/SPIM.c **** *
 840:Generated_Source\PSoC5/SPIM.c **** * Global variables:
 841:Generated_Source\PSoC5/SPIM.c **** *  SPIM_txBufferWrite - used for the account of the bytes which
 842:Generated_Source\PSoC5/SPIM.c **** *  have been written down in the TX software buffer, modified every function
 843:Generated_Source\PSoC5/SPIM.c **** *  call - resets to zero.
 844:Generated_Source\PSoC5/SPIM.c **** *  SPIM_txBufferRead - used for the account of the bytes which
 845:Generated_Source\PSoC5/SPIM.c **** *  have been read from the TX software buffer, modified every function call -
 846:Generated_Source\PSoC5/SPIM.c **** *  resets to zero.
 847:Generated_Source\PSoC5/SPIM.c **** *
 848:Generated_Source\PSoC5/SPIM.c **** * Theory:
 849:Generated_Source\PSoC5/SPIM.c **** *  Setting the pointers to zero makes the system believe there is no data to
 850:Generated_Source\PSoC5/SPIM.c **** *  read and writing will resume at address 0 overwriting any data that may have
 851:Generated_Source\PSoC5/SPIM.c **** *  remained in the RAM.
 852:Generated_Source\PSoC5/SPIM.c **** *
ARM GAS  C:\Users\PIERRE~1\AppData\Local\Temp\ccqePNI3.s 			page 27


 853:Generated_Source\PSoC5/SPIM.c **** * Side Effects:
 854:Generated_Source\PSoC5/SPIM.c **** *  Any data not yet transmitted from the RAM buffer will be lost when
 855:Generated_Source\PSoC5/SPIM.c **** *  overwritten.
 856:Generated_Source\PSoC5/SPIM.c **** *
 857:Generated_Source\PSoC5/SPIM.c **** * Reentrant:
 858:Generated_Source\PSoC5/SPIM.c **** *  No.
 859:Generated_Source\PSoC5/SPIM.c **** *
 860:Generated_Source\PSoC5/SPIM.c **** *******************************************************************************/
 861:Generated_Source\PSoC5/SPIM.c **** void SPIM_ClearTxBuffer(void) 
 862:Generated_Source\PSoC5/SPIM.c **** {
 615              		.loc 1 862 0
 616              		.cfi_startproc
 617              		@ args = 0, pretend = 0, frame = 0
 618              		@ frame_needed = 0, uses_anonymous_args = 0
 619 0000 08B5     		push	{r3, lr}
 620              		.cfi_def_cfa_offset 8
 621              		.cfi_offset 3, -8
 622              		.cfi_offset 14, -4
 863:Generated_Source\PSoC5/SPIM.c ****     uint8 enableInterrupts;
 864:Generated_Source\PSoC5/SPIM.c **** 
 865:Generated_Source\PSoC5/SPIM.c ****     enableInterrupts = CyEnterCriticalSection();
 623              		.loc 1 865 0
 624 0002 FFF7FEFF 		bl	CyEnterCriticalSection
 625              	.LVL30:
 866:Generated_Source\PSoC5/SPIM.c ****     /* Clear TX FIFO */
 867:Generated_Source\PSoC5/SPIM.c ****     SPIM_AUX_CONTROL_DP0_REG |= ((uint8)  SPIM_TX_FIFO_CLR);
 626              		.loc 1 867 0
 627 0006 064B     		ldr	r3, .L61
 628 0008 1A78     		ldrb	r2, [r3]	@ zero_extendqisi2
 629 000a 42F00102 		orr	r2, r2, #1
 630 000e 1A70     		strb	r2, [r3]
 868:Generated_Source\PSoC5/SPIM.c ****     SPIM_AUX_CONTROL_DP0_REG &= ((uint8) ~SPIM_TX_FIFO_CLR);
 631              		.loc 1 868 0
 632 0010 1A78     		ldrb	r2, [r3]	@ zero_extendqisi2
 633 0012 02F0FE02 		and	r2, r2, #254
 634 0016 1A70     		strb	r2, [r3]
 869:Generated_Source\PSoC5/SPIM.c **** 
 870:Generated_Source\PSoC5/SPIM.c ****     #if(SPIM_USE_SECOND_DATAPATH)
 871:Generated_Source\PSoC5/SPIM.c ****         /* Clear TX FIFO for 2nd Datapath */
 872:Generated_Source\PSoC5/SPIM.c ****         SPIM_AUX_CONTROL_DP1_REG |= ((uint8)  SPIM_TX_FIFO_CLR);
 873:Generated_Source\PSoC5/SPIM.c ****         SPIM_AUX_CONTROL_DP1_REG &= ((uint8) ~SPIM_TX_FIFO_CLR);
 874:Generated_Source\PSoC5/SPIM.c ****     #endif /* (SPIM_USE_SECOND_DATAPATH) */
 875:Generated_Source\PSoC5/SPIM.c ****     CyExitCriticalSection(enableInterrupts);
 635              		.loc 1 875 0
 636 0018 FFF7FEFF 		bl	CyExitCriticalSection
 637              	.LVL31:
 638 001c 08BD     		pop	{r3, pc}
 639              	.L62:
 640 001e 00BF     		.align	2
 641              	.L61:
 642 0020 96640040 		.word	1073767574
 643              		.cfi_endproc
 644              	.LFE17:
 645              		.size	SPIM_ClearTxBuffer, .-SPIM_ClearTxBuffer
 646              		.section	.text.SPIM_PutArray,"ax",%progbits
 647              		.align	2
 648              		.global	SPIM_PutArray
ARM GAS  C:\Users\PIERRE~1\AppData\Local\Temp\ccqePNI3.s 			page 28


 649              		.thumb
 650              		.thumb_func
 651              		.type	SPIM_PutArray, %function
 652              	SPIM_PutArray:
 653              	.LFB18:
 876:Generated_Source\PSoC5/SPIM.c **** 
 877:Generated_Source\PSoC5/SPIM.c ****     #if(SPIM_TX_SOFTWARE_BUF_ENABLED)
 878:Generated_Source\PSoC5/SPIM.c ****         /* Disable TX interrupt to protect global veriables */
 879:Generated_Source\PSoC5/SPIM.c ****         SPIM_DisableTxInt();
 880:Generated_Source\PSoC5/SPIM.c **** 
 881:Generated_Source\PSoC5/SPIM.c ****         SPIM_txBufferFull  = 0u;
 882:Generated_Source\PSoC5/SPIM.c ****         SPIM_txBufferRead  = 0u;
 883:Generated_Source\PSoC5/SPIM.c ****         SPIM_txBufferWrite = 0u;
 884:Generated_Source\PSoC5/SPIM.c **** 
 885:Generated_Source\PSoC5/SPIM.c ****         /* Buffer is EMPTY: disable TX FIFO NOT FULL interrupt */
 886:Generated_Source\PSoC5/SPIM.c ****         SPIM_TX_STATUS_MASK_REG &= ((uint8) ~SPIM_STS_TX_FIFO_NOT_FULL);
 887:Generated_Source\PSoC5/SPIM.c **** 
 888:Generated_Source\PSoC5/SPIM.c ****         SPIM_EnableTxInt();
 889:Generated_Source\PSoC5/SPIM.c ****     #endif /* (SPIM_TX_SOFTWARE_BUF_ENABLED) */
 890:Generated_Source\PSoC5/SPIM.c **** }
 891:Generated_Source\PSoC5/SPIM.c **** 
 892:Generated_Source\PSoC5/SPIM.c **** 
 893:Generated_Source\PSoC5/SPIM.c **** #if(0u != SPIM_BIDIRECTIONAL_MODE)
 894:Generated_Source\PSoC5/SPIM.c ****     /*******************************************************************************
 895:Generated_Source\PSoC5/SPIM.c ****     * Function Name: SPIM_TxEnable
 896:Generated_Source\PSoC5/SPIM.c ****     ********************************************************************************
 897:Generated_Source\PSoC5/SPIM.c ****     *
 898:Generated_Source\PSoC5/SPIM.c ****     * Summary:
 899:Generated_Source\PSoC5/SPIM.c ****     *  If the SPI master is configured to use a single bi-directional pin then this
 900:Generated_Source\PSoC5/SPIM.c ****     *  will set the bi-directional pin to transmit.
 901:Generated_Source\PSoC5/SPIM.c ****     *
 902:Generated_Source\PSoC5/SPIM.c ****     * Parameters:
 903:Generated_Source\PSoC5/SPIM.c ****     *  None.
 904:Generated_Source\PSoC5/SPIM.c ****     *
 905:Generated_Source\PSoC5/SPIM.c ****     * Return:
 906:Generated_Source\PSoC5/SPIM.c ****     *  None.
 907:Generated_Source\PSoC5/SPIM.c ****     *
 908:Generated_Source\PSoC5/SPIM.c ****     *******************************************************************************/
 909:Generated_Source\PSoC5/SPIM.c ****     void SPIM_TxEnable(void) 
 910:Generated_Source\PSoC5/SPIM.c ****     {
 911:Generated_Source\PSoC5/SPIM.c ****         SPIM_CONTROL_REG |= SPIM_CTRL_TX_SIGNAL_EN;
 912:Generated_Source\PSoC5/SPIM.c ****     }
 913:Generated_Source\PSoC5/SPIM.c **** 
 914:Generated_Source\PSoC5/SPIM.c **** 
 915:Generated_Source\PSoC5/SPIM.c ****     /*******************************************************************************
 916:Generated_Source\PSoC5/SPIM.c ****     * Function Name: SPIM_TxDisable
 917:Generated_Source\PSoC5/SPIM.c ****     ********************************************************************************
 918:Generated_Source\PSoC5/SPIM.c ****     *
 919:Generated_Source\PSoC5/SPIM.c ****     * Summary:
 920:Generated_Source\PSoC5/SPIM.c ****     *  If the SPI master is configured to use a single bi-directional pin then this
 921:Generated_Source\PSoC5/SPIM.c ****     *  will set the bi-directional pin to receive.
 922:Generated_Source\PSoC5/SPIM.c ****     *
 923:Generated_Source\PSoC5/SPIM.c ****     * Parameters:
 924:Generated_Source\PSoC5/SPIM.c ****     *  None.
 925:Generated_Source\PSoC5/SPIM.c ****     *
 926:Generated_Source\PSoC5/SPIM.c ****     * Return:
 927:Generated_Source\PSoC5/SPIM.c ****     *  None.
ARM GAS  C:\Users\PIERRE~1\AppData\Local\Temp\ccqePNI3.s 			page 29


 928:Generated_Source\PSoC5/SPIM.c ****     *
 929:Generated_Source\PSoC5/SPIM.c ****     *******************************************************************************/
 930:Generated_Source\PSoC5/SPIM.c ****     void SPIM_TxDisable(void) 
 931:Generated_Source\PSoC5/SPIM.c ****     {
 932:Generated_Source\PSoC5/SPIM.c ****         SPIM_CONTROL_REG &= ((uint8) ~SPIM_CTRL_TX_SIGNAL_EN);
 933:Generated_Source\PSoC5/SPIM.c ****     }
 934:Generated_Source\PSoC5/SPIM.c **** 
 935:Generated_Source\PSoC5/SPIM.c **** #endif /* (0u != SPIM_BIDIRECTIONAL_MODE) */
 936:Generated_Source\PSoC5/SPIM.c **** 
 937:Generated_Source\PSoC5/SPIM.c **** 
 938:Generated_Source\PSoC5/SPIM.c **** /*******************************************************************************
 939:Generated_Source\PSoC5/SPIM.c **** * Function Name: SPIM_PutArray
 940:Generated_Source\PSoC5/SPIM.c **** ********************************************************************************
 941:Generated_Source\PSoC5/SPIM.c **** *
 942:Generated_Source\PSoC5/SPIM.c **** * Summary:
 943:Generated_Source\PSoC5/SPIM.c **** *  Write available data from ROM/RAM to the TX buffer while space is available
 944:Generated_Source\PSoC5/SPIM.c **** *  in the TX buffer. Keep trying until all data is passed to the TX buffer.
 945:Generated_Source\PSoC5/SPIM.c **** *
 946:Generated_Source\PSoC5/SPIM.c **** * Parameters:
 947:Generated_Source\PSoC5/SPIM.c **** *  *buffer: Pointer to the location in RAM containing the data to send
 948:Generated_Source\PSoC5/SPIM.c **** *  byteCount: The number of bytes to move to the transmit buffer.
 949:Generated_Source\PSoC5/SPIM.c **** *
 950:Generated_Source\PSoC5/SPIM.c **** * Return:
 951:Generated_Source\PSoC5/SPIM.c **** *  None.
 952:Generated_Source\PSoC5/SPIM.c **** *
 953:Generated_Source\PSoC5/SPIM.c **** * Side Effects:
 954:Generated_Source\PSoC5/SPIM.c **** *  Will stay in this routine until all data has been sent.  May get locked in
 955:Generated_Source\PSoC5/SPIM.c **** *  this loop if data is not being initiated by the master if there is not
 956:Generated_Source\PSoC5/SPIM.c **** *  enough room in the TX FIFO.
 957:Generated_Source\PSoC5/SPIM.c **** *
 958:Generated_Source\PSoC5/SPIM.c **** * Reentrant:
 959:Generated_Source\PSoC5/SPIM.c **** *  No.
 960:Generated_Source\PSoC5/SPIM.c **** *
 961:Generated_Source\PSoC5/SPIM.c **** *******************************************************************************/
 962:Generated_Source\PSoC5/SPIM.c **** void SPIM_PutArray(const uint8 buffer[], uint8 byteCount)
 963:Generated_Source\PSoC5/SPIM.c ****                                                                           
 964:Generated_Source\PSoC5/SPIM.c **** {
 654              		.loc 1 964 0
 655              		.cfi_startproc
 656              		@ args = 0, pretend = 0, frame = 0
 657              		@ frame_needed = 0, uses_anonymous_args = 0
 658              	.LVL32:
 659 0000 70B5     		push	{r4, r5, r6, lr}
 660              		.cfi_def_cfa_offset 16
 661              		.cfi_offset 4, -16
 662              		.cfi_offset 5, -12
 663              		.cfi_offset 6, -8
 664              		.cfi_offset 14, -4
 665 0002 0646     		mov	r6, r0
 666 0004 0C46     		mov	r4, r1
 667              	.LVL33:
 965:Generated_Source\PSoC5/SPIM.c ****     uint8 bufIndex;
 966:Generated_Source\PSoC5/SPIM.c **** 
 967:Generated_Source\PSoC5/SPIM.c ****     bufIndex = 0u;
 668              		.loc 1 967 0
 669 0006 0025     		movs	r5, #0
 968:Generated_Source\PSoC5/SPIM.c **** 
ARM GAS  C:\Users\PIERRE~1\AppData\Local\Temp\ccqePNI3.s 			page 30


 969:Generated_Source\PSoC5/SPIM.c ****     while(byteCount > 0u)
 670              		.loc 1 969 0
 671 0008 06E0     		b	.L64
 672              	.LVL34:
 673              	.L65:
 970:Generated_Source\PSoC5/SPIM.c ****     {
 971:Generated_Source\PSoC5/SPIM.c ****         SPIM_WriteTxData(buffer[bufIndex]);
 674              		.loc 1 971 0
 675 000a 705D     		ldrb	r0, [r6, r5]	@ zero_extendqisi2
 676 000c FFF7FEFF 		bl	SPIM_WriteTxData
 677              	.LVL35:
 972:Generated_Source\PSoC5/SPIM.c ****         bufIndex++;
 678              		.loc 1 972 0
 679 0010 0135     		adds	r5, r5, #1
 680              	.LVL36:
 681 0012 EDB2     		uxtb	r5, r5
 682              	.LVL37:
 973:Generated_Source\PSoC5/SPIM.c ****         byteCount--;
 683              		.loc 1 973 0
 684 0014 013C     		subs	r4, r4, #1
 685              	.LVL38:
 686 0016 E4B2     		uxtb	r4, r4
 687              	.LVL39:
 688              	.L64:
 969:Generated_Source\PSoC5/SPIM.c ****     {
 689              		.loc 1 969 0
 690 0018 002C     		cmp	r4, #0
 691 001a F6D1     		bne	.L65
 974:Generated_Source\PSoC5/SPIM.c ****     }
 975:Generated_Source\PSoC5/SPIM.c **** }
 692              		.loc 1 975 0
 693 001c 70BD     		pop	{r4, r5, r6, pc}
 694              		.cfi_endproc
 695              	.LFE18:
 696              		.size	SPIM_PutArray, .-SPIM_PutArray
 697 001e 00BF     		.section	.text.SPIM_ClearFIFO,"ax",%progbits
 698              		.align	2
 699              		.global	SPIM_ClearFIFO
 700              		.thumb
 701              		.thumb_func
 702              		.type	SPIM_ClearFIFO, %function
 703              	SPIM_ClearFIFO:
 704              	.LFB19:
 976:Generated_Source\PSoC5/SPIM.c **** 
 977:Generated_Source\PSoC5/SPIM.c **** 
 978:Generated_Source\PSoC5/SPIM.c **** /*******************************************************************************
 979:Generated_Source\PSoC5/SPIM.c **** * Function Name: SPIM_ClearFIFO
 980:Generated_Source\PSoC5/SPIM.c **** ********************************************************************************
 981:Generated_Source\PSoC5/SPIM.c **** *
 982:Generated_Source\PSoC5/SPIM.c **** * Summary:
 983:Generated_Source\PSoC5/SPIM.c **** *  Clear the RX and TX FIFO's of all data for a fresh start.
 984:Generated_Source\PSoC5/SPIM.c **** *
 985:Generated_Source\PSoC5/SPIM.c **** * Parameters:
 986:Generated_Source\PSoC5/SPIM.c **** *  None.
 987:Generated_Source\PSoC5/SPIM.c **** *
 988:Generated_Source\PSoC5/SPIM.c **** * Return:
 989:Generated_Source\PSoC5/SPIM.c **** *  None.
ARM GAS  C:\Users\PIERRE~1\AppData\Local\Temp\ccqePNI3.s 			page 31


 990:Generated_Source\PSoC5/SPIM.c **** *
 991:Generated_Source\PSoC5/SPIM.c **** * Side Effects:
 992:Generated_Source\PSoC5/SPIM.c **** *  Clear status register of the component.
 993:Generated_Source\PSoC5/SPIM.c **** *
 994:Generated_Source\PSoC5/SPIM.c **** *******************************************************************************/
 995:Generated_Source\PSoC5/SPIM.c **** void SPIM_ClearFIFO(void) 
 996:Generated_Source\PSoC5/SPIM.c **** {
 705              		.loc 1 996 0
 706              		.cfi_startproc
 707              		@ args = 0, pretend = 0, frame = 0
 708              		@ frame_needed = 0, uses_anonymous_args = 0
 709 0000 08B5     		push	{r3, lr}
 710              		.cfi_def_cfa_offset 8
 711              		.cfi_offset 3, -8
 712              		.cfi_offset 14, -4
 997:Generated_Source\PSoC5/SPIM.c ****     uint8 enableInterrupts;
 998:Generated_Source\PSoC5/SPIM.c **** 
 999:Generated_Source\PSoC5/SPIM.c ****     /* Clear Hardware RX FIFO */
1000:Generated_Source\PSoC5/SPIM.c ****     while(0u !=(SPIM_RX_STATUS_REG & SPIM_STS_RX_FIFO_NOT_EMPTY))
 713              		.loc 1 1000 0
 714 0002 01E0     		b	.L68
 715              	.L69:
1001:Generated_Source\PSoC5/SPIM.c ****     {
1002:Generated_Source\PSoC5/SPIM.c ****         (void) CY_GET_REG8(SPIM_RXDATA_PTR);
 716              		.loc 1 1002 0
 717 0004 0A4B     		ldr	r3, .L71
 718 0006 1B78     		ldrb	r3, [r3]	@ zero_extendqisi2
 719              	.L68:
1000:Generated_Source\PSoC5/SPIM.c ****     {
 720              		.loc 1 1000 0
 721 0008 0A4B     		ldr	r3, .L71+4
 722 000a 1B78     		ldrb	r3, [r3]	@ zero_extendqisi2
 723 000c 13F0200F 		tst	r3, #32
 724 0010 F8D1     		bne	.L69
1003:Generated_Source\PSoC5/SPIM.c ****     }
1004:Generated_Source\PSoC5/SPIM.c **** 
1005:Generated_Source\PSoC5/SPIM.c ****     enableInterrupts = CyEnterCriticalSection();
 725              		.loc 1 1005 0
 726 0012 FFF7FEFF 		bl	CyEnterCriticalSection
 727              	.LVL40:
1006:Generated_Source\PSoC5/SPIM.c ****     /* Clear TX FIFO */
1007:Generated_Source\PSoC5/SPIM.c ****     SPIM_AUX_CONTROL_DP0_REG |= ((uint8)  SPIM_TX_FIFO_CLR);
 728              		.loc 1 1007 0
 729 0016 084B     		ldr	r3, .L71+8
 730 0018 1A78     		ldrb	r2, [r3]	@ zero_extendqisi2
 731 001a 42F00102 		orr	r2, r2, #1
 732 001e 1A70     		strb	r2, [r3]
1008:Generated_Source\PSoC5/SPIM.c ****     SPIM_AUX_CONTROL_DP0_REG &= ((uint8) ~SPIM_TX_FIFO_CLR);
 733              		.loc 1 1008 0
 734 0020 1A78     		ldrb	r2, [r3]	@ zero_extendqisi2
 735 0022 02F0FE02 		and	r2, r2, #254
 736 0026 1A70     		strb	r2, [r3]
1009:Generated_Source\PSoC5/SPIM.c **** 
1010:Generated_Source\PSoC5/SPIM.c ****     #if(SPIM_USE_SECOND_DATAPATH)
1011:Generated_Source\PSoC5/SPIM.c ****         /* Clear TX FIFO for 2nd Datapath */
1012:Generated_Source\PSoC5/SPIM.c ****         SPIM_AUX_CONTROL_DP1_REG |= ((uint8)  SPIM_TX_FIFO_CLR);
1013:Generated_Source\PSoC5/SPIM.c ****         SPIM_AUX_CONTROL_DP1_REG &= ((uint8) ~SPIM_TX_FIFO_CLR);
ARM GAS  C:\Users\PIERRE~1\AppData\Local\Temp\ccqePNI3.s 			page 32


1014:Generated_Source\PSoC5/SPIM.c ****     #endif /* (SPIM_USE_SECOND_DATAPATH) */
1015:Generated_Source\PSoC5/SPIM.c ****     CyExitCriticalSection(enableInterrupts);
 737              		.loc 1 1015 0
 738 0028 FFF7FEFF 		bl	CyExitCriticalSection
 739              	.LVL41:
 740 002c 08BD     		pop	{r3, pc}
 741              	.L72:
 742 002e 00BF     		.align	2
 743              	.L71:
 744 0030 56640040 		.word	1073767510
 745 0034 67650040 		.word	1073767783
 746 0038 96640040 		.word	1073767574
 747              		.cfi_endproc
 748              	.LFE19:
 749              		.size	SPIM_ClearFIFO, .-SPIM_ClearFIFO
 750              		.section	.text.SPIM_Init,"ax",%progbits
 751              		.align	2
 752              		.global	SPIM_Init
 753              		.thumb
 754              		.thumb_func
 755              		.type	SPIM_Init, %function
 756              	SPIM_Init:
 757              	.LFB0:
  64:Generated_Source\PSoC5/SPIM.c ****     /* Initialize the Bit counter */
 758              		.loc 1 64 0
 759              		.cfi_startproc
 760              		@ args = 0, pretend = 0, frame = 0
 761              		@ frame_needed = 0, uses_anonymous_args = 0
 762 0000 10B5     		push	{r4, lr}
 763              		.cfi_def_cfa_offset 8
 764              		.cfi_offset 4, -8
 765              		.cfi_offset 14, -4
  66:Generated_Source\PSoC5/SPIM.c **** 
 766              		.loc 1 66 0
 767 0002 0F22     		movs	r2, #15
 768 0004 0F4B     		ldr	r3, .L75
 769 0006 1A70     		strb	r2, [r3]
  77:Generated_Source\PSoC5/SPIM.c ****         CyIntSetPriority     (SPIM_RX_ISR_NUMBER,  SPIM_RX_ISR_PRIORITY);
 770              		.loc 1 77 0
 771 0008 0222     		movs	r2, #2
 772 000a 0F4B     		ldr	r3, .L75+4
 773 000c 1A60     		str	r2, [r3]
  78:Generated_Source\PSoC5/SPIM.c ****         (void) CyIntSetVector(SPIM_RX_ISR_NUMBER, &SPIM_RX_ISR);
 774              		.loc 1 78 0
 775 000e 0721     		movs	r1, #7
 776 0010 0120     		movs	r0, #1
 777 0012 FFF7FEFF 		bl	CyIntSetPriority
 778              	.LVL42:
  79:Generated_Source\PSoC5/SPIM.c ****     #endif /* (0u != SPIM_INTERNAL_RX_INT_ENABLED) */
 779              		.loc 1 79 0
 780 0016 0D49     		ldr	r1, .L75+8
 781 0018 0120     		movs	r0, #1
 782 001a FFF7FEFF 		bl	CyIntSetVector
 783              	.LVL43:
  83:Generated_Source\PSoC5/SPIM.c **** 
 784              		.loc 1 83 0
 785 001e FFF7FEFF 		bl	SPIM_ClearFIFO
ARM GAS  C:\Users\PIERRE~1\AppData\Local\Temp\ccqePNI3.s 			page 33


 786              	.LVL44:
  86:Generated_Source\PSoC5/SPIM.c ****         SPIM_rxBufferRead  = 0u;
 787              		.loc 1 86 0
 788 0022 0024     		movs	r4, #0
 789 0024 0A4B     		ldr	r3, .L75+12
 790 0026 1C70     		strb	r4, [r3]
  87:Generated_Source\PSoC5/SPIM.c ****         SPIM_rxBufferWrite = 0u;
 791              		.loc 1 87 0
 792 0028 0A4B     		ldr	r3, .L75+16
 793 002a 1C70     		strb	r4, [r3]
  88:Generated_Source\PSoC5/SPIM.c ****     #endif /* (SPIM_RX_SOFTWARE_BUF_ENABLED) */
 794              		.loc 1 88 0
 795 002c 0A4B     		ldr	r3, .L75+20
 796 002e 1C70     		strb	r4, [r3]
  97:Generated_Source\PSoC5/SPIM.c ****     (void) SPIM_ReadRxStatus(); /* Clear Rx status and swStatusRx */
 797              		.loc 1 97 0
 798 0030 FFF7FEFF 		bl	SPIM_ReadTxStatus
 799              	.LVL45:
  98:Generated_Source\PSoC5/SPIM.c **** 
 800              		.loc 1 98 0
 801 0034 FFF7FEFF 		bl	SPIM_ReadRxStatus
 802              	.LVL46:
 101:Generated_Source\PSoC5/SPIM.c ****     SPIM_RX_STATUS_MASK_REG = SPIM_RX_INIT_INTERRUPTS_MASK;
 803              		.loc 1 101 0
 804 0038 084B     		ldr	r3, .L75+24
 805 003a 1C70     		strb	r4, [r3]
 102:Generated_Source\PSoC5/SPIM.c **** }
 806              		.loc 1 102 0
 807 003c 2022     		movs	r2, #32
 808 003e 0133     		adds	r3, r3, #1
 809 0040 1A70     		strb	r2, [r3]
 810 0042 10BD     		pop	{r4, pc}
 811              	.L76:
 812              		.align	2
 813              	.L75:
 814 0044 86640040 		.word	1073767558
 815 0048 80E100E0 		.word	-536813184
 816 004c 00000000 		.word	SPIM_RX_ISR
 817 0050 00000000 		.word	SPIM_rxBufferFull
 818 0054 00000000 		.word	SPIM_rxBufferRead
 819 0058 00000000 		.word	SPIM_rxBufferWrite
 820 005c 86650040 		.word	1073767814
 821              		.cfi_endproc
 822              	.LFE0:
 823              		.size	SPIM_Init, .-SPIM_Init
 824              		.section	.text.SPIM_Start,"ax",%progbits
 825              		.align	2
 826              		.global	SPIM_Start
 827              		.thumb
 828              		.thumb_func
 829              		.type	SPIM_Start, %function
 830              	SPIM_Start:
 831              	.LFB2:
 164:Generated_Source\PSoC5/SPIM.c ****     if(0u == SPIM_initVar)
 832              		.loc 1 164 0
 833              		.cfi_startproc
 834              		@ args = 0, pretend = 0, frame = 0
ARM GAS  C:\Users\PIERRE~1\AppData\Local\Temp\ccqePNI3.s 			page 34


 835              		@ frame_needed = 0, uses_anonymous_args = 0
 836 0000 08B5     		push	{r3, lr}
 837              		.cfi_def_cfa_offset 8
 838              		.cfi_offset 3, -8
 839              		.cfi_offset 14, -4
 165:Generated_Source\PSoC5/SPIM.c ****     {
 840              		.loc 1 165 0
 841 0002 054B     		ldr	r3, .L80
 842 0004 1B78     		ldrb	r3, [r3]	@ zero_extendqisi2
 843 0006 23B9     		cbnz	r3, .L78
 167:Generated_Source\PSoC5/SPIM.c ****         SPIM_initVar = 1u;
 844              		.loc 1 167 0
 845 0008 FFF7FEFF 		bl	SPIM_Init
 846              	.LVL47:
 168:Generated_Source\PSoC5/SPIM.c ****     }
 847              		.loc 1 168 0
 848 000c 0122     		movs	r2, #1
 849 000e 024B     		ldr	r3, .L80
 850 0010 1A70     		strb	r2, [r3]
 851              	.L78:
 171:Generated_Source\PSoC5/SPIM.c **** }
 852              		.loc 1 171 0
 853 0012 FFF7FEFF 		bl	SPIM_Enable
 854              	.LVL48:
 855 0016 08BD     		pop	{r3, pc}
 856              	.L81:
 857              		.align	2
 858              	.L80:
 859 0018 00000000 		.word	.LANCHOR0
 860              		.cfi_endproc
 861              	.LFE2:
 862              		.size	SPIM_Start, .-SPIM_Start
 863              		.section	.text.SPIM_EnableInt,"ax",%progbits
 864              		.align	2
 865              		.global	SPIM_EnableInt
 866              		.thumb
 867              		.thumb_func
 868              		.type	SPIM_EnableInt, %function
 869              	SPIM_EnableInt:
 870              	.LFB20:
1016:Generated_Source\PSoC5/SPIM.c **** }
1017:Generated_Source\PSoC5/SPIM.c **** 
1018:Generated_Source\PSoC5/SPIM.c **** 
1019:Generated_Source\PSoC5/SPIM.c **** /* Following functions are for version Compatibility, they are obsolete.
1020:Generated_Source\PSoC5/SPIM.c **** *  Please do not use it in new projects.
1021:Generated_Source\PSoC5/SPIM.c **** */
1022:Generated_Source\PSoC5/SPIM.c **** 
1023:Generated_Source\PSoC5/SPIM.c **** 
1024:Generated_Source\PSoC5/SPIM.c **** /*******************************************************************************
1025:Generated_Source\PSoC5/SPIM.c **** * Function Name: SPIM_EnableInt
1026:Generated_Source\PSoC5/SPIM.c **** ********************************************************************************
1027:Generated_Source\PSoC5/SPIM.c **** *
1028:Generated_Source\PSoC5/SPIM.c **** * Summary:
1029:Generated_Source\PSoC5/SPIM.c **** *  Enable internal interrupt generation.
1030:Generated_Source\PSoC5/SPIM.c **** *
1031:Generated_Source\PSoC5/SPIM.c **** * Parameters:
1032:Generated_Source\PSoC5/SPIM.c **** *  None.
ARM GAS  C:\Users\PIERRE~1\AppData\Local\Temp\ccqePNI3.s 			page 35


1033:Generated_Source\PSoC5/SPIM.c **** *
1034:Generated_Source\PSoC5/SPIM.c **** * Return:
1035:Generated_Source\PSoC5/SPIM.c **** *  None.
1036:Generated_Source\PSoC5/SPIM.c **** *
1037:Generated_Source\PSoC5/SPIM.c **** * Theory:
1038:Generated_Source\PSoC5/SPIM.c **** *  Enable the internal interrupt output -or- the interrupt component itself.
1039:Generated_Source\PSoC5/SPIM.c **** *
1040:Generated_Source\PSoC5/SPIM.c **** *******************************************************************************/
1041:Generated_Source\PSoC5/SPIM.c **** void SPIM_EnableInt(void) 
1042:Generated_Source\PSoC5/SPIM.c **** {
 871              		.loc 1 1042 0
 872              		.cfi_startproc
 873              		@ args = 0, pretend = 0, frame = 0
 874              		@ frame_needed = 0, uses_anonymous_args = 0
 875 0000 08B5     		push	{r3, lr}
 876              		.cfi_def_cfa_offset 8
 877              		.cfi_offset 3, -8
 878              		.cfi_offset 14, -4
1043:Generated_Source\PSoC5/SPIM.c ****     SPIM_EnableRxInt();
 879              		.loc 1 1043 0
 880 0002 FFF7FEFF 		bl	SPIM_EnableRxInt
 881              	.LVL49:
 882 0006 08BD     		pop	{r3, pc}
 883              		.cfi_endproc
 884              	.LFE20:
 885              		.size	SPIM_EnableInt, .-SPIM_EnableInt
 886              		.section	.text.SPIM_DisableInt,"ax",%progbits
 887              		.align	2
 888              		.global	SPIM_DisableInt
 889              		.thumb
 890              		.thumb_func
 891              		.type	SPIM_DisableInt, %function
 892              	SPIM_DisableInt:
 893              	.LFB21:
1044:Generated_Source\PSoC5/SPIM.c ****     SPIM_EnableTxInt();
1045:Generated_Source\PSoC5/SPIM.c **** }
1046:Generated_Source\PSoC5/SPIM.c **** 
1047:Generated_Source\PSoC5/SPIM.c **** 
1048:Generated_Source\PSoC5/SPIM.c **** /*******************************************************************************
1049:Generated_Source\PSoC5/SPIM.c **** * Function Name: SPIM_DisableInt
1050:Generated_Source\PSoC5/SPIM.c **** ********************************************************************************
1051:Generated_Source\PSoC5/SPIM.c **** *
1052:Generated_Source\PSoC5/SPIM.c **** * Summary:
1053:Generated_Source\PSoC5/SPIM.c **** *  Disable internal interrupt generation.
1054:Generated_Source\PSoC5/SPIM.c **** *
1055:Generated_Source\PSoC5/SPIM.c **** * Parameters:
1056:Generated_Source\PSoC5/SPIM.c **** *  None.
1057:Generated_Source\PSoC5/SPIM.c **** *
1058:Generated_Source\PSoC5/SPIM.c **** * Return:
1059:Generated_Source\PSoC5/SPIM.c **** *  None.
1060:Generated_Source\PSoC5/SPIM.c **** *
1061:Generated_Source\PSoC5/SPIM.c **** * Theory:
1062:Generated_Source\PSoC5/SPIM.c **** *  Disable the internal interrupt output -or- the interrupt component itself.
1063:Generated_Source\PSoC5/SPIM.c **** *
1064:Generated_Source\PSoC5/SPIM.c **** *******************************************************************************/
1065:Generated_Source\PSoC5/SPIM.c **** void SPIM_DisableInt(void) 
1066:Generated_Source\PSoC5/SPIM.c **** {
ARM GAS  C:\Users\PIERRE~1\AppData\Local\Temp\ccqePNI3.s 			page 36


 894              		.loc 1 1066 0
 895              		.cfi_startproc
 896              		@ args = 0, pretend = 0, frame = 0
 897              		@ frame_needed = 0, uses_anonymous_args = 0
 898 0000 08B5     		push	{r3, lr}
 899              		.cfi_def_cfa_offset 8
 900              		.cfi_offset 3, -8
 901              		.cfi_offset 14, -4
1067:Generated_Source\PSoC5/SPIM.c ****     SPIM_DisableTxInt();
1068:Generated_Source\PSoC5/SPIM.c ****     SPIM_DisableRxInt();
 902              		.loc 1 1068 0
 903 0002 FFF7FEFF 		bl	SPIM_DisableRxInt
 904              	.LVL50:
 905 0006 08BD     		pop	{r3, pc}
 906              		.cfi_endproc
 907              	.LFE21:
 908              		.size	SPIM_DisableInt, .-SPIM_DisableInt
 909              		.section	.text.SPIM_SetInterruptMode,"ax",%progbits
 910              		.align	2
 911              		.global	SPIM_SetInterruptMode
 912              		.thumb
 913              		.thumb_func
 914              		.type	SPIM_SetInterruptMode, %function
 915              	SPIM_SetInterruptMode:
 916              	.LFB22:
1069:Generated_Source\PSoC5/SPIM.c **** }
1070:Generated_Source\PSoC5/SPIM.c **** 
1071:Generated_Source\PSoC5/SPIM.c **** 
1072:Generated_Source\PSoC5/SPIM.c **** /*******************************************************************************
1073:Generated_Source\PSoC5/SPIM.c **** * Function Name: SPIM_SetInterruptMode
1074:Generated_Source\PSoC5/SPIM.c **** ********************************************************************************
1075:Generated_Source\PSoC5/SPIM.c **** *
1076:Generated_Source\PSoC5/SPIM.c **** * Summary:
1077:Generated_Source\PSoC5/SPIM.c **** *  Configure which status bits trigger an interrupt event.
1078:Generated_Source\PSoC5/SPIM.c **** *
1079:Generated_Source\PSoC5/SPIM.c **** * Parameters:
1080:Generated_Source\PSoC5/SPIM.c **** *  intSrc: An or'd combination of the desired status bit masks (defined in the
1081:Generated_Source\PSoC5/SPIM.c **** *  header file).
1082:Generated_Source\PSoC5/SPIM.c **** *
1083:Generated_Source\PSoC5/SPIM.c **** * Return:
1084:Generated_Source\PSoC5/SPIM.c **** *  None.
1085:Generated_Source\PSoC5/SPIM.c **** *
1086:Generated_Source\PSoC5/SPIM.c **** * Theory:
1087:Generated_Source\PSoC5/SPIM.c **** *  Enables the output of specific status bits to the interrupt controller.
1088:Generated_Source\PSoC5/SPIM.c **** *
1089:Generated_Source\PSoC5/SPIM.c **** *******************************************************************************/
1090:Generated_Source\PSoC5/SPIM.c **** void SPIM_SetInterruptMode(uint8 intSrc) 
1091:Generated_Source\PSoC5/SPIM.c **** {
 917              		.loc 1 1091 0
 918              		.cfi_startproc
 919              		@ args = 0, pretend = 0, frame = 0
 920              		@ frame_needed = 0, uses_anonymous_args = 0
 921              		@ link register save eliminated.
 922              	.LVL51:
1092:Generated_Source\PSoC5/SPIM.c ****     SPIM_TX_STATUS_MASK_REG  = (intSrc & ((uint8) ~SPIM_STS_SPI_IDLE));
 923              		.loc 1 1092 0
 924 0000 00F0EF02 		and	r2, r0, #239
ARM GAS  C:\Users\PIERRE~1\AppData\Local\Temp\ccqePNI3.s 			page 37


 925 0004 024B     		ldr	r3, .L87
 926 0006 1A70     		strb	r2, [r3]
1093:Generated_Source\PSoC5/SPIM.c ****     SPIM_RX_STATUS_MASK_REG  =  intSrc;
 927              		.loc 1 1093 0
 928 0008 0133     		adds	r3, r3, #1
 929 000a 1870     		strb	r0, [r3]
 930 000c 7047     		bx	lr
 931              	.L88:
 932 000e 00BF     		.align	2
 933              	.L87:
 934 0010 86650040 		.word	1073767814
 935              		.cfi_endproc
 936              	.LFE22:
 937              		.size	SPIM_SetInterruptMode, .-SPIM_SetInterruptMode
 938              		.section	.text.SPIM_ReadStatus,"ax",%progbits
 939              		.align	2
 940              		.global	SPIM_ReadStatus
 941              		.thumb
 942              		.thumb_func
 943              		.type	SPIM_ReadStatus, %function
 944              	SPIM_ReadStatus:
 945              	.LFB23:
1094:Generated_Source\PSoC5/SPIM.c **** }
1095:Generated_Source\PSoC5/SPIM.c **** 
1096:Generated_Source\PSoC5/SPIM.c **** 
1097:Generated_Source\PSoC5/SPIM.c **** /*******************************************************************************
1098:Generated_Source\PSoC5/SPIM.c **** * Function Name: SPIM_ReadStatus
1099:Generated_Source\PSoC5/SPIM.c **** ********************************************************************************
1100:Generated_Source\PSoC5/SPIM.c **** *
1101:Generated_Source\PSoC5/SPIM.c **** * Summary:
1102:Generated_Source\PSoC5/SPIM.c **** *  Read the status register for the component.
1103:Generated_Source\PSoC5/SPIM.c **** *
1104:Generated_Source\PSoC5/SPIM.c **** * Parameters:
1105:Generated_Source\PSoC5/SPIM.c **** *  None.
1106:Generated_Source\PSoC5/SPIM.c **** *
1107:Generated_Source\PSoC5/SPIM.c **** * Return:
1108:Generated_Source\PSoC5/SPIM.c **** *  Contents of the status register.
1109:Generated_Source\PSoC5/SPIM.c **** *
1110:Generated_Source\PSoC5/SPIM.c **** * Global variables:
1111:Generated_Source\PSoC5/SPIM.c **** *  SPIM_swStatus - used to store in software status register,
1112:Generated_Source\PSoC5/SPIM.c **** *  modified every function call - resets to zero.
1113:Generated_Source\PSoC5/SPIM.c **** *
1114:Generated_Source\PSoC5/SPIM.c **** * Theory:
1115:Generated_Source\PSoC5/SPIM.c **** *  Allows the user and the API to read the status register for error detection
1116:Generated_Source\PSoC5/SPIM.c **** *  and flow control.
1117:Generated_Source\PSoC5/SPIM.c **** *
1118:Generated_Source\PSoC5/SPIM.c **** * Side Effects:
1119:Generated_Source\PSoC5/SPIM.c **** *  Clear status register of the component.
1120:Generated_Source\PSoC5/SPIM.c **** *
1121:Generated_Source\PSoC5/SPIM.c **** * Reentrant:
1122:Generated_Source\PSoC5/SPIM.c **** *  No.
1123:Generated_Source\PSoC5/SPIM.c **** *
1124:Generated_Source\PSoC5/SPIM.c **** *******************************************************************************/
1125:Generated_Source\PSoC5/SPIM.c **** uint8 SPIM_ReadStatus(void) 
1126:Generated_Source\PSoC5/SPIM.c **** {
 946              		.loc 1 1126 0
 947              		.cfi_startproc
ARM GAS  C:\Users\PIERRE~1\AppData\Local\Temp\ccqePNI3.s 			page 38


 948              		@ args = 0, pretend = 0, frame = 0
 949              		@ frame_needed = 0, uses_anonymous_args = 0
 950 0000 10B5     		push	{r4, lr}
 951              		.cfi_def_cfa_offset 8
 952              		.cfi_offset 4, -8
 953              		.cfi_offset 14, -4
1127:Generated_Source\PSoC5/SPIM.c ****     uint8 tmpStatus;
1128:Generated_Source\PSoC5/SPIM.c **** 
1129:Generated_Source\PSoC5/SPIM.c ****     #if(SPIM_TX_SOFTWARE_BUF_ENABLED || SPIM_RX_SOFTWARE_BUF_ENABLED)
1130:Generated_Source\PSoC5/SPIM.c **** 
1131:Generated_Source\PSoC5/SPIM.c ****         SPIM_DisableInt();
 954              		.loc 1 1131 0
 955 0002 FFF7FEFF 		bl	SPIM_DisableInt
 956              	.LVL52:
1132:Generated_Source\PSoC5/SPIM.c **** 
1133:Generated_Source\PSoC5/SPIM.c ****         tmpStatus  = SPIM_GET_STATUS_RX(SPIM_swStatusRx);
 957              		.loc 1 1133 0
 958 0006 0C4B     		ldr	r3, .L91
 959 0008 1B78     		ldrb	r3, [r3]	@ zero_extendqisi2
 960 000a 0C4A     		ldr	r2, .L91+4
 961 000c 1478     		ldrb	r4, [r2]	@ zero_extendqisi2
 962 000e 04F04004 		and	r4, r4, #64
 963 0012 1C43     		orrs	r4, r4, r3
 964              	.LVL53:
1134:Generated_Source\PSoC5/SPIM.c ****         tmpStatus |= SPIM_GET_STATUS_TX(SPIM_swStatusTx);
 965              		.loc 1 1134 0
 966 0014 0A4B     		ldr	r3, .L91+8
 967 0016 1878     		ldrb	r0, [r3]	@ zero_extendqisi2
 968 0018 0A49     		ldr	r1, .L91+12
 969 001a 0B78     		ldrb	r3, [r1]	@ zero_extendqisi2
 970 001c 03F00903 		and	r3, r3, #9
 971 0020 0343     		orrs	r3, r3, r0
 972 0022 1C43     		orrs	r4, r4, r3
 973              	.LVL54:
1135:Generated_Source\PSoC5/SPIM.c ****         tmpStatus &= ((uint8) ~SPIM_STS_SPI_IDLE);
 974              		.loc 1 1135 0
 975 0024 04F0EF04 		and	r4, r4, #239
 976              	.LVL55:
1136:Generated_Source\PSoC5/SPIM.c **** 
1137:Generated_Source\PSoC5/SPIM.c ****         SPIM_swStatusTx = 0u;
 977              		.loc 1 1137 0
 978 0028 0023     		movs	r3, #0
 979 002a 0B70     		strb	r3, [r1]
1138:Generated_Source\PSoC5/SPIM.c ****         SPIM_swStatusRx = 0u;
 980              		.loc 1 1138 0
 981 002c 1370     		strb	r3, [r2]
1139:Generated_Source\PSoC5/SPIM.c **** 
1140:Generated_Source\PSoC5/SPIM.c ****         SPIM_EnableInt();
 982              		.loc 1 1140 0
 983 002e FFF7FEFF 		bl	SPIM_EnableInt
 984              	.LVL56:
1141:Generated_Source\PSoC5/SPIM.c **** 
1142:Generated_Source\PSoC5/SPIM.c ****     #else
1143:Generated_Source\PSoC5/SPIM.c **** 
1144:Generated_Source\PSoC5/SPIM.c ****         tmpStatus  = SPIM_RX_STATUS_REG;
1145:Generated_Source\PSoC5/SPIM.c ****         tmpStatus |= SPIM_TX_STATUS_REG;
1146:Generated_Source\PSoC5/SPIM.c ****         tmpStatus &= ((uint8) ~SPIM_STS_SPI_IDLE);
ARM GAS  C:\Users\PIERRE~1\AppData\Local\Temp\ccqePNI3.s 			page 39


1147:Generated_Source\PSoC5/SPIM.c **** 
1148:Generated_Source\PSoC5/SPIM.c ****     #endif /* (SPIM_TX_SOFTWARE_BUF_ENABLED || SPIM_RX_SOFTWARE_BUF_ENABLED) */
1149:Generated_Source\PSoC5/SPIM.c **** 
1150:Generated_Source\PSoC5/SPIM.c ****     return(tmpStatus);
1151:Generated_Source\PSoC5/SPIM.c **** }
 985              		.loc 1 1151 0
 986 0032 2046     		mov	r0, r4
 987 0034 10BD     		pop	{r4, pc}
 988              	.LVL57:
 989              	.L92:
 990 0036 00BF     		.align	2
 991              	.L91:
 992 0038 67650040 		.word	1073767783
 993 003c 00000000 		.word	SPIM_swStatusRx
 994 0040 66650040 		.word	1073767782
 995 0044 00000000 		.word	SPIM_swStatusTx
 996              		.cfi_endproc
 997              	.LFE23:
 998              		.size	SPIM_ReadStatus, .-SPIM_ReadStatus
 999              		.comm	SPIM_swStatusRx,1,1
 1000              		.comm	SPIM_swStatusTx,1,1
 1001              		.global	SPIM_initVar
 1002              		.comm	SPIM_rxBufferWrite,1,1
 1003              		.comm	SPIM_rxBufferRead,1,1
 1004              		.comm	SPIM_rxBufferFull,1,1
 1005              		.comm	SPIM_rxBuffer,15,4
 1006              		.bss
 1007              		.set	.LANCHOR0,. + 0
 1008              		.type	SPIM_initVar, %object
 1009              		.size	SPIM_initVar, 1
 1010              	SPIM_initVar:
 1011 0000 00       		.space	1
 1012              		.text
 1013              	.Letext0:
 1014              		.file 2 "Generated_Source\\PSoC5\\cytypes.h"
 1015              		.file 3 "Generated_Source\\PSoC5\\CyLib.h"