ARM GAS  C:\Users\PIERRE~1\AppData\Local\Temp\ccWV16Vr.s 			page 1


   1              		.syntax unified
   2              		.cpu cortex-m3
   3              		.fpu softvfp
   4              		.eabi_attribute 20, 1
   5              		.eabi_attribute 21, 1
   6              		.eabi_attribute 23, 3
   7              		.eabi_attribute 24, 1
   8              		.eabi_attribute 25, 1
   9              		.eabi_attribute 26, 1
  10              		.eabi_attribute 30, 1
  11              		.eabi_attribute 34, 1
  12              		.eabi_attribute 18, 4
  13              		.thumb
  14              		.syntax unified
  15              		.file	"main.c"
  16              		.text
  17              	.Ltext0:
  18              		.cfi_sections	.debug_frame
  19              		.section	.text.freeRTOSInit,"ax",%progbits
  20              		.align	2
  21              		.thumb
  22              		.thumb_func
  23              		.type	freeRTOSInit, %function
  24              	freeRTOSInit:
  25              	.LFB70:
  26              		.file 1 "main.c"
   1:main.c        **** /* Includes ------------------------------------------------------------------*/
   2:main.c        **** 
   3:main.c        **** #include <project.h>
   4:main.c        **** 
   5:main.c        **** /* RTOS includes. */
   6:main.c        **** #include "FreeRTOS.h"
   7:main.c        **** #include "task.h"
   8:main.c        **** #include "queue.h"
   9:main.c        **** #include "timers.h"
  10:main.c        **** #include "semphr.h"
  11:main.c        **** 
  12:main.c        **** #include "main.h"
  13:main.c        **** #include "stdio.h"
  14:main.c        **** #include "dwm1000.h"
  15:main.c        **** #include <string.h>
  16:main.c        **** #include <inttypes.h>
  17:main.c        **** #include <math.h>
  18:main.c        **** 
  19:main.c        **** uint8_t prio_matrice[NUMBER_OF_ANCHOR+1][NUMBER_OF_ANCHOR+1] = {{0, 0, 0, 0},
  20:main.c        ****                                                                 {0, 0, 0, 0},
  21:main.c        ****                                                                 {0, 0, 0, 0},
  22:main.c        ****                                                                 {0, 0, 0, 0},
  23:main.c        ****                                                                 }; //each anchor + usb_out + usb_in
  24:main.c        **** #define ISR_PRIORITY                    (21u)
  25:main.c        **** #define INTERRUPT_PRIORITY              (22u)
  26:main.c        **** #define DUMMY_PRIO                      (6u)
  27:main.c        **** uint8_t prioBeacon = 20,
  28:main.c        ****         usb_out_prio = 29,
  29:main.c        ****         usb_in_prio = 30;
  30:main.c        **** 
  31:main.c        **** uint16_t number_bytes_receive=0;
ARM GAS  C:\Users\PIERRE~1\AppData\Local\Temp\ccWV16Vr.s 			page 2


  32:main.c        **** uint8_t RxPhoneData[8], TxPhoneData[63];
  33:main.c        **** uint64_t all_clock_time[12]={0};
  34:main.c        **** uint8_t found = 0; 
  35:main.c        **** 
  36:main.c        **** // Boolean variables
  37:main.c        **** uint8_t TxOk = 0;
  38:main.c        **** static volatile uint8_t RxState = 0;
  39:main.c        **** 
  40:main.c        **** enum STATE state;
  41:main.c        **** 
  42:main.c        **** /* 		Tasks 		 */
  43:main.c        **** static void freeRTOSInit(void);
  44:main.c        **** static void state_machine_task(void *arg);
  45:main.c        **** static void dummy_task(void *arg);
  46:main.c        **** static void interrupt_routine(void *arg);
  47:main.c        **** static void usb_out(void *arg);
  48:main.c        **** static void usb_in(void *arg);
  49:main.c        **** 
  50:main.c        **** /* 		Queues 		 */
  51:main.c        **** static xQueueHandle irq_queue = NULL;
  52:main.c        **** static xQueueHandle Rx_q = NULL;
  53:main.c        **** static xQueueHandle Tx_q = NULL;
  54:main.c        **** 
  55:main.c        **** /*      Tasks handle    */
  56:main.c        **** TaskHandle_t taskHandler1; 
  57:main.c        **** TaskHandle_t taskHandler2; 
  58:main.c        **** TaskHandle_t taskHandler3;
  59:main.c        **** TaskHandle_t taskHandler4;
  60:main.c        **** TaskHandle_t dummyHandler;
  61:main.c        **** TaskHandle_t usbOutHandler;
  62:main.c        **** TaskHandle_t usbInHandler;
  63:main.c        **** 
  64:main.c        **** SemaphoreHandle_t semaphoreBuf1;
  65:main.c        **** 
  66:main.c        **** //fonction
  67:main.c        **** static void change_priorities(int slave);
  68:main.c        **** 
  69:main.c        **** /* Interrupt prototypes */
  70:main.c        **** CY_ISR_PROTO(ISR);
  71:main.c        **** CY_ISR(ISR){
  72:main.c        ****     IRQ_ClearPending();    /* Clear pending Interrupt */
  73:main.c        ****     pin_1_ClearInterrupt();    /* Clear pin Interrupt */
  74:main.c        **** 	uint32_t gpio_num = (uint32_t) ISR;
  75:main.c        ****     xQueueSendFromISR(irq_queue, (void *) &gpio_num, NULL);
  76:main.c        **** }
  77:main.c        ****     
  78:main.c        **** static void freeRTOSInit( void ){
  27              		.loc 1 78 0
  28              		.cfi_startproc
  29              		@ args = 0, pretend = 0, frame = 0
  30              		@ frame_needed = 0, uses_anonymous_args = 0
  31              		@ link register save eliminated.
  79:main.c        **** /* Port layer functions that need to be copied into the vector table. */
  80:main.c        **** extern void xPortPendSVHandler( void );
  81:main.c        **** extern void xPortSysTickHandler( void );
  82:main.c        **** extern void vPortSVCHandler( void );
  83:main.c        **** extern cyisraddress CyRamVectors[];
ARM GAS  C:\Users\PIERRE~1\AppData\Local\Temp\ccWV16Vr.s 			page 3


  84:main.c        **** 
  85:main.c        **** 	/* Install the OS Interrupt Handlers. */
  86:main.c        **** 	CyRamVectors[ 11 ] = ( cyisraddress ) vPortSVCHandler;
  32              		.loc 1 86 0
  33 0000 034B     		ldr	r3, .L2
  34 0002 044A     		ldr	r2, .L2+4
  35 0004 DA62     		str	r2, [r3, #44]
  87:main.c        **** 	CyRamVectors[ 14 ] = ( cyisraddress ) xPortPendSVHandler;
  36              		.loc 1 87 0
  37 0006 044A     		ldr	r2, .L2+8
  38 0008 9A63     		str	r2, [r3, #56]
  88:main.c        **** 	CyRamVectors[ 15 ] = ( cyisraddress ) xPortSysTickHandler;
  39              		.loc 1 88 0
  40 000a 044A     		ldr	r2, .L2+12
  41 000c DA63     		str	r2, [r3, #60]
  42 000e 7047     		bx	lr
  43              	.L3:
  44              		.align	2
  45              	.L2:
  46 0010 00000000 		.word	CyRamVectors
  47 0014 00000000 		.word	vPortSVCHandler
  48 0018 00000000 		.word	xPortPendSVHandler
  49 001c 00000000 		.word	xPortSysTickHandler
  50              		.cfi_endproc
  51              	.LFE70:
  52              		.size	freeRTOSInit, .-freeRTOSInit
  53              		.section	.text.ISR,"ax",%progbits
  54              		.align	2
  55              		.global	ISR
  56              		.thumb
  57              		.thumb_func
  58              		.type	ISR, %function
  59              	ISR:
  60              	.LFB69:
  71:main.c        ****     IRQ_ClearPending();    /* Clear pending Interrupt */
  61              		.loc 1 71 0
  62              		.cfi_startproc
  63              		@ args = 0, pretend = 0, frame = 8
  64              		@ frame_needed = 0, uses_anonymous_args = 0
  65 0000 00B5     		push	{lr}
  66              		.cfi_def_cfa_offset 4
  67              		.cfi_offset 14, -4
  68 0002 83B0     		sub	sp, sp, #12
  69              		.cfi_def_cfa_offset 16
  72:main.c        ****     pin_1_ClearInterrupt();    /* Clear pin Interrupt */
  70              		.loc 1 72 0
  71 0004 FFF7FEFF 		bl	IRQ_ClearPending
  72              	.LVL0:
  73:main.c        **** 	uint32_t gpio_num = (uint32_t) ISR;
  73              		.loc 1 73 0
  74 0008 FFF7FEFF 		bl	pin_1_ClearInterrupt
  75              	.LVL1:
  74:main.c        ****     xQueueSendFromISR(irq_queue, (void *) &gpio_num, NULL);
  76              		.loc 1 74 0
  77 000c 02A9     		add	r1, sp, #8
  78 000e 064B     		ldr	r3, .L6
  79 0010 41F8043D 		str	r3, [r1, #-4]!
ARM GAS  C:\Users\PIERRE~1\AppData\Local\Temp\ccWV16Vr.s 			page 4


  75:main.c        **** }
  80              		.loc 1 75 0
  81 0014 0023     		movs	r3, #0
  82 0016 1A46     		mov	r2, r3
  83 0018 0448     		ldr	r0, .L6+4
  84 001a 0068     		ldr	r0, [r0]
  85 001c FFF7FEFF 		bl	xQueueGenericSendFromISR
  86              	.LVL2:
  76:main.c        ****     
  87              		.loc 1 76 0
  88 0020 03B0     		add	sp, sp, #12
  89              		.cfi_def_cfa_offset 4
  90              		@ sp needed
  91 0022 5DF804FB 		ldr	pc, [sp], #4
  92              	.L7:
  93 0026 00BF     		.align	2
  94              	.L6:
  95 0028 00000000 		.word	ISR
  96 002c 00000000 		.word	.LANCHOR0
  97              		.cfi_endproc
  98              	.LFE69:
  99              		.size	ISR, .-ISR
 100              		.section	.text.dummy_task,"ax",%progbits
 101              		.align	2
 102              		.thumb
 103              		.thumb_func
 104              		.type	dummy_task, %function
 105              	dummy_task:
 106              	.LFB75:
  89:main.c        **** }
  90:main.c        **** 
  91:main.c        **** static void interrupt_routine(void *arg){	
  92:main.c        **** 
  93:main.c        ****     (void) arg;
  94:main.c        ****     uint32_t io_num;
  95:main.c        **** 
  96:main.c        ****     for (;;) 
  97:main.c        ****     {	
  98:main.c        ****         if (xQueueReceive(irq_queue, &io_num, 30)) {
  99:main.c        ****             uint8_t RxBuffer[4];
 100:main.c        **** 			uint32_t StatusRegister;
 101:main.c        **** 			uint8_t ack[4] = {0};
 102:main.c        **** 			DWM_ReadSPI_ext(SYS_STATUS, NO_SUB,  RxBuffer, 4);
 103:main.c        **** 			StatusRegister  = (RxBuffer[3] << 24) | (RxBuffer[2] << 16) | (RxBuffer[1] << 8) | RxBuffer[0];
 104:main.c        **** 			if (StatusRegister == 0xFFFFFFFF) {
 105:main.c        **** 				DWM_ReadSPI_ext(SYS_STATUS, NO_SUB,  RxBuffer, 4);
 106:main.c        **** 				StatusRegister  = (RxBuffer[3] << 24) | (RxBuffer[2] << 16) | (RxBuffer[1] << 8) | RxBuffer[0];
 107:main.c        **** 			}
 108:main.c        **** 			if (StatusRegister & TX_OK_MASK){
 109:main.c        **** 				TxOk = 1;
 110:main.c        **** 				xQueueSend(Tx_q,(void*) &TxOk,portMAX_DELAY);
 111:main.c        **** 				setBit(ack, 4, TX_OK_BIT, 1);
 112:main.c        **** 			}
 113:main.c        **** 			// check if RX finished
 114:main.c        **** 
 115:main.c        **** 			if ((StatusRegister & RX_FINISHED_MASK) == RX_FINISHED_MASK) {
 116:main.c        **** 				ack[0] |= RX_FINISHED_MASK;
ARM GAS  C:\Users\PIERRE~1\AppData\Local\Temp\ccWV16Vr.s 			page 5


 117:main.c        **** 				ack[1] |= RX_FINISHED_MASK >> 8;
 118:main.c        **** 				ack[2] |= RX_FINISHED_MASK >> 16;
 119:main.c        **** 				ack[3] |= RX_FINISHED_MASK >> 24;
 120:main.c        **** 				RxState = 1;
 121:main.c        **** 			}
 122:main.c        **** 			if (StatusRegister & RX_ERROR_MASK) {
 123:main.c        **** 				ack[0] |= RX_ERROR_MASK;
 124:main.c        **** 				ack[1] |= RX_ERROR_MASK >> 8;
 125:main.c        **** 				ack[2] |= RX_ERROR_MASK >> 16;
 126:main.c        **** 				ack[3] |= RX_ERROR_MASK >> 24;
 127:main.c        **** 				RxState = 2;
 128:main.c        **** 			}
 129:main.c        **** 			if(RxState == 1 || RxState == 2){
 130:main.c        ****                 xQueueSend(Rx_q,(void*) &RxState,portMAX_DELAY);
 131:main.c        ****             }
 132:main.c        **** 			DWM_WriteSPI_ext(SYS_STATUS ,NO_SUB, ack, 4);
 133:main.c        ****          }
 134:main.c        ****     }
 135:main.c        ****      vTaskDelete(NULL);
 136:main.c        **** }
 137:main.c        **** 
 138:main.c        **** static void usb_out(void *arg){
 139:main.c        **** 
 140:main.c        ****     (void) *arg;
 141:main.c        ****     for(;;){
 142:main.c        ****         
 143:main.c        ****         CyDelay(1);
 144:main.c        ****         if(xSemaphoreTake(semaphoreBuf1, 5) == pdPASS){
 145:main.c        ****             GPIOJ13_Write(!GPIOJ13_Read());
 146:main.c        ****             for(int i=0;i<12;i++){                  // Preparation of data
 147:main.c        ****                 TxPhoneData[5*i]=all_clock_time[i];       
 148:main.c        ****                 TxPhoneData[5*i+1]=all_clock_time[i]>>8;       
 149:main.c        ****                 TxPhoneData[5*i+2]=all_clock_time[i]>>16;       
 150:main.c        ****                 TxPhoneData[5*i+3]=all_clock_time[i]>>24;       
 151:main.c        ****                 TxPhoneData[5*i+4]=all_clock_time[i]>>32;
 152:main.c        ****             }
 153:main.c        ****             USBP_LoadInEP(1,TxPhoneData,63);
 154:main.c        ****             GPIOJ13_Write(!GPIOJ13_Read());
 155:main.c        ****             change_priorities(-2);
 156:main.c        ****             xSemaphoreGive(semaphoreBuf1);
 157:main.c        ****         }else{}
 158:main.c        ****     }
 159:main.c        **** }
 160:main.c        **** 
 161:main.c        **** static void usb_in(void *arg){
 162:main.c        ****     (void) *arg;
 163:main.c        ****     for(;;){
 164:main.c        ****         CyDelay(1);
 165:main.c        ****         if(xSemaphoreTake(semaphoreBuf1, 5) == pdPASS){
 166:main.c        ****             GPIOJ14_Write(!GPIOJ14_Read());
 167:main.c        ****             USBP_EnableOutEP(2);
 168:main.c        ****             while(USBP_bGetEPAckState(2)==USBP_OUT_BUFFER_EMPTY)
 169:main.c        ****             number_bytes_receive=USBP_GetEPCount(2);
 170:main.c        ****             USBP_ReadOutEP(2,RxPhoneData,number_bytes_receive);
 171:main.c        ****             USBP_DisableOutEP(2);
 172:main.c        ****             if(RxPhoneData[0]==0x04 && RxPhoneData[1]==0x06){   //test connection
 173:main.c        ****                 TxPhoneData[0]=0x02;
ARM GAS  C:\Users\PIERRE~1\AppData\Local\Temp\ccWV16Vr.s 			page 6


 174:main.c        ****                 TxPhoneData[1]=0x03;
 175:main.c        ****                 TxPhoneData[2]=0x46;
 176:main.c        ****                 TxPhoneData[3]=0x37;
 177:main.c        ****                 USBP_LoadInEP(1,TxPhoneData,4);
 178:main.c        ****             }else{
 179:main.c        ****                 change_priorities(-1);
 180:main.c        ****             }
 181:main.c        ****             GPIOJ14_Write(!GPIOJ14_Read());
 182:main.c        ****             xSemaphoreGive(semaphoreBuf1);
 183:main.c        ****         }else{}
 184:main.c        ****     }
 185:main.c        **** }
 186:main.c        **** 
 187:main.c        **** static void change_priorities(int num){
 188:main.c        ****     taskENTER_CRITICAL();
 189:main.c        ****     if(num == -1){
 190:main.c        ****         vTaskPrioritySet(taskHandler1, prioBeacon);
 191:main.c        ****         vTaskPrioritySet(taskHandler2, prioBeacon);
 192:main.c        ****         vTaskPrioritySet(taskHandler3, prioBeacon);
 193:main.c        ****         if(NUMBER_OF_ANCHOR > 3){
 194:main.c        ****             vTaskPrioritySet(taskHandler4, prioBeacon);
 195:main.c        ****         }
 196:main.c        ****         vTaskPrioritySet(usbOutHandler, prioBeacon-10);
 197:main.c        ****         vTaskPrioritySet(usbInHandler, prioBeacon - 11);
 198:main.c        ****     }else if(num == -2){
 199:main.c        ****         vTaskPrioritySet(usbInHandler, prioBeacon + 10);
 200:main.c        ****     }
 201:main.c        ****     taskEXIT_CRITICAL();
 202:main.c        **** }
 203:main.c        **** 
 204:main.c        **** static void dummy_task( void *arg ){
 107              		.loc 1 204 0
 108              		.cfi_startproc
 109              		@ args = 0, pretend = 0, frame = 0
 110              		@ frame_needed = 0, uses_anonymous_args = 0
 111              	.LVL3:
 112 0000 10B5     		push	{r4, lr}
 113              		.cfi_def_cfa_offset 8
 114              		.cfi_offset 4, -8
 115              		.cfi_offset 14, -4
 116              	.LVL4:
 117              	.L11:
 205:main.c        ****     (void) *arg;
 206:main.c        ****     for(;;)
 207:main.c        ****     {
 208:main.c        ****         GPIOJ11_Write(1u);
 118              		.loc 1 208 0
 119 0002 0120     		movs	r0, #1
 120 0004 FFF7FEFF 		bl	GPIOJ11_Write
 121              	.LVL5:
 122              	.LBB2:
 209:main.c        **** 
 210:main.c        ****         for (int i=0; i<10000;i++){
 123              		.loc 1 210 0
 124 0008 0024     		movs	r4, #0
 125 000a 07E0     		b	.L9
 126              	.LVL6:
ARM GAS  C:\Users\PIERRE~1\AppData\Local\Temp\ccWV16Vr.s 			page 7


 127              	.L10:
 211:main.c        ****             GPIOJ11_Write(!GPIOJ11_Read());
 128              		.loc 1 211 0 discriminator 3
 129 000c FFF7FEFF 		bl	GPIOJ11_Read
 130              	.LVL7:
 131 0010 B0FA80F0 		clz	r0, r0
 132 0014 4009     		lsrs	r0, r0, #5
 133 0016 FFF7FEFF 		bl	GPIOJ11_Write
 134              	.LVL8:
 210:main.c        ****             GPIOJ11_Write(!GPIOJ11_Read());
 135              		.loc 1 210 0 discriminator 3
 136 001a 0134     		adds	r4, r4, #1
 137              	.LVL9:
 138              	.L9:
 210:main.c        ****             GPIOJ11_Write(!GPIOJ11_Read());
 139              		.loc 1 210 0 is_stmt 0 discriminator 1
 140 001c 42F20F73 		movw	r3, #9999
 141 0020 9C42     		cmp	r4, r3
 142 0022 F3DD     		ble	.L10
 143              	.LBE2:
 212:main.c        ****         }
 213:main.c        **** 
 214:main.c        ****         GPIOJ11_Write(0);
 144              		.loc 1 214 0 is_stmt 1
 145 0024 0020     		movs	r0, #0
 146 0026 FFF7FEFF 		bl	GPIOJ11_Write
 147              	.LVL10:
 215:main.c        ****     }
 148              		.loc 1 215 0
 149 002a EAE7     		b	.L11
 150              		.cfi_endproc
 151              	.LFE75:
 152              		.size	dummy_task, .-dummy_task
 153              		.section	.text.change_priorities,"ax",%progbits
 154              		.align	2
 155              		.thumb
 156              		.thumb_func
 157              		.type	change_priorities, %function
 158              	change_priorities:
 159              	.LFB74:
 187:main.c        ****     taskENTER_CRITICAL();
 160              		.loc 1 187 0
 161              		.cfi_startproc
 162              		@ args = 0, pretend = 0, frame = 0
 163              		@ frame_needed = 0, uses_anonymous_args = 0
 164              	.LVL11:
 165 0000 10B5     		push	{r4, lr}
 166              		.cfi_def_cfa_offset 8
 167              		.cfi_offset 4, -8
 168              		.cfi_offset 14, -4
 169 0002 0446     		mov	r4, r0
 188:main.c        ****     if(num == -1){
 170              		.loc 1 188 0
 171 0004 FFF7FEFF 		bl	vPortEnterCritical
 172              	.LVL12:
 189:main.c        ****         vTaskPrioritySet(taskHandler1, prioBeacon);
 173              		.loc 1 189 0
ARM GAS  C:\Users\PIERRE~1\AppData\Local\Temp\ccWV16Vr.s 			page 8


 174 0008 B4F1FF3F 		cmp	r4, #-1
 175 000c 1CD1     		bne	.L14
 190:main.c        ****         vTaskPrioritySet(taskHandler2, prioBeacon);
 176              		.loc 1 190 0
 177 000e 154C     		ldr	r4, .L17
 178              	.LVL13:
 179 0010 2178     		ldrb	r1, [r4]	@ zero_extendqisi2
 180 0012 154B     		ldr	r3, .L17+4
 181 0014 1868     		ldr	r0, [r3]
 182 0016 FFF7FEFF 		bl	vTaskPrioritySet
 183              	.LVL14:
 191:main.c        ****         vTaskPrioritySet(taskHandler3, prioBeacon);
 184              		.loc 1 191 0
 185 001a 2178     		ldrb	r1, [r4]	@ zero_extendqisi2
 186 001c 134B     		ldr	r3, .L17+8
 187 001e 1868     		ldr	r0, [r3]
 188 0020 FFF7FEFF 		bl	vTaskPrioritySet
 189              	.LVL15:
 192:main.c        ****         if(NUMBER_OF_ANCHOR > 3){
 190              		.loc 1 192 0
 191 0024 2178     		ldrb	r1, [r4]	@ zero_extendqisi2
 192 0026 124B     		ldr	r3, .L17+12
 193 0028 1868     		ldr	r0, [r3]
 194 002a FFF7FEFF 		bl	vTaskPrioritySet
 195              	.LVL16:
 196:main.c        ****         vTaskPrioritySet(usbInHandler, prioBeacon - 11);
 196              		.loc 1 196 0
 197 002e 2178     		ldrb	r1, [r4]	@ zero_extendqisi2
 198 0030 0A39     		subs	r1, r1, #10
 199 0032 104B     		ldr	r3, .L17+16
 200 0034 1868     		ldr	r0, [r3]
 201 0036 FFF7FEFF 		bl	vTaskPrioritySet
 202              	.LVL17:
 197:main.c        ****     }else if(num == -2){
 203              		.loc 1 197 0
 204 003a 2178     		ldrb	r1, [r4]	@ zero_extendqisi2
 205 003c 0B39     		subs	r1, r1, #11
 206 003e 0E4B     		ldr	r3, .L17+20
 207 0040 1868     		ldr	r0, [r3]
 208 0042 FFF7FEFF 		bl	vTaskPrioritySet
 209              	.LVL18:
 210 0046 09E0     		b	.L15
 211              	.LVL19:
 212              	.L14:
 198:main.c        ****         vTaskPrioritySet(usbInHandler, prioBeacon + 10);
 213              		.loc 1 198 0
 214 0048 14F1020F 		cmn	r4, #2
 215 004c 06D1     		bne	.L15
 199:main.c        ****     }
 216              		.loc 1 199 0
 217 004e 054B     		ldr	r3, .L17
 218 0050 1978     		ldrb	r1, [r3]	@ zero_extendqisi2
 219 0052 0A31     		adds	r1, r1, #10
 220 0054 084B     		ldr	r3, .L17+20
 221 0056 1868     		ldr	r0, [r3]
 222 0058 FFF7FEFF 		bl	vTaskPrioritySet
 223              	.LVL20:
ARM GAS  C:\Users\PIERRE~1\AppData\Local\Temp\ccWV16Vr.s 			page 9


 224              	.L15:
 201:main.c        **** }
 225              		.loc 1 201 0
 226 005c FFF7FEFF 		bl	vPortExitCritical
 227              	.LVL21:
 228 0060 10BD     		pop	{r4, pc}
 229              	.L18:
 230 0062 00BF     		.align	2
 231              	.L17:
 232 0064 00000000 		.word	.LANCHOR1
 233 0068 00000000 		.word	taskHandler1
 234 006c 00000000 		.word	taskHandler2
 235 0070 00000000 		.word	taskHandler3
 236 0074 00000000 		.word	usbOutHandler
 237 0078 00000000 		.word	usbInHandler
 238              		.cfi_endproc
 239              	.LFE74:
 240              		.size	change_priorities, .-change_priorities
 241              		.section	.text.usb_in,"ax",%progbits
 242              		.align	2
 243              		.thumb
 244              		.thumb_func
 245              		.type	usb_in, %function
 246              	usb_in:
 247              	.LFB73:
 161:main.c        ****     (void) *arg;
 248              		.loc 1 161 0
 249              		.cfi_startproc
 250              		@ Volatile: function does not return.
 251              		@ args = 0, pretend = 0, frame = 0
 252              		@ frame_needed = 0, uses_anonymous_args = 0
 253              	.LVL22:
 254 0000 08B5     		push	{r3, lr}
 255              		.cfi_def_cfa_offset 8
 256              		.cfi_offset 3, -8
 257              		.cfi_offset 14, -4
 258              	.LVL23:
 259              	.L20:
 164:main.c        ****         if(xSemaphoreTake(semaphoreBuf1, 5) == pdPASS){
 260              		.loc 1 164 0
 261 0002 0120     		movs	r0, #1
 262 0004 FFF7FEFF 		bl	CyDelay
 263              	.LVL24:
 165:main.c        ****             GPIOJ14_Write(!GPIOJ14_Read());
 264              		.loc 1 165 0
 265 0008 0521     		movs	r1, #5
 266 000a 264B     		ldr	r3, .L27
 267 000c 1868     		ldr	r0, [r3]
 268 000e FFF7FEFF 		bl	xQueueSemaphoreTake
 269              	.LVL25:
 270 0012 0128     		cmp	r0, #1
 271 0014 F5D1     		bne	.L20
 166:main.c        ****             USBP_EnableOutEP(2);
 272              		.loc 1 166 0
 273 0016 FFF7FEFF 		bl	GPIOJ14_Read
 274              	.LVL26:
 275 001a B0FA80F0 		clz	r0, r0
ARM GAS  C:\Users\PIERRE~1\AppData\Local\Temp\ccWV16Vr.s 			page 10


 276 001e 4009     		lsrs	r0, r0, #5
 277 0020 FFF7FEFF 		bl	GPIOJ14_Write
 278              	.LVL27:
 167:main.c        ****             while(USBP_bGetEPAckState(2)==USBP_OUT_BUFFER_EMPTY)
 279              		.loc 1 167 0
 280 0024 0220     		movs	r0, #2
 281 0026 FFF7FEFF 		bl	USBP_EnableOutEP
 282              	.LVL28:
 168:main.c        ****             number_bytes_receive=USBP_GetEPCount(2);
 283              		.loc 1 168 0
 284 002a 04E0     		b	.L21
 285              	.L22:
 169:main.c        ****             USBP_ReadOutEP(2,RxPhoneData,number_bytes_receive);
 286              		.loc 1 169 0
 287 002c 0220     		movs	r0, #2
 288 002e FFF7FEFF 		bl	USBP_GetEPCount
 289              	.LVL29:
 290 0032 1D4B     		ldr	r3, .L27+4
 291 0034 9880     		strh	r0, [r3, #4]	@ movhi
 292              	.L21:
 168:main.c        ****             number_bytes_receive=USBP_GetEPCount(2);
 293              		.loc 1 168 0
 294 0036 0220     		movs	r0, #2
 295 0038 FFF7FEFF 		bl	USBP_GetEPAckState
 296              	.LVL30:
 297 003c 0028     		cmp	r0, #0
 298 003e F5D0     		beq	.L22
 170:main.c        ****             USBP_DisableOutEP(2);
 299              		.loc 1 170 0
 300 0040 1A4C     		ldr	r4, .L27+8
 301 0042 194B     		ldr	r3, .L27+4
 302 0044 9A88     		ldrh	r2, [r3, #4]
 303 0046 2146     		mov	r1, r4
 304 0048 0220     		movs	r0, #2
 305 004a FFF7FEFF 		bl	USBP_ReadOutEP
 306              	.LVL31:
 171:main.c        ****             if(RxPhoneData[0]==0x04 && RxPhoneData[1]==0x06){   //test connection
 307              		.loc 1 171 0
 308 004e 0220     		movs	r0, #2
 309 0050 FFF7FEFF 		bl	USBP_DisableOutEP
 310              	.LVL32:
 172:main.c        ****                 TxPhoneData[0]=0x02;
 311              		.loc 1 172 0
 312 0054 2378     		ldrb	r3, [r4]	@ zero_extendqisi2
 313 0056 042B     		cmp	r3, #4
 314 0058 10D1     		bne	.L23
 172:main.c        ****                 TxPhoneData[0]=0x02;
 315              		.loc 1 172 0 is_stmt 0 discriminator 1
 316 005a 6378     		ldrb	r3, [r4, #1]	@ zero_extendqisi2
 317 005c 062B     		cmp	r3, #6
 318 005e 0DD1     		bne	.L23
 173:main.c        ****                 TxPhoneData[1]=0x03;
 319              		.loc 1 173 0 is_stmt 1
 320 0060 1349     		ldr	r1, .L27+12
 321 0062 0223     		movs	r3, #2
 322 0064 0B70     		strb	r3, [r1]
 174:main.c        ****                 TxPhoneData[2]=0x46;
ARM GAS  C:\Users\PIERRE~1\AppData\Local\Temp\ccWV16Vr.s 			page 11


 323              		.loc 1 174 0
 324 0066 0323     		movs	r3, #3
 325 0068 4B70     		strb	r3, [r1, #1]
 175:main.c        ****                 TxPhoneData[3]=0x37;
 326              		.loc 1 175 0
 327 006a 4623     		movs	r3, #70
 328 006c 8B70     		strb	r3, [r1, #2]
 176:main.c        ****                 USBP_LoadInEP(1,TxPhoneData,4);
 329              		.loc 1 176 0
 330 006e 3723     		movs	r3, #55
 331 0070 CB70     		strb	r3, [r1, #3]
 177:main.c        ****             }else{
 332              		.loc 1 177 0
 333 0072 0422     		movs	r2, #4
 334 0074 0120     		movs	r0, #1
 335 0076 FFF7FEFF 		bl	USBP_LoadInEP
 336              	.LVL33:
 337 007a 03E0     		b	.L24
 338              	.L23:
 179:main.c        ****             }
 339              		.loc 1 179 0
 340 007c 4FF0FF30 		mov	r0, #-1
 341 0080 FFF7FEFF 		bl	change_priorities
 342              	.LVL34:
 343              	.L24:
 181:main.c        ****             xSemaphoreGive(semaphoreBuf1);
 344              		.loc 1 181 0
 345 0084 FFF7FEFF 		bl	GPIOJ14_Read
 346              	.LVL35:
 347 0088 B0FA80F0 		clz	r0, r0
 348 008c 4009     		lsrs	r0, r0, #5
 349 008e FFF7FEFF 		bl	GPIOJ14_Write
 350              	.LVL36:
 182:main.c        ****         }else{}
 351              		.loc 1 182 0
 352 0092 0023     		movs	r3, #0
 353 0094 1A46     		mov	r2, r3
 354 0096 1946     		mov	r1, r3
 355 0098 0248     		ldr	r0, .L27
 356 009a 0068     		ldr	r0, [r0]
 357 009c FFF7FEFF 		bl	xQueueGenericSend
 358              	.LVL37:
 359 00a0 AFE7     		b	.L20
 360              	.L28:
 361 00a2 00BF     		.align	2
 362              	.L27:
 363 00a4 00000000 		.word	semaphoreBuf1
 364 00a8 00000000 		.word	.LANCHOR0
 365 00ac 00000000 		.word	RxPhoneData
 366 00b0 00000000 		.word	TxPhoneData
 367              		.cfi_endproc
 368              	.LFE73:
 369              		.size	usb_in, .-usb_in
 370              		.section	.text.usb_out,"ax",%progbits
 371              		.align	2
 372              		.thumb
 373              		.thumb_func
ARM GAS  C:\Users\PIERRE~1\AppData\Local\Temp\ccWV16Vr.s 			page 12


 374              		.type	usb_out, %function
 375              	usb_out:
 376              	.LFB72:
 138:main.c        **** 
 377              		.loc 1 138 0
 378              		.cfi_startproc
 379              		@ args = 0, pretend = 0, frame = 0
 380              		@ frame_needed = 0, uses_anonymous_args = 0
 381              	.LVL38:
 382 0000 70B5     		push	{r4, r5, r6, lr}
 383              		.cfi_def_cfa_offset 16
 384              		.cfi_offset 4, -16
 385              		.cfi_offset 5, -12
 386              		.cfi_offset 6, -8
 387              		.cfi_offset 14, -4
 388              	.LVL39:
 389              	.L30:
 143:main.c        ****         if(xSemaphoreTake(semaphoreBuf1, 5) == pdPASS){
 390              		.loc 1 143 0
 391 0002 0120     		movs	r0, #1
 392 0004 FFF7FEFF 		bl	CyDelay
 393              	.LVL40:
 144:main.c        ****             GPIOJ13_Write(!GPIOJ13_Read());
 394              		.loc 1 144 0
 395 0008 0521     		movs	r1, #5
 396 000a 1F4B     		ldr	r3, .L35
 397 000c 1868     		ldr	r0, [r3]
 398 000e FFF7FEFF 		bl	xQueueSemaphoreTake
 399              	.LVL41:
 400 0012 0128     		cmp	r0, #1
 401 0014 F5D1     		bne	.L30
 145:main.c        ****             for(int i=0;i<12;i++){                  // Preparation of data
 402              		.loc 1 145 0
 403 0016 FFF7FEFF 		bl	GPIOJ13_Read
 404              	.LVL42:
 405 001a B0FA80F0 		clz	r0, r0
 406 001e 4009     		lsrs	r0, r0, #5
 407 0020 FFF7FEFF 		bl	GPIOJ13_Write
 408              	.LVL43:
 409              	.LBB3:
 146:main.c        ****                 TxPhoneData[5*i]=all_clock_time[i];       
 410              		.loc 1 146 0
 411 0024 0021     		movs	r1, #0
 412 0026 14E0     		b	.L31
 413              	.LVL44:
 414              	.L32:
 147:main.c        ****                 TxPhoneData[5*i+1]=all_clock_time[i]>>8;       
 415              		.loc 1 147 0 discriminator 3
 416 0028 01EB8103 		add	r3, r1, r1, lsl #2
 417 002c 1748     		ldr	r0, .L35+4
 418 002e 00EBC100 		add	r0, r0, r1, lsl #3
 419 0032 8268     		ldr	r2, [r0, #8]
 420 0034 C468     		ldr	r4, [r0, #12]
 421 0036 1648     		ldr	r0, .L35+8
 422 0038 C254     		strb	r2, [r0, r3]
 148:main.c        ****                 TxPhoneData[5*i+2]=all_clock_time[i]>>16;       
 423              		.loc 1 148 0 discriminator 3
ARM GAS  C:\Users\PIERRE~1\AppData\Local\Temp\ccWV16Vr.s 			page 13


 424 003a 5D1C     		adds	r5, r3, #1
 425 003c 160A     		lsrs	r6, r2, #8
 426 003e 4655     		strb	r6, [r0, r5]
 149:main.c        ****                 TxPhoneData[5*i+3]=all_clock_time[i]>>24;       
 427              		.loc 1 149 0 discriminator 3
 428 0040 9D1C     		adds	r5, r3, #2
 429 0042 160C     		lsrs	r6, r2, #16
 430 0044 4655     		strb	r6, [r0, r5]
 150:main.c        ****                 TxPhoneData[5*i+4]=all_clock_time[i]>>32;
 431              		.loc 1 150 0 discriminator 3
 432 0046 DD1C     		adds	r5, r3, #3
 433 0048 120E     		lsrs	r2, r2, #24
 434 004a 4255     		strb	r2, [r0, r5]
 151:main.c        ****             }
 435              		.loc 1 151 0 discriminator 3
 436 004c 0433     		adds	r3, r3, #4
 437 004e C454     		strb	r4, [r0, r3]
 146:main.c        ****                 TxPhoneData[5*i]=all_clock_time[i];       
 438              		.loc 1 146 0 discriminator 3
 439 0050 0131     		adds	r1, r1, #1
 440              	.LVL45:
 441              	.L31:
 146:main.c        ****                 TxPhoneData[5*i]=all_clock_time[i];       
 442              		.loc 1 146 0 is_stmt 0 discriminator 1
 443 0052 0B29     		cmp	r1, #11
 444 0054 E8DD     		ble	.L32
 445              	.LBE3:
 153:main.c        ****             GPIOJ13_Write(!GPIOJ13_Read());
 446              		.loc 1 153 0 is_stmt 1
 447 0056 3F22     		movs	r2, #63
 448 0058 0D49     		ldr	r1, .L35+8
 449              	.LVL46:
 450 005a 0120     		movs	r0, #1
 451 005c FFF7FEFF 		bl	USBP_LoadInEP
 452              	.LVL47:
 154:main.c        ****             change_priorities(-2);
 453              		.loc 1 154 0
 454 0060 FFF7FEFF 		bl	GPIOJ13_Read
 455              	.LVL48:
 456 0064 B0FA80F0 		clz	r0, r0
 457 0068 4009     		lsrs	r0, r0, #5
 458 006a FFF7FEFF 		bl	GPIOJ13_Write
 459              	.LVL49:
 155:main.c        ****             xSemaphoreGive(semaphoreBuf1);
 460              		.loc 1 155 0
 461 006e 6FF00100 		mvn	r0, #1
 462 0072 FFF7FEFF 		bl	change_priorities
 463              	.LVL50:
 156:main.c        ****         }else{}
 464              		.loc 1 156 0
 465 0076 0023     		movs	r3, #0
 466 0078 1A46     		mov	r2, r3
 467 007a 1946     		mov	r1, r3
 468 007c 0248     		ldr	r0, .L35
 469 007e 0068     		ldr	r0, [r0]
 470 0080 FFF7FEFF 		bl	xQueueGenericSend
 471              	.LVL51:
ARM GAS  C:\Users\PIERRE~1\AppData\Local\Temp\ccWV16Vr.s 			page 14


 472 0084 BDE7     		b	.L30
 473              	.L36:
 474 0086 00BF     		.align	2
 475              	.L35:
 476 0088 00000000 		.word	semaphoreBuf1
 477 008c 00000000 		.word	.LANCHOR0
 478 0090 00000000 		.word	TxPhoneData
 479              		.cfi_endproc
 480              	.LFE72:
 481              		.size	usb_out, .-usb_out
 482              		.section	.text.state_machine_task,"ax",%progbits
 483              		.align	2
 484              		.thumb
 485              		.thumb_func
 486              		.type	state_machine_task, %function
 487              	state_machine_task:
 488              	.LFB77:
 216:main.c        **** }
 217:main.c        **** 
 218:main.c        **** 
 219:main.c        **** int main(void){
 220:main.c        **** 	LED_1_Write(LIGHT_OFF);
 221:main.c        ****     LED_2_Write(LIGHT_OFF);
 222:main.c        ****     LED_3_Write(LIGHT_OFF);
 223:main.c        ****     LED_4_Write(LIGHT_OFF);
 224:main.c        ****     
 225:main.c        ****     CyGlobalIntEnable;
 226:main.c        ****     
 227:main.c        ****     USBP_Start(0, USBP_DWR_VDDD_OPERATION);
 228:main.c        ****     
 229:main.c        ****     freeRTOSInit();
 230:main.c        ****     Timer_1_Start();
 231:main.c        ****     
 232:main.c        ****     /* initialisation of the DecaWave */
 233:main.c        ****     SPIM_Start();
 234:main.c        **** 	CyDelay(10u); //time for the DW to go from Wakeup to init and then IDLE
 235:main.c        **** 	DWM_Init();
 236:main.c        ****     
 237:main.c        ****     /* Sets up the GPIO interrupt and enables it */
 238:main.c        ****     IRQ_StartEx(ISR);
 239:main.c        ****     IRQ_SetPriority(ISR_PRIORITY);
 240:main.c        ****     while(!USBP_bGetConfiguration());
 241:main.c        ****     //initialize tasks (one for each slave + usb_out, usb_in)
 242:main.c        ****     irq_queue = xQueueCreate(10, sizeof(uint32_t));
 243:main.c        ****     Rx_q = xQueueCreate(1, sizeof(uint8_t));
 244:main.c        ****     Tx_q = xQueueCreate(1, sizeof(uint8_t));
 245:main.c        ****     semaphoreBuf1 = xSemaphoreCreateMutex();
 246:main.c        ****     
 247:main.c        ****     xTaskCreate(interrupt_routine, "interrupt_routine",512, NULL, INTERRUPT_PRIORITY, NULL);
 248:main.c        ****     int slaveNummer = 1;
 249:main.c        ****     TxPhoneData[60] = slaveNummer;
 250:main.c        ****     xTaskCreate(state_machine_task,"slave_1", 512, (void*) slaveNummer, 1, &taskHandler1);
 251:main.c        ****     slaveNummer = 2;
 252:main.c        ****     TxPhoneData[61] = slaveNummer;
 253:main.c        ****     xTaskCreate(state_machine_task,"slave_2", 512, (void*) slaveNummer, 1, &taskHandler2);
 254:main.c        ****     slaveNummer = 3;
 255:main.c        ****     TxPhoneData[62] = slaveNummer;
ARM GAS  C:\Users\PIERRE~1\AppData\Local\Temp\ccWV16Vr.s 			page 15


 256:main.c        ****     xTaskCreate(state_machine_task,"slave_3", 512, (void*) slaveNummer, 1, &taskHandler3);
 257:main.c        ****     xTaskCreate(usb_out, "usb_out", 512, NULL, usb_out_prio, &usbOutHandler);
 258:main.c        ****     xTaskCreate(usb_in, "usb_in", 512, NULL, usb_in_prio, &usbInHandler);
 259:main.c        ****     xTaskCreate(dummy_task, "dummy_task", 100, NULL, DUMMY_PRIO, &dummyHandler);//!!! stack size
 260:main.c        ****     vTaskStartScheduler();
 261:main.c        ****     for(;;){
 262:main.c        ****     }
 263:main.c        **** }
 264:main.c        ****     
 265:main.c        **** static void state_machine_task(void *arg){	
 489              		.loc 1 265 0
 490              		.cfi_startproc
 491              		@ args = 0, pretend = 0, frame = 320
 492              		@ frame_needed = 0, uses_anonymous_args = 0
 493              	.LVL52:
 494 0000 2DE9F04F 		push	{r4, r5, r6, r7, r8, r9, r10, fp, lr}
 495              		.cfi_def_cfa_offset 36
 496              		.cfi_offset 4, -36
 497              		.cfi_offset 5, -32
 498              		.cfi_offset 6, -28
 499              		.cfi_offset 7, -24
 500              		.cfi_offset 8, -20
 501              		.cfi_offset 9, -16
 502              		.cfi_offset 10, -12
 503              		.cfi_offset 11, -8
 504              		.cfi_offset 14, -4
 505 0004 D1B0     		sub	sp, sp, #324
 506              		.cfi_def_cfa_offset 360
 266:main.c        **** 	uint8_t slaveNummer = (uint8_t) arg;
 507              		.loc 1 266 0
 508 0006 C3B2     		uxtb	r3, r0
 509              	.LVL53:
 267:main.c        ****     uint8_t master_first_message = 0x10 | slaveNummer;
 510              		.loc 1 267 0
 511 0008 43F01002 		orr	r2, r3, #16
 512 000c 1592     		str	r2, [sp, #84]
 513              	.LVL54:
 268:main.c        ****     uint8_t master_second_message	= 0x20 | slaveNummer;
 514              		.loc 1 268 0
 515 000e 43F02002 		orr	r2, r3, #32
 516 0012 1692     		str	r2, [sp, #88]
 517              	.LVL55:
 518 0014 1793     		str	r3, [sp, #92]
 269:main.c        ****     uint8_t slave_standard_message	= 0x0A | slaveNummer<<4;
 519              		.loc 1 269 0
 520 0016 0301     		lsls	r3, r0, #4
 521              	.LVL56:
 522 0018 03F47F63 		and	r3, r3, #4080
 523 001c 43F00A03 		orr	r3, r3, #10
 524 0020 DBB2     		uxtb	r3, r3
 525 0022 1C93     		str	r3, [sp, #112]
 526              	.LVL57:
 270:main.c        ****     uint32_t RxFlag,TxFlag;
 271:main.c        ****     uint8_t RxData[15], TxData[128];
 272:main.c        ****     uint64_t t1, t2, t3, t4, t5, t6;
 273:main.c        ****     uint8_t t1_8[5], t2_8[5], t3_8[5], t4_8[5], t5_8[5], t6_8[5];
 274:main.c        ****     uint64_t TroundMaster, TreplySlave, TroundSlave, TreplyMaster;
ARM GAS  C:\Users\PIERRE~1\AppData\Local\Temp\ccWV16Vr.s 			page 16


 275:main.c        ****     state = STATE_INIT;
 527              		.loc 1 275 0
 528 0024 0022     		movs	r2, #0
 529 0026 954B     		ldr	r3, .L70
 530 0028 1A70     		strb	r2, [r3]
 531              	.LVL58:
 276:main.c        ****     uint8_t counter = 5;
 532              		.loc 1 276 0
 533 002a 0523     		movs	r3, #5
 534 002c 1D93     		str	r3, [sp, #116]
 535              	.LVL59:
 536              	.L40:
 277:main.c        **** 	for(;;){
 278:main.c        ****         a:      //label
 279:main.c        ****         CyDelay(1); //without this, semaphore can sometimes be taken by 2 anchors at the same time
 537              		.loc 1 279 0
 538 002e 0120     		movs	r0, #1
 539 0030 FFF7FEFF 		bl	CyDelay
 540              	.LVL60:
 280:main.c        ****         if(xSemaphoreTake(semaphoreBuf1, 5) == pdPASS){
 541              		.loc 1 280 0
 542 0034 0521     		movs	r1, #5
 543 0036 924B     		ldr	r3, .L70+4
 544 0038 1868     		ldr	r0, [r3]
 545 003a FFF7FEFF 		bl	xQueueSemaphoreTake
 546              	.LVL61:
 547 003e 0128     		cmp	r0, #1
 548 0040 F5D1     		bne	.L40
 281:main.c        ****             vTaskPrioritySet(NULL, 25);
 549              		.loc 1 281 0
 550 0042 1921     		movs	r1, #25
 551 0044 0020     		movs	r0, #0
 552 0046 FFF7FEFF 		bl	vTaskPrioritySet
 553              	.LVL62:
 554              	.L42:
 282:main.c        ****             
 283:main.c        ****             for(;;){
 284:main.c        ****                 GPIOJ12_Write(1u);
 555              		.loc 1 284 0
 556 004a 0120     		movs	r0, #1
 557 004c FFF7FEFF 		bl	GPIOJ12_Write
 558              	.LVL63:
 285:main.c        ****                 switch(state){
 559              		.loc 1 285 0
 560 0050 8A4B     		ldr	r3, .L70
 561 0052 1B78     		ldrb	r3, [r3]	@ zero_extendqisi2
 562 0054 062B     		cmp	r3, #6
 563 0056 F8D8     		bhi	.L42
 564 0058 DFE813F0 		tbh	[pc, r3, lsl #1]
 565              	.L44:
 566 005c 0700     		.2byte	(.L43-.L44)/2
 567 005e 2600     		.2byte	(.L45-.L44)/2
 568 0060 4300     		.2byte	(.L46-.L44)/2
 569 0062 9D00     		.2byte	(.L47-.L44)/2
 570 0064 AA00     		.2byte	(.L48-.L44)/2
 571 0066 C800     		.2byte	(.L49-.L44)/2
 572 0068 CD01     		.2byte	(.L50-.L44)/2
ARM GAS  C:\Users\PIERRE~1\AppData\Local\Temp\ccWV16Vr.s 			page 17


 573              		.p2align 1
 574              	.L43:
 286:main.c        ****         			case STATE_INIT :
 287:main.c        ****         				TxOk = 0;
 575              		.loc 1 287 0
 576 006a 864D     		ldr	r5, .L70+8
 577 006c 0024     		movs	r4, #0
 578 006e 85F86840 		strb	r4, [r5, #104]
 288:main.c        ****                         TxOk = 0;
 289:main.c        ****                         RxState = 0;
 579              		.loc 1 289 0
 580 0072 85F86940 		strb	r4, [r5, #105]
 290:main.c        ****                         RxFlag=0;
 581              		.loc 1 290 0
 582 0076 4F94     		str	r4, [sp, #316]
 291:main.c        ****         		        TxFlag=0;
 583              		.loc 1 291 0
 584 0078 4E94     		str	r4, [sp, #312]
 292:main.c        ****                         idle();
 585              		.loc 1 292 0
 586 007a FFF7FEFF 		bl	idle
 587              	.LVL64:
 293:main.c        ****                         xQueueReset(Rx_q);
 588              		.loc 1 293 0
 589 007e 2146     		mov	r1, r4
 590 0080 E86E     		ldr	r0, [r5, #108]
 591 0082 FFF7FEFF 		bl	xQueueGenericReset
 592              	.LVL65:
 294:main.c        ****         		        xQueueReset(Tx_q);
 593              		.loc 1 294 0
 594 0086 2146     		mov	r1, r4
 595 0088 286F     		ldr	r0, [r5, #112]
 596 008a FFF7FEFF 		bl	xQueueGenericReset
 597              	.LVL66:
 295:main.c        ****                         TxData[0] = master_first_message;
 598              		.loc 1 295 0
 599 008e 50A8     		add	r0, sp, #320
 600 0090 9DF85430 		ldrb	r3, [sp, #84]	@ zero_extendqisi2
 601 0094 00F8983D 		strb	r3, [r0, #-152]!
 296:main.c        ****                         DWM_SendData(TxData,1,1);
 602              		.loc 1 296 0
 603 0098 0122     		movs	r2, #1
 604 009a 1146     		mov	r1, r2
 605 009c FFF7FEFF 		bl	DWM_SendData
 606              	.LVL67:
 297:main.c        ****         				state = STATE_WAIT_FIRST_SEND;
 607              		.loc 1 297 0
 608 00a0 0122     		movs	r2, #1
 609 00a2 764B     		ldr	r3, .L70
 610 00a4 1A70     		strb	r2, [r3]
 298:main.c        ****         			break;
 611              		.loc 1 298 0
 612 00a6 D0E7     		b	.L42
 613              	.L45:
 299:main.c        ****                             
 300:main.c        ****         			case STATE_WAIT_FIRST_SEND :
 301:main.c        ****                         if (xQueueReceive(Tx_q,&TxFlag,portMAX_DELAY)){
ARM GAS  C:\Users\PIERRE~1\AppData\Local\Temp\ccWV16Vr.s 			page 18


 614              		.loc 1 301 0
 615 00a8 4FF0FF32 		mov	r2, #-1
 616 00ac 4EA9     		add	r1, sp, #312
 617 00ae 754B     		ldr	r3, .L70+8
 618 00b0 186F     		ldr	r0, [r3, #112]
 619 00b2 FFF7FEFF 		bl	xQueueReceive
 620              	.LVL68:
 621 00b6 0028     		cmp	r0, #0
 622 00b8 C7D0     		beq	.L42
 302:main.c        ****         					DWM_ReadSPI_ext(TX_TIME, NO_SUB, t1_8, 5);//get tx time (T1)
 623              		.loc 1 302 0
 624 00ba 0523     		movs	r3, #5
 625 00bc 28AA     		add	r2, sp, #160
 626 00be 4FF6FF71 		movw	r1, #65535
 627 00c2 1720     		movs	r0, #23
 628 00c4 FFF7FEFF 		bl	DWM_ReadSPI_ext
 629              	.LVL69:
 303:main.c        ****         					TxFlag = 0;
 630              		.loc 1 303 0
 631 00c8 0023     		movs	r3, #0
 632 00ca 4E93     		str	r3, [sp, #312]
 304:main.c        ****                             TxOk = 0;
 633              		.loc 1 304 0
 634 00cc 6D4A     		ldr	r2, .L70+8
 635 00ce 82F86830 		strb	r3, [r2, #104]
 305:main.c        ****                             idle();
 636              		.loc 1 305 0
 637 00d2 FFF7FEFF 		bl	idle
 638              	.LVL70:
 306:main.c        ****                             DWM_Enable_Rx();
 639              		.loc 1 306 0
 640 00d6 FFF7FEFF 		bl	DWM_Enable_Rx
 641              	.LVL71:
 307:main.c        ****                             state = STATE_WAIT_RESPONSE;
 642              		.loc 1 307 0
 643 00da 0222     		movs	r2, #2
 644 00dc 674B     		ldr	r3, .L70
 645 00de 1A70     		strb	r2, [r3]
 646 00e0 B3E7     		b	.L42
 647              	.L46:
 308:main.c        ****         				}
 309:main.c        ****         			break;
 310:main.c        ****                             
 311:main.c        ****         			case STATE_WAIT_RESPONSE:
 312:main.c        ****                         if(xQueueReceive(Rx_q,&RxFlag,32) == pdPASS ){  //5 ou 32 mais pas 20
 648              		.loc 1 312 0
 649 00e2 2022     		movs	r2, #32
 650 00e4 4FA9     		add	r1, sp, #316
 651 00e6 674B     		ldr	r3, .L70+8
 652 00e8 D86E     		ldr	r0, [r3, #108]
 653 00ea FFF7FEFF 		bl	xQueueReceive
 654              	.LVL72:
 655 00ee 0128     		cmp	r0, #1
 656 00f0 2AD1     		bne	.L52
 313:main.c        ****                             if (RxFlag == 2){
 657              		.loc 1 313 0
 658 00f2 4F9B     		ldr	r3, [sp, #316]
ARM GAS  C:\Users\PIERRE~1\AppData\Local\Temp\ccWV16Vr.s 			page 19


 659 00f4 022B     		cmp	r3, #2
 660 00f6 07D1     		bne	.L53
 314:main.c        ****                                 idle();
 661              		.loc 1 314 0
 662 00f8 FFF7FEFF 		bl	idle
 663              	.LVL73:
 315:main.c        ****         				        DWM_Reset_Rx();
 664              		.loc 1 315 0
 665 00fc FFF7FEFF 		bl	DWM_Reset_Rx
 666              	.LVL74:
 316:main.c        ****         				        state = STATE_INIT;
 667              		.loc 1 316 0
 668 0100 0022     		movs	r2, #0
 669 0102 5E4B     		ldr	r3, .L70
 670 0104 1A70     		strb	r2, [r3]
 671 0106 A0E7     		b	.L42
 672              	.L53:
 317:main.c        ****         			        } else if (RxFlag == 1){
 673              		.loc 1 317 0
 674 0108 012B     		cmp	r3, #1
 675 010a 9ED1     		bne	.L42
 318:main.c        ****         					    DWM_ReceiveData(RxData); 	// Read Rx buffer
 676              		.loc 1 318 0
 677 010c 4AA8     		add	r0, sp, #296
 678 010e FFF7FEFF 		bl	DWM_ReceiveData
 679              	.LVL75:
 319:main.c        ****         					    if (RxData[0] == slave_standard_message){   // Check RxFrame
 680              		.loc 1 319 0
 681 0112 9DF82831 		ldrb	r3, [sp, #296]	@ zero_extendqisi2
 682 0116 1C9A     		ldr	r2, [sp, #112]
 683 0118 9A42     		cmp	r2, r3
 684 011a 0CD1     		bne	.L54
 320:main.c        ****                                 DWM_ReadSPI_ext(RX_TIME,NO_SUB, t4_8,5);// get T4
 685              		.loc 1 320 0
 686 011c 0523     		movs	r3, #5
 687 011e 22AA     		add	r2, sp, #136
 688 0120 4FF6FF71 		movw	r1, #65535
 689 0124 1520     		movs	r0, #21
 690 0126 FFF7FEFF 		bl	DWM_ReadSPI_ext
 691              	.LVL76:
 321:main.c        ****         						state = STATE_SECOND_SEND;
 692              		.loc 1 321 0
 693 012a 0322     		movs	r2, #3
 694 012c 534B     		ldr	r3, .L70
 695 012e 1A70     		strb	r2, [r3]
 322:main.c        ****                                 idle();
 696              		.loc 1 322 0
 697 0130 FFF7FEFF 		bl	idle
 698              	.LVL77:
 699 0134 02E0     		b	.L55
 700              	.L54:
 323:main.c        ****         						}else{
 324:main.c        ****                                     state = STATE_INIT;
 701              		.loc 1 324 0
 702 0136 0022     		movs	r2, #0
 703 0138 504B     		ldr	r3, .L70
 704 013a 1A70     		strb	r2, [r3]
ARM GAS  C:\Users\PIERRE~1\AppData\Local\Temp\ccWV16Vr.s 			page 20


 705              	.L55:
 325:main.c        ****         						}
 326:main.c        ****         						RxFlag = 0;
 706              		.loc 1 326 0
 707 013c 0023     		movs	r3, #0
 708 013e 4F93     		str	r3, [sp, #316]
 327:main.c        ****                                 RxState = 0;
 709              		.loc 1 327 0
 710 0140 504A     		ldr	r2, .L70+8
 711 0142 82F86930 		strb	r3, [r2, #105]
 712 0146 80E7     		b	.L42
 713              	.L52:
 328:main.c        ****                             }
 329:main.c        ****         				}else{
 330:main.c        ****                             state = STATE_INIT;
 714              		.loc 1 330 0
 715 0148 0024     		movs	r4, #0
 716 014a 4C4B     		ldr	r3, .L70
 717 014c 1C70     		strb	r4, [r3]
 331:main.c        ****                             taskENTER_CRITICAL();
 718              		.loc 1 331 0
 719 014e FFF7FEFF 		bl	vPortEnterCritical
 720              	.LVL78:
 332:main.c        ****                             GPIOJ12_Write(0u);
 721              		.loc 1 332 0
 722 0152 2046     		mov	r0, r4
 723 0154 FFF7FEFF 		bl	GPIOJ12_Write
 724              	.LVL79:
 333:main.c        ****                             xSemaphoreGive(semaphoreBuf1);
 725              		.loc 1 333 0
 726 0158 2346     		mov	r3, r4
 727 015a 2246     		mov	r2, r4
 728 015c 2146     		mov	r1, r4
 729 015e 4848     		ldr	r0, .L70+4
 730 0160 0068     		ldr	r0, [r0]
 731 0162 FFF7FEFF 		bl	xQueueGenericSend
 732              	.LVL80:
 334:main.c        ****                             if(counter < 12){
 733              		.loc 1 334 0
 734 0166 1D9B     		ldr	r3, [sp, #116]
 735 0168 0B2B     		cmp	r3, #11
 736 016a 0BD8     		bhi	.L56
 335:main.c        ****                                 counter += 1;
 737              		.loc 1 335 0
 738 016c 0133     		adds	r3, r3, #1
 739 016e DBB2     		uxtb	r3, r3
 740 0170 1C46     		mov	r4, r3
 741 0172 1D93     		str	r3, [sp, #116]
 742              	.LVL81:
 336:main.c        ****                                 vTaskPrioritySet(NULL, uxTaskPriorityGet(NULL)-counter);
 743              		.loc 1 336 0
 744 0174 0020     		movs	r0, #0
 745 0176 FFF7FEFF 		bl	uxTaskPriorityGet
 746              	.LVL82:
 747 017a 011B     		subs	r1, r0, r4
 748 017c 0020     		movs	r0, #0
 749 017e FFF7FEFF 		bl	vTaskPrioritySet
ARM GAS  C:\Users\PIERRE~1\AppData\Local\Temp\ccWV16Vr.s 			page 21


 750              	.LVL83:
 751 0182 05E0     		b	.L57
 752              	.LVL84:
 753              	.L56:
 337:main.c        ****                             }else{ 
 338:main.c        ****                                 counter = 5;
 339:main.c        ****                                 vTaskPrioritySet(NULL, 5);
 754              		.loc 1 339 0
 755 0184 0521     		movs	r1, #5
 756 0186 0020     		movs	r0, #0
 757 0188 FFF7FEFF 		bl	vTaskPrioritySet
 758              	.LVL85:
 338:main.c        ****                                 vTaskPrioritySet(NULL, 5);
 759              		.loc 1 338 0
 760 018c 0523     		movs	r3, #5
 761 018e 1D93     		str	r3, [sp, #116]
 762              	.LVL86:
 763              	.L57:
 340:main.c        ****                             }
 341:main.c        ****                             taskEXIT_CRITICAL();
 764              		.loc 1 341 0
 765 0190 FFF7FEFF 		bl	vPortExitCritical
 766              	.LVL87:
 342:main.c        ****                             goto a;
 767              		.loc 1 342 0
 768 0194 4BE7     		b	.L40
 769              	.L47:
 343:main.c        ****                             
 344:main.c        ****                             
 345:main.c        ****                         }
 346:main.c        ****         			break;
 347:main.c        ****                             
 348:main.c        ****         			case STATE_SECOND_SEND:	
 349:main.c        ****                         
 350:main.c        ****         				TxData[0] = master_second_message;
 770              		.loc 1 350 0
 771 0196 50A8     		add	r0, sp, #320
 772 0198 9DF85830 		ldrb	r3, [sp, #88]	@ zero_extendqisi2
 773 019c 00F8983D 		strb	r3, [r0, #-152]!
 351:main.c        ****         				DWM_SendData(TxData, 1, 1);
 774              		.loc 1 351 0
 775 01a0 0122     		movs	r2, #1
 776 01a2 1146     		mov	r1, r2
 777 01a4 FFF7FEFF 		bl	DWM_SendData
 778              	.LVL88:
 352:main.c        ****         				state = STATE_WAIT_SECOND_SEND;
 779              		.loc 1 352 0
 780 01a8 0422     		movs	r2, #4
 781 01aa 344B     		ldr	r3, .L70
 782 01ac 1A70     		strb	r2, [r3]
 353:main.c        ****         			break;
 783              		.loc 1 353 0
 784 01ae 4CE7     		b	.L42
 785              	.L48:
 354:main.c        ****                             
 355:main.c        ****         			case STATE_WAIT_SECOND_SEND:
 356:main.c        ****                         if (xQueueReceive(Tx_q,&TxFlag,portMAX_DELAY)){
ARM GAS  C:\Users\PIERRE~1\AppData\Local\Temp\ccWV16Vr.s 			page 22


 786              		.loc 1 356 0
 787 01b0 4FF0FF32 		mov	r2, #-1
 788 01b4 4EA9     		add	r1, sp, #312
 789 01b6 334B     		ldr	r3, .L70+8
 790 01b8 186F     		ldr	r0, [r3, #112]
 791 01ba FFF7FEFF 		bl	xQueueReceive
 792              	.LVL89:
 793 01be 0028     		cmp	r0, #0
 794 01c0 3FF443AF 		beq	.L42
 357:main.c        ****         						DWM_ReadSPI_ext(TX_TIME, NO_SUB, t5_8, 5);	//get tx time (T5)
 795              		.loc 1 357 0
 796 01c4 0523     		movs	r3, #5
 797 01c6 20AA     		add	r2, sp, #128
 798 01c8 4FF6FF71 		movw	r1, #65535
 799 01cc 1720     		movs	r0, #23
 800 01ce FFF7FEFF 		bl	DWM_ReadSPI_ext
 801              	.LVL90:
 358:main.c        ****                                 TxFlag =0;
 802              		.loc 1 358 0
 803 01d2 0023     		movs	r3, #0
 804 01d4 4E93     		str	r3, [sp, #312]
 359:main.c        ****                                 TxOk = 0;
 805              		.loc 1 359 0
 806 01d6 2B4A     		ldr	r2, .L70+8
 807 01d8 82F86830 		strb	r3, [r2, #104]
 360:main.c        ****                                 idle();
 808              		.loc 1 360 0
 809 01dc FFF7FEFF 		bl	idle
 810              	.LVL91:
 361:main.c        ****                                 DWM_Enable_Rx();
 811              		.loc 1 361 0
 812 01e0 FFF7FEFF 		bl	DWM_Enable_Rx
 813              	.LVL92:
 362:main.c        ****                                 state = STATE_GET_TIMES;
 814              		.loc 1 362 0
 815 01e4 0522     		movs	r2, #5
 816 01e6 254B     		ldr	r3, .L70
 817 01e8 1A70     		strb	r2, [r3]
 818 01ea 2EE7     		b	.L42
 819              	.L49:
 363:main.c        ****         				}
 364:main.c        ****         			break;
 365:main.c        ****                             
 366:main.c        ****         			case STATE_GET_TIMES :
 367:main.c        ****                         if(xQueueReceive(Rx_q,&RxFlag,32) == pdPASS ){ //5 ou 32 mais pas 20
 820              		.loc 1 367 0
 821 01ec 2022     		movs	r2, #32
 822 01ee 4FA9     		add	r1, sp, #316
 823 01f0 244B     		ldr	r3, .L70+8
 824 01f2 D86E     		ldr	r0, [r3, #108]
 825 01f4 FFF7FEFF 		bl	xQueueReceive
 826              	.LVL93:
 827 01f8 0128     		cmp	r0, #1
 828 01fa 40F0D580 		bne	.L58
 368:main.c        ****                             if (RxFlag == 2){
 829              		.loc 1 368 0
 830 01fe 4F9B     		ldr	r3, [sp, #316]
ARM GAS  C:\Users\PIERRE~1\AppData\Local\Temp\ccWV16Vr.s 			page 23


 831 0200 022B     		cmp	r3, #2
 832 0202 05D1     		bne	.L59
 369:main.c        ****             					DWM_Reset_Rx();
 833              		.loc 1 369 0
 834 0204 FFF7FEFF 		bl	DWM_Reset_Rx
 835              	.LVL94:
 370:main.c        ****             					state = STATE_INIT;
 836              		.loc 1 370 0
 837 0208 0022     		movs	r2, #0
 838 020a 1C4B     		ldr	r3, .L70
 839 020c 1A70     		strb	r2, [r3]
 840 020e C5E0     		b	.L60
 841              	.L59:
 371:main.c        ****             				} else if (RxFlag == 1){
 842              		.loc 1 371 0
 843 0210 012B     		cmp	r3, #1
 844 0212 40F0C380 		bne	.L60
 372:main.c        ****         						DWM_ReceiveData(RxData);	//Read Rx Buffer
 845              		.loc 1 372 0
 846 0216 4AA8     		add	r0, sp, #296
 847 0218 FFF7FEFF 		bl	DWM_ReceiveData
 848              	.LVL95:
 849              	.LBB4:
 373:main.c        ****         						for (int i=0;i<5;i++){
 850              		.loc 1 373 0
 851 021c 0023     		movs	r3, #0
 852 021e 14E0     		b	.L61
 853              	.LVL96:
 854              	.L62:
 374:main.c        ****         							t2_8[i] = RxData[i];
 855              		.loc 1 374 0 discriminator 3
 856 0220 50AA     		add	r2, sp, #320
 857 0222 1A44     		add	r2, r2, r3
 858 0224 12F8181C 		ldrb	r1, [r2, #-24]	@ zero_extendqisi2
 859 0228 02F8A81C 		strb	r1, [r2, #-168]
 375:main.c        ****         							t3_8[i] = RxData[i+5];
 860              		.loc 1 375 0 discriminator 3
 861 022c 591D     		adds	r1, r3, #5
 862 022e 50A8     		add	r0, sp, #320
 863 0230 0144     		add	r1, r1, r0
 864 0232 11F8181C 		ldrb	r1, [r1, #-24]	@ zero_extendqisi2
 865 0236 02F8B01C 		strb	r1, [r2, #-176]
 376:main.c        ****         							t6_8[i] = RxData[i+10];
 866              		.loc 1 376 0 discriminator 3
 867 023a 03F10A01 		add	r1, r3, #10
 868 023e 0144     		add	r1, r1, r0
 869 0240 11F8181C 		ldrb	r1, [r1, #-24]	@ zero_extendqisi2
 870 0244 02F8C81C 		strb	r1, [r2, #-200]
 373:main.c        ****         							t2_8[i] = RxData[i];
 871              		.loc 1 373 0 discriminator 3
 872 0248 0133     		adds	r3, r3, #1
 873              	.LVL97:
 874              	.L61:
 373:main.c        ****         							t2_8[i] = RxData[i];
 875              		.loc 1 373 0 is_stmt 0 discriminator 1
 876 024a 042B     		cmp	r3, #4
 877 024c E8DD     		ble	.L62
ARM GAS  C:\Users\PIERRE~1\AppData\Local\Temp\ccWV16Vr.s 			page 24


 878 024e 0022     		movs	r2, #0
 879 0250 0023     		movs	r3, #0
 880              	.LVL98:
 881 0252 0024     		movs	r4, #0
 882 0254 CDE90A34 		strd	r3, [sp, #40]
 883              	.LVL99:
 884 0258 CDE90E34 		strd	r3, [sp, #56]
 885              	.LVL100:
 886 025c 9946     		mov	r9, r3
 887              	.LVL101:
 888 025e A246     		mov	r10, r4
 889 0260 1E46     		mov	r6, r3
 890              	.LVL102:
 891 0262 2746     		mov	r7, r4
 892 0264 CDE90834 		strd	r3, [sp, #32]
 893              	.LVL103:
 894 0268 CDE90C34 		strd	r3, [sp, #48]
 895              	.LVL104:
 896 026c CDE9109A 		strd	r9, [sp, #64]
 897 0270 DDE91889 		ldrd	r8, [sp, #96]
 898 0274 DDE91ABC 		ldrd	fp, [sp, #104]
 899 0278 71E0     		b	.L63
 900              	.L71:
 901 027a 00BF     		.align	2
 902              	.L70:
 903 027c 00000000 		.word	state
 904 0280 00000000 		.word	semaphoreBuf1
 905 0284 00000000 		.word	.LANCHOR0
 906              	.LVL105:
 907              	.L64:
 908              	.LBE4:
 909              	.LBB5:
 377:main.c        ****         						}
 378:main.c        ****                                
 379:main.c        ****         						// Cast all times to uint64
 380:main.c        ****         						t1 = t2 = t3 = t4 = t5 = t6 = 0;
 381:main.c        ****         						for (int i=0;i<5;i++){
 382:main.c        ****         							t1 = (t1 << 8) | t1_8[4-i];
 910              		.loc 1 382 0 is_stmt 1 discriminator 3
 911 0288 DDE90C01 		ldrd	r0, [sp, #48]
 912 028c 4FEA0129 		lsl	r9, r1, #8
 913 0290 49EA1069 		orr	r9, r9, r0, lsr #24
 914 0294 4FEA0028 		lsl	r8, r0, #8
 915 0298 C2F10403 		rsb	r3, r2, #4
 916 029c 50A9     		add	r1, sp, #320
 917 029e 0B44     		add	r3, r3, r1
 918 02a0 13F8A04C 		ldrb	r4, [r3, #-160]	@ zero_extendqisi2
 919 02a4 0025     		movs	r5, #0
 920 02a6 48EA0400 		orr	r0, r8, r4
 921 02aa 49EA0501 		orr	r1, r9, r5
 922 02ae CDE90C01 		strd	r0, [sp, #48]
 923              	.LVL106:
 383:main.c        ****         							t2 = (t2 << 8) | t2_8[4-i];
 924              		.loc 1 383 0 discriminator 3
 925 02b2 DDE90801 		ldrd	r0, [sp, #32]
 926              	.LVL107:
 927 02b6 4FEA012C 		lsl	ip, r1, #8
ARM GAS  C:\Users\PIERRE~1\AppData\Local\Temp\ccWV16Vr.s 			page 25


 928 02ba 4CEA106C 		orr	ip, ip, r0, lsr #24
 929 02be 4FEA002B 		lsl	fp, r0, #8
 930 02c2 13F8A84C 		ldrb	r4, [r3, #-168]	@ zero_extendqisi2
 931 02c6 0025     		movs	r5, #0
 932 02c8 4BEA0400 		orr	r0, fp, r4
 933 02cc 4CEA0501 		orr	r1, ip, r5
 934 02d0 CDE90801 		strd	r0, [sp, #32]
 935              	.LVL108:
 384:main.c        ****         							t3 = (t3 << 8) | t3_8[4-i];
 936              		.loc 1 384 0 discriminator 3
 937 02d4 3C02     		lsls	r4, r7, #8
 938 02d6 44EA1664 		orr	r4, r4, r6, lsr #24
 939 02da 0194     		str	r4, [sp, #4]
 940 02dc 3402     		lsls	r4, r6, #8
 941 02de 0094     		str	r4, [sp]
 942 02e0 13F8B06C 		ldrb	r6, [r3, #-176]	@ zero_extendqisi2
 943              	.LVL109:
 944 02e4 0027     		movs	r7, #0
 945 02e6 DDE90045 		ldrd	r4, [sp]
 946 02ea 3443     		orrs	r4, r4, r6
 947 02ec 3D43     		orrs	r5, r5, r7
 948 02ee 2646     		mov	r6, r4
 949 02f0 2F46     		mov	r7, r5
 950              	.LVL110:
 385:main.c        ****         							t4 = (t4 << 8) | t4_8[4-i];
 951              		.loc 1 385 0 discriminator 3
 952 02f2 DDE91001 		ldrd	r0, [sp, #64]
 953              	.LVL111:
 954 02f6 0C02     		lsls	r4, r1, #8
 955 02f8 44EA1064 		orr	r4, r4, r0, lsr #24
 956 02fc 0394     		str	r4, [sp, #12]
 957 02fe 0402     		lsls	r4, r0, #8
 958 0300 0294     		str	r4, [sp, #8]
 959 0302 13F8B84C 		ldrb	r4, [r3, #-184]	@ zero_extendqisi2
 960 0306 0025     		movs	r5, #0
 961 0308 DDE90201 		ldrd	r0, [sp, #8]
 962 030c 2043     		orrs	r0, r0, r4
 963 030e 2943     		orrs	r1, r1, r5
 964 0310 CDE91001 		strd	r0, [sp, #64]
 965              	.LVL112:
 386:main.c        ****         							t5 = (t5 << 8) | t5_8[4-i];
 966              		.loc 1 386 0 discriminator 3
 967 0314 DDE90E01 		ldrd	r0, [sp, #56]
 968              	.LVL113:
 969 0318 0C02     		lsls	r4, r1, #8
 970 031a 44EA1064 		orr	r4, r4, r0, lsr #24
 971 031e 0594     		str	r4, [sp, #20]
 972 0320 0402     		lsls	r4, r0, #8
 973 0322 0494     		str	r4, [sp, #16]
 974 0324 13F8C04C 		ldrb	r4, [r3, #-192]	@ zero_extendqisi2
 975 0328 0025     		movs	r5, #0
 976 032a DDE90401 		ldrd	r0, [sp, #16]
 977 032e 2043     		orrs	r0, r0, r4
 978 0330 2943     		orrs	r1, r1, r5
 979 0332 CDE90E01 		strd	r0, [sp, #56]
 980              	.LVL114:
 387:main.c        ****         							t6 = (t6 << 8) | t6_8[4-i];
ARM GAS  C:\Users\PIERRE~1\AppData\Local\Temp\ccWV16Vr.s 			page 26


 981              		.loc 1 387 0 discriminator 3
 982 0336 DDE90A01 		ldrd	r0, [sp, #40]
 983              	.LVL115:
 984 033a 0C02     		lsls	r4, r1, #8
 985 033c 0794     		str	r4, [sp, #28]
 986 033e 079D     		ldr	r5, [sp, #28]
 987 0340 45EA1064 		orr	r4, r5, r0, lsr #24
 988 0344 0794     		str	r4, [sp, #28]
 989 0346 0102     		lsls	r1, r0, #8
 990 0348 0691     		str	r1, [sp, #24]
 991 034a 13F8C84C 		ldrb	r4, [r3, #-200]	@ zero_extendqisi2
 992 034e 0025     		movs	r5, #0
 993 0350 DDE90601 		ldrd	r0, [sp, #24]
 994 0354 2043     		orrs	r0, r0, r4
 995 0356 2943     		orrs	r1, r1, r5
 996 0358 CDE90A01 		strd	r0, [sp, #40]
 997              	.LVL116:
 381:main.c        ****         							t1 = (t1 << 8) | t1_8[4-i];
 998              		.loc 1 381 0 discriminator 3
 999 035c 0132     		adds	r2, r2, #1
 1000              	.LVL117:
 1001              	.L63:
 381:main.c        ****         							t1 = (t1 << 8) | t1_8[4-i];
 1002              		.loc 1 381 0 is_stmt 0 discriminator 1
 1003 035e 042A     		cmp	r2, #4
 1004 0360 92DD     		ble	.L64
 1005 0362 CDE91889 		strd	r8, [sp, #96]
 1006 0366 DDE9109A 		ldrd	r9, [sp, #64]
 1007 036a CDE91ABC 		strd	fp, [sp, #104]
 1008              	.LBE5:
 388:main.c        ****         						}
 389:main.c        ****         						if (t6 < t2 || t5 < t1){
 1009              		.loc 1 389 0 is_stmt 1
 1010 036e DDE90A34 		ldrd	r3, [sp, #40]
 1011 0372 DDE90812 		ldrd	r1, [sp, #32]
 1012 0376 9442     		cmp	r4, r2
 1013 0378 08BF     		it	eq
 1014 037a 8B42     		cmpeq	r3, r1
 1015 037c 07D3     		bcc	.L65
 1016              		.loc 1 389 0 is_stmt 0 discriminator 1
 1017 037e DDE90E34 		ldrd	r3, [sp, #56]
 1018 0382 DDE90C12 		ldrd	r1, [sp, #48]
 1019 0386 9442     		cmp	r4, r2
 1020 0388 08BF     		it	eq
 1021 038a 8B42     		cmpeq	r3, r1
 1022 038c 03D2     		bcs	.L66
 1023              	.L65:
 390:main.c        ****         							state = STATE_INIT;
 1024              		.loc 1 390 0 is_stmt 1
 1025 038e 0022     		movs	r2, #0
 1026              	.LVL118:
 1027 0390 424B     		ldr	r3, .L72
 1028 0392 1A70     		strb	r2, [r3]
 1029 0394 02E0     		b	.L60
 1030              	.LVL119:
 1031              	.L66:
 391:main.c        ****         						}
ARM GAS  C:\Users\PIERRE~1\AppData\Local\Temp\ccWV16Vr.s 			page 27


 392:main.c        ****         						else{
 393:main.c        ****         							state = STATE_END;
 1032              		.loc 1 393 0
 1033 0396 0622     		movs	r2, #6
 1034              	.LVL120:
 1035 0398 404B     		ldr	r3, .L72
 1036              	.LVL121:
 1037 039a 1A70     		strb	r2, [r3]
 1038              	.LVL122:
 1039              	.L60:
 394:main.c        ****         							
 395:main.c        ****         						}
 396:main.c        ****                             }
 397:main.c        ****                             RxFlag = 0;
 1040              		.loc 1 397 0
 1041 039c 0023     		movs	r3, #0
 1042 039e 4F93     		str	r3, [sp, #316]
 398:main.c        ****                             RxState = 0;
 1043              		.loc 1 398 0
 1044 03a0 3F4A     		ldr	r2, .L72+4
 1045 03a2 82F86930 		strb	r3, [r2, #105]
 399:main.c        ****         				}else{
 400:main.c        ****                             state = STATE_INIT;
 401:main.c        ****                             taskENTER_CRITICAL();
 402:main.c        ****                             GPIOJ12_Write(0u);
 403:main.c        ****                             xSemaphoreGive(semaphoreBuf1);
 404:main.c        ****                             
 405:main.c        ****                             if(counter < 12){
 406:main.c        ****                                 counter += 1;
 407:main.c        ****                                 vTaskPrioritySet(NULL, uxTaskPriorityGet(NULL)-counter);
 408:main.c        ****                             }else{ 
 409:main.c        ****                                 counter = 5;
 410:main.c        ****                                 vTaskPrioritySet(NULL, 5);
 411:main.c        ****                             }
 412:main.c        ****                             taskEXIT_CRITICAL();
 413:main.c        ****                             goto a;
 414:main.c        ****                         }
 415:main.c        ****         			break;
 1046              		.loc 1 415 0
 1047 03a6 50E6     		b	.L42
 1048              	.L58:
 400:main.c        ****                             taskENTER_CRITICAL();
 1049              		.loc 1 400 0
 1050 03a8 0024     		movs	r4, #0
 1051 03aa 3C4B     		ldr	r3, .L72
 1052 03ac 1C70     		strb	r4, [r3]
 401:main.c        ****                             GPIOJ12_Write(0u);
 1053              		.loc 1 401 0
 1054 03ae FFF7FEFF 		bl	vPortEnterCritical
 1055              	.LVL123:
 402:main.c        ****                             xSemaphoreGive(semaphoreBuf1);
 1056              		.loc 1 402 0
 1057 03b2 2046     		mov	r0, r4
 1058 03b4 FFF7FEFF 		bl	GPIOJ12_Write
 1059              	.LVL124:
 403:main.c        ****                             
 1060              		.loc 1 403 0
ARM GAS  C:\Users\PIERRE~1\AppData\Local\Temp\ccWV16Vr.s 			page 28


 1061 03b8 2346     		mov	r3, r4
 1062 03ba 2246     		mov	r2, r4
 1063 03bc 2146     		mov	r1, r4
 1064 03be 3948     		ldr	r0, .L72+8
 1065 03c0 0068     		ldr	r0, [r0]
 1066 03c2 FFF7FEFF 		bl	xQueueGenericSend
 1067              	.LVL125:
 405:main.c        ****                                 counter += 1;
 1068              		.loc 1 405 0
 1069 03c6 1D9B     		ldr	r3, [sp, #116]
 1070 03c8 0B2B     		cmp	r3, #11
 1071 03ca 0BD8     		bhi	.L67
 406:main.c        ****                                 vTaskPrioritySet(NULL, uxTaskPriorityGet(NULL)-counter);
 1072              		.loc 1 406 0
 1073 03cc 0133     		adds	r3, r3, #1
 1074 03ce DBB2     		uxtb	r3, r3
 1075 03d0 1C46     		mov	r4, r3
 1076 03d2 1D93     		str	r3, [sp, #116]
 1077              	.LVL126:
 407:main.c        ****                             }else{ 
 1078              		.loc 1 407 0
 1079 03d4 0020     		movs	r0, #0
 1080 03d6 FFF7FEFF 		bl	uxTaskPriorityGet
 1081              	.LVL127:
 1082 03da 011B     		subs	r1, r0, r4
 1083 03dc 0020     		movs	r0, #0
 1084 03de FFF7FEFF 		bl	vTaskPrioritySet
 1085              	.LVL128:
 1086 03e2 05E0     		b	.L68
 1087              	.LVL129:
 1088              	.L67:
 410:main.c        ****                             }
 1089              		.loc 1 410 0
 1090 03e4 0521     		movs	r1, #5
 1091 03e6 0020     		movs	r0, #0
 1092 03e8 FFF7FEFF 		bl	vTaskPrioritySet
 1093              	.LVL130:
 409:main.c        ****                                 vTaskPrioritySet(NULL, 5);
 1094              		.loc 1 409 0
 1095 03ec 0523     		movs	r3, #5
 1096 03ee 1D93     		str	r3, [sp, #116]
 1097              	.LVL131:
 1098              	.L68:
 412:main.c        ****                             goto a;
 1099              		.loc 1 412 0
 1100 03f0 FFF7FEFF 		bl	vPortExitCritical
 1101              	.LVL132:
 413:main.c        ****                         }
 1102              		.loc 1 413 0
 1103 03f4 1BE6     		b	.L40
 1104              	.L50:
 416:main.c        ****         			
 417:main.c        ****         			case STATE_END :
 418:main.c        ****                         idle();
 1105              		.loc 1 418 0
 1106 03f6 FFF7FEFF 		bl	idle
 1107              	.LVL133:
ARM GAS  C:\Users\PIERRE~1\AppData\Local\Temp\ccWV16Vr.s 			page 29


 419:main.c        ****                         TroundMaster = (t4-t1);         //Time calculation
 1108              		.loc 1 419 0
 1109 03fa DDE90C45 		ldrd	r4, [sp, #48]
 1110 03fe B9EB0404 		subs	r4, r9, r4
 1111 0402 6AEB0505 		sbc	r5, r10, r5
 1112              	.LVL134:
 420:main.c        ****         				TreplySlave = (t3-t2);
 1113              		.loc 1 420 0
 1114 0406 DDE90823 		ldrd	r2, [sp, #32]
 1115 040a B21A     		subs	r2, r6, r2
 1116 040c 67EB0303 		sbc	r3, r7, r3
 1117 0410 CDE91023 		strd	r2, [sp, #64]
 1118              	.LVL135:
 421:main.c        ****         				TroundSlave = (t6-t3);
 1119              		.loc 1 421 0
 1120 0414 DDE90A01 		ldrd	r0, [sp, #40]
 1121 0418 801B     		subs	r0, r0, r6
 1122 041a 61EB0701 		sbc	r1, r1, r7
 1123              	.LVL136:
 422:main.c        ****         				TreplyMaster = (t5-t4);
 1124              		.loc 1 422 0
 1125 041e DDE90EBC 		ldrd	fp, [sp, #56]
 1126 0422 BBEB090B 		subs	fp, fp, r9
 1127 0426 6CEB0A0C 		sbc	ip, ip, r10
 1128 042a CDE912BC 		strd	fp, [sp, #72]
 1129              	.LVL137:
 423:main.c        ****                         all_clock_time[4*(slaveNummer-1)] = TroundMaster;
 1130              		.loc 1 423 0
 1131 042e 179B     		ldr	r3, [sp, #92]
 1132 0430 03F1FF3C 		add	ip, r3, #-1
 1133 0434 4FEA8C08 		lsl	r8, ip, #2
 1134 0438 DFF864E0 		ldr	lr, .L72+4
 1135 043c 0EEB4C1C 		add	ip, lr, ip, lsl #5
 1136 0440 CCE90245 		strd	r4, [ip, #8]
 424:main.c        ****                         all_clock_time[4*(slaveNummer-1)+1] = TroundSlave;
 1137              		.loc 1 424 0
 1138 0444 08F10104 		add	r4, r8, #1
 1139              	.LVL138:
 1140 0448 0EEBC404 		add	r4, lr, r4, lsl #3
 1141 044c C4E90201 		strd	r0, [r4, #8]
 1142              	.LVL139:
 425:main.c        ****                         all_clock_time[4*(slaveNummer-1)+2] = TreplyMaster;
 1143              		.loc 1 425 0
 1144 0450 08F10201 		add	r1, r8, #2
 1145 0454 0EEBC101 		add	r1, lr, r1, lsl #3
 1146 0458 DDE91234 		ldrd	r3, [sp, #72]
 1147 045c C1E90234 		strd	r3, [r1, #8]
 426:main.c        ****                         all_clock_time[4*(slaveNummer-1)+3] = TreplySlave;
 1148              		.loc 1 426 0
 1149 0460 08F10308 		add	r8, r8, #3
 1150 0464 0EEBC80E 		add	lr, lr, r8, lsl #3
 1151 0468 DDE91023 		ldrd	r2, [sp, #64]
 1152 046c CEE90223 		strd	r2, [lr, #8]
 427:main.c        ****                         state = STATE_INIT;
 1153              		.loc 1 427 0
 1154 0470 0024     		movs	r4, #0
 1155 0472 0A4B     		ldr	r3, .L72
ARM GAS  C:\Users\PIERRE~1\AppData\Local\Temp\ccWV16Vr.s 			page 30


 1156 0474 1C70     		strb	r4, [r3]
 428:main.c        ****                         taskENTER_CRITICAL();
 1157              		.loc 1 428 0
 1158 0476 FFF7FEFF 		bl	vPortEnterCritical
 1159              	.LVL140:
 429:main.c        ****                         GPIOJ12_Write(0u);
 1160              		.loc 1 429 0
 1161 047a 2046     		mov	r0, r4
 1162 047c FFF7FEFF 		bl	GPIOJ12_Write
 1163              	.LVL141:
 430:main.c        ****                         xSemaphoreGive(semaphoreBuf1);
 1164              		.loc 1 430 0
 1165 0480 2346     		mov	r3, r4
 1166 0482 2246     		mov	r2, r4
 1167 0484 2146     		mov	r1, r4
 1168 0486 0748     		ldr	r0, .L72+8
 1169 0488 0068     		ldr	r0, [r0]
 1170 048a FFF7FEFF 		bl	xQueueGenericSend
 1171              	.LVL142:
 431:main.c        ****                         vTaskPrioritySet(NULL, 5);
 1172              		.loc 1 431 0
 1173 048e 0521     		movs	r1, #5
 1174 0490 2046     		mov	r0, r4
 1175 0492 FFF7FEFF 		bl	vTaskPrioritySet
 1176              	.LVL143:
 432:main.c        ****                         taskEXIT_CRITICAL();
 1177              		.loc 1 432 0
 1178 0496 FFF7FEFF 		bl	vPortExitCritical
 1179              	.LVL144:
 1180              	.L39:
 433:main.c        ****                         goto a;
 1181              		.loc 1 433 0
 1182 049a C8E5     		b	.L40
 1183              	.L73:
 1184              		.align	2
 1185              	.L72:
 1186 049c 00000000 		.word	state
 1187 04a0 00000000 		.word	.LANCHOR0
 1188 04a4 00000000 		.word	semaphoreBuf1
 1189              		.cfi_endproc
 1190              	.LFE77:
 1191              		.size	state_machine_task, .-state_machine_task
 1192              		.section	.text.interrupt_routine,"ax",%progbits
 1193              		.align	2
 1194              		.thumb
 1195              		.thumb_func
 1196              		.type	interrupt_routine, %function
 1197              	interrupt_routine:
 1198              	.LFB71:
  91:main.c        **** 
 1199              		.loc 1 91 0
 1200              		.cfi_startproc
 1201              		@ args = 0, pretend = 0, frame = 16
 1202              		@ frame_needed = 0, uses_anonymous_args = 0
 1203              	.LVL145:
 1204 0000 30B5     		push	{r4, r5, lr}
 1205              		.cfi_def_cfa_offset 12
ARM GAS  C:\Users\PIERRE~1\AppData\Local\Temp\ccWV16Vr.s 			page 31


 1206              		.cfi_offset 4, -12
 1207              		.cfi_offset 5, -8
 1208              		.cfi_offset 14, -4
 1209 0002 85B0     		sub	sp, sp, #20
 1210              		.cfi_def_cfa_offset 32
 1211              	.LVL146:
 1212              	.L75:
  98:main.c        ****             uint8_t RxBuffer[4];
 1213              		.loc 1 98 0
 1214 0004 1E22     		movs	r2, #30
 1215 0006 03A9     		add	r1, sp, #12
 1216 0008 474B     		ldr	r3, .L84
 1217 000a 1868     		ldr	r0, [r3]
 1218 000c FFF7FEFF 		bl	xQueueReceive
 1219              	.LVL147:
 1220 0010 0028     		cmp	r0, #0
 1221 0012 F7D0     		beq	.L75
 1222              	.LBB6:
 101:main.c        **** 			DWM_ReadSPI_ext(SYS_STATUS, NO_SUB,  RxBuffer, 4);
 1223              		.loc 1 101 0
 1224 0014 0023     		movs	r3, #0
 1225 0016 0293     		str	r3, [sp, #8]
 102:main.c        **** 			StatusRegister  = (RxBuffer[3] << 24) | (RxBuffer[2] << 16) | (RxBuffer[1] << 8) | RxBuffer[0];
 1226              		.loc 1 102 0
 1227 0018 0423     		movs	r3, #4
 1228 001a 0DEB0302 		add	r2, sp, r3
 1229 001e 4FF6FF71 		movw	r1, #65535
 1230 0022 0F20     		movs	r0, #15
 1231 0024 FFF7FEFF 		bl	DWM_ReadSPI_ext
 1232              	.LVL148:
 103:main.c        **** 			if (StatusRegister == 0xFFFFFFFF) {
 1233              		.loc 1 103 0
 1234 0028 9DF80740 		ldrb	r4, [sp, #7]	@ zero_extendqisi2
 1235 002c 9DF80630 		ldrb	r3, [sp, #6]	@ zero_extendqisi2
 1236 0030 1B04     		lsls	r3, r3, #16
 1237 0032 43EA0463 		orr	r3, r3, r4, lsl #24
 1238 0036 9DF80540 		ldrb	r4, [sp, #5]	@ zero_extendqisi2
 1239 003a 43EA0423 		orr	r3, r3, r4, lsl #8
 1240 003e 9DF80440 		ldrb	r4, [sp, #4]	@ zero_extendqisi2
 1241 0042 1C43     		orrs	r4, r4, r3
 1242              	.LVL149:
 104:main.c        **** 				DWM_ReadSPI_ext(SYS_STATUS, NO_SUB,  RxBuffer, 4);
 1243              		.loc 1 104 0
 1244 0044 B4F1FF3F 		cmp	r4, #-1
 1245 0048 15D1     		bne	.L76
 105:main.c        **** 				StatusRegister  = (RxBuffer[3] << 24) | (RxBuffer[2] << 16) | (RxBuffer[1] << 8) | RxBuffer[0];
 1246              		.loc 1 105 0
 1247 004a 0423     		movs	r3, #4
 1248 004c 0DEB0302 		add	r2, sp, r3
 1249 0050 4FF6FF71 		movw	r1, #65535
 1250 0054 0F20     		movs	r0, #15
 1251 0056 FFF7FEFF 		bl	DWM_ReadSPI_ext
 1252              	.LVL150:
 106:main.c        **** 			}
 1253              		.loc 1 106 0
 1254 005a 9DF80720 		ldrb	r2, [sp, #7]	@ zero_extendqisi2
 1255 005e 9DF80630 		ldrb	r3, [sp, #6]	@ zero_extendqisi2
ARM GAS  C:\Users\PIERRE~1\AppData\Local\Temp\ccWV16Vr.s 			page 32


 1256 0062 1B04     		lsls	r3, r3, #16
 1257 0064 43EA0263 		orr	r3, r3, r2, lsl #24
 1258 0068 9DF80540 		ldrb	r4, [sp, #5]	@ zero_extendqisi2
 1259              	.LVL151:
 1260 006c 43EA0423 		orr	r3, r3, r4, lsl #8
 1261 0070 9DF80440 		ldrb	r4, [sp, #4]	@ zero_extendqisi2
 1262 0074 1C43     		orrs	r4, r4, r3
 1263              	.LVL152:
 1264              	.L76:
 108:main.c        **** 				TxOk = 1;
 1265              		.loc 1 108 0
 1266 0076 14F0800F 		tst	r4, #128
 1267 007a 10D0     		beq	.L77
 109:main.c        **** 				xQueueSend(Tx_q,(void*) &TxOk,portMAX_DELAY);
 1268              		.loc 1 109 0
 1269 007c 2A48     		ldr	r0, .L84
 1270 007e 0125     		movs	r5, #1
 1271 0080 0146     		mov	r1, r0
 1272 0082 01F8685F 		strb	r5, [r1, #104]!
 110:main.c        **** 				setBit(ack, 4, TX_OK_BIT, 1);
 1273              		.loc 1 110 0
 1274 0086 0023     		movs	r3, #0
 1275 0088 4FF0FF32 		mov	r2, #-1
 1276 008c 006F     		ldr	r0, [r0, #112]
 1277 008e FFF7FEFF 		bl	xQueueGenericSend
 1278              	.LVL153:
 111:main.c        **** 			}
 1279              		.loc 1 111 0
 1280 0092 2B46     		mov	r3, r5
 1281 0094 0722     		movs	r2, #7
 1282 0096 0421     		movs	r1, #4
 1283 0098 02A8     		add	r0, sp, #8
 1284 009a FFF7FEFF 		bl	setBit
 1285              	.LVL154:
 1286              	.L77:
 115:main.c        **** 				ack[0] |= RX_FINISHED_MASK;
 1287              		.loc 1 115 0
 1288 009e 04F4C843 		and	r3, r4, #25600
 1289 00a2 B3F5C84F 		cmp	r3, #25600
 1290 00a6 09D1     		bne	.L78
 117:main.c        **** 				ack[2] |= RX_FINISHED_MASK >> 16;
 1291              		.loc 1 117 0
 1292 00a8 9DF80930 		ldrb	r3, [sp, #9]	@ zero_extendqisi2
 1293 00ac 43F06403 		orr	r3, r3, #100
 1294 00b0 8DF80930 		strb	r3, [sp, #9]
 120:main.c        **** 			}
 1295              		.loc 1 120 0
 1296 00b4 0122     		movs	r2, #1
 1297 00b6 1C4B     		ldr	r3, .L84
 1298 00b8 83F86920 		strb	r2, [r3, #105]
 1299              	.L78:
 122:main.c        **** 				ack[0] |= RX_ERROR_MASK;
 1300              		.loc 1 122 0
 1301 00bc 1B4B     		ldr	r3, .L84+4
 1302 00be 1C42     		tst	r4, r3
 1303 00c0 15D0     		beq	.L79
 124:main.c        **** 				ack[2] |= RX_ERROR_MASK >> 16;
ARM GAS  C:\Users\PIERRE~1\AppData\Local\Temp\ccWV16Vr.s 			page 33


 1304              		.loc 1 124 0
 1305 00c2 9DF80930 		ldrb	r3, [sp, #9]	@ zero_extendqisi2
 1306 00c6 63F06F03 		orn	r3, r3, #111
 1307 00ca 8DF80930 		strb	r3, [sp, #9]
 125:main.c        **** 				ack[3] |= RX_ERROR_MASK >> 24;
 1308              		.loc 1 125 0
 1309 00ce 9DF80A30 		ldrb	r3, [sp, #10]	@ zero_extendqisi2
 1310 00d2 43F02703 		orr	r3, r3, #39
 1311 00d6 8DF80A30 		strb	r3, [sp, #10]
 126:main.c        **** 				RxState = 2;
 1312              		.loc 1 126 0
 1313 00da 9DF80B30 		ldrb	r3, [sp, #11]	@ zero_extendqisi2
 1314 00de 43F00403 		orr	r3, r3, #4
 1315 00e2 8DF80B30 		strb	r3, [sp, #11]
 127:main.c        **** 			}
 1316              		.loc 1 127 0
 1317 00e6 0222     		movs	r2, #2
 1318 00e8 0F4B     		ldr	r3, .L84
 1319 00ea 83F86920 		strb	r2, [r3, #105]
 1320              	.L79:
 129:main.c        ****                 xQueueSend(Rx_q,(void*) &RxState,portMAX_DELAY);
 1321              		.loc 1 129 0
 1322 00ee 0E4B     		ldr	r3, .L84
 1323 00f0 93F86930 		ldrb	r3, [r3, #105]	@ zero_extendqisi2
 1324 00f4 DBB2     		uxtb	r3, r3
 1325 00f6 012B     		cmp	r3, #1
 1326 00f8 05D0     		beq	.L80
 129:main.c        ****                 xQueueSend(Rx_q,(void*) &RxState,portMAX_DELAY);
 1327              		.loc 1 129 0 is_stmt 0 discriminator 1
 1328 00fa 0B4B     		ldr	r3, .L84
 1329 00fc 93F86930 		ldrb	r3, [r3, #105]	@ zero_extendqisi2
 1330 0100 DBB2     		uxtb	r3, r3
 1331 0102 022B     		cmp	r3, #2
 1332 0104 08D1     		bne	.L81
 1333              	.L80:
 130:main.c        ****             }
 1334              		.loc 1 130 0 is_stmt 1
 1335 0106 0848     		ldr	r0, .L84
 1336 0108 0023     		movs	r3, #0
 1337 010a 4FF0FF32 		mov	r2, #-1
 1338 010e 00F16901 		add	r1, r0, #105
 1339 0112 C06E     		ldr	r0, [r0, #108]
 1340 0114 FFF7FEFF 		bl	xQueueGenericSend
 1341              	.LVL155:
 1342              	.L81:
 132:main.c        ****          }
 1343              		.loc 1 132 0
 1344 0118 0423     		movs	r3, #4
 1345 011a 02AA     		add	r2, sp, #8
 1346 011c 4FF6FF71 		movw	r1, #65535
 1347 0120 0F20     		movs	r0, #15
 1348 0122 FFF7FEFF 		bl	DWM_WriteSPI_ext
 1349              	.LVL156:
 1350 0126 6DE7     		b	.L75
 1351              	.L85:
 1352              		.align	2
 1353              	.L84:
ARM GAS  C:\Users\PIERRE~1\AppData\Local\Temp\ccWV16Vr.s 			page 34


 1354 0128 00000000 		.word	.LANCHOR0
 1355 012c 00902704 		.word	69701632
 1356              	.LBE6:
 1357              		.cfi_endproc
 1358              	.LFE71:
 1359              		.size	interrupt_routine, .-interrupt_routine
 1360              		.section	.text.main,"ax",%progbits
 1361              		.align	2
 1362              		.global	main
 1363              		.thumb
 1364              		.thumb_func
 1365              		.type	main, %function
 1366              	main:
 1367              	.LFB76:
 219:main.c        **** 	LED_1_Write(LIGHT_OFF);
 1368              		.loc 1 219 0
 1369              		.cfi_startproc
 1370              		@ args = 0, pretend = 0, frame = 0
 1371              		@ frame_needed = 0, uses_anonymous_args = 0
 1372 0000 F0B5     		push	{r4, r5, r6, r7, lr}
 1373              		.cfi_def_cfa_offset 20
 1374              		.cfi_offset 4, -20
 1375              		.cfi_offset 5, -16
 1376              		.cfi_offset 6, -12
 1377              		.cfi_offset 7, -8
 1378              		.cfi_offset 14, -4
 1379 0002 83B0     		sub	sp, sp, #12
 1380              		.cfi_def_cfa_offset 32
 220:main.c        ****     LED_2_Write(LIGHT_OFF);
 1381              		.loc 1 220 0
 1382 0004 0020     		movs	r0, #0
 1383 0006 FFF7FEFF 		bl	LED_1_Write
 1384              	.LVL157:
 221:main.c        ****     LED_3_Write(LIGHT_OFF);
 1385              		.loc 1 221 0
 1386 000a 0020     		movs	r0, #0
 1387 000c FFF7FEFF 		bl	LED_2_Write
 1388              	.LVL158:
 222:main.c        ****     LED_4_Write(LIGHT_OFF);
 1389              		.loc 1 222 0
 1390 0010 0020     		movs	r0, #0
 1391 0012 FFF7FEFF 		bl	LED_3_Write
 1392              	.LVL159:
 223:main.c        ****     
 1393              		.loc 1 223 0
 1394 0016 0020     		movs	r0, #0
 1395 0018 FFF7FEFF 		bl	LED_4_Write
 1396              	.LVL160:
 225:main.c        ****     
 1397              		.loc 1 225 0
 1398              		.syntax unified
 1399              	@ 225 "main.c" 1
 1400 001c 62B6     		CPSIE   i
 1401              	@ 0 "" 2
 227:main.c        ****     
 1402              		.loc 1 227 0
 1403              		.thumb
ARM GAS  C:\Users\PIERRE~1\AppData\Local\Temp\ccWV16Vr.s 			page 35


 1404              		.syntax unified
 1405 001e 0221     		movs	r1, #2
 1406 0020 0020     		movs	r0, #0
 1407 0022 FFF7FEFF 		bl	USBP_Start
 1408              	.LVL161:
 229:main.c        ****     Timer_1_Start();
 1409              		.loc 1 229 0
 1410 0026 FFF7FEFF 		bl	freeRTOSInit
 1411              	.LVL162:
 230:main.c        ****     
 1412              		.loc 1 230 0
 1413 002a FFF7FEFF 		bl	Timer_1_Start
 1414              	.LVL163:
 233:main.c        **** 	CyDelay(10u); //time for the DW to go from Wakeup to init and then IDLE
 1415              		.loc 1 233 0
 1416 002e FFF7FEFF 		bl	SPIM_Start
 1417              	.LVL164:
 234:main.c        **** 	DWM_Init();
 1418              		.loc 1 234 0
 1419 0032 0A20     		movs	r0, #10
 1420 0034 FFF7FEFF 		bl	CyDelay
 1421              	.LVL165:
 235:main.c        ****     
 1422              		.loc 1 235 0
 1423 0038 FFF7FEFF 		bl	DWM_Init
 1424              	.LVL166:
 238:main.c        ****     IRQ_SetPriority(ISR_PRIORITY);
 1425              		.loc 1 238 0
 1426 003c 3B48     		ldr	r0, .L90
 1427 003e FFF7FEFF 		bl	IRQ_StartEx
 1428              	.LVL167:
 239:main.c        ****     while(!USBP_bGetConfiguration());
 1429              		.loc 1 239 0
 1430 0042 1520     		movs	r0, #21
 1431 0044 FFF7FEFF 		bl	IRQ_SetPriority
 1432              	.LVL168:
 1433              	.L87:
 240:main.c        ****     //initialize tasks (one for each slave + usb_out, usb_in)
 1434              		.loc 1 240 0 discriminator 1
 1435 0048 FFF7FEFF 		bl	USBP_GetConfiguration
 1436              	.LVL169:
 1437 004c 0028     		cmp	r0, #0
 1438 004e FBD0     		beq	.L87
 242:main.c        ****     Rx_q = xQueueCreate(1, sizeof(uint8_t));
 1439              		.loc 1 242 0
 1440 0050 0022     		movs	r2, #0
 1441 0052 0421     		movs	r1, #4
 1442 0054 0A20     		movs	r0, #10
 1443 0056 FFF7FEFF 		bl	xQueueGenericCreate
 1444              	.LVL170:
 1445 005a 354C     		ldr	r4, .L90+4
 1446 005c 2060     		str	r0, [r4]
 243:main.c        ****     Tx_q = xQueueCreate(1, sizeof(uint8_t));
 1447              		.loc 1 243 0
 1448 005e 0022     		movs	r2, #0
 1449 0060 0121     		movs	r1, #1
 1450 0062 0846     		mov	r0, r1
ARM GAS  C:\Users\PIERRE~1\AppData\Local\Temp\ccWV16Vr.s 			page 36


 1451 0064 FFF7FEFF 		bl	xQueueGenericCreate
 1452              	.LVL171:
 1453 0068 E066     		str	r0, [r4, #108]
 244:main.c        ****     semaphoreBuf1 = xSemaphoreCreateMutex();
 1454              		.loc 1 244 0
 1455 006a 0022     		movs	r2, #0
 1456 006c 0121     		movs	r1, #1
 1457 006e 0846     		mov	r0, r1
 1458 0070 FFF7FEFF 		bl	xQueueGenericCreate
 1459              	.LVL172:
 1460 0074 2067     		str	r0, [r4, #112]
 245:main.c        ****     
 1461              		.loc 1 245 0
 1462 0076 0120     		movs	r0, #1
 1463 0078 FFF7FEFF 		bl	xQueueCreateMutex
 1464              	.LVL173:
 1465 007c 2D4B     		ldr	r3, .L90+8
 1466 007e 1860     		str	r0, [r3]
 247:main.c        ****     int slaveNummer = 1;
 1467              		.loc 1 247 0
 1468 0080 0024     		movs	r4, #0
 1469 0082 0194     		str	r4, [sp, #4]
 1470 0084 1623     		movs	r3, #22
 1471 0086 0093     		str	r3, [sp]
 1472 0088 2346     		mov	r3, r4
 1473 008a 4FF40072 		mov	r2, #512
 1474 008e 2A49     		ldr	r1, .L90+12
 1475 0090 2A48     		ldr	r0, .L90+16
 1476 0092 FFF7FEFF 		bl	xTaskCreate
 1477              	.LVL174:
 249:main.c        ****     xTaskCreate(state_machine_task,"slave_1", 512, (void*) slaveNummer, 1, &taskHandler1);
 1478              		.loc 1 249 0
 1479 0096 2A4F     		ldr	r7, .L90+20
 1480 0098 0125     		movs	r5, #1
 1481 009a 87F83C50 		strb	r5, [r7, #60]
 250:main.c        ****     slaveNummer = 2;
 1482              		.loc 1 250 0
 1483 009e 294E     		ldr	r6, .L90+24
 1484 00a0 294B     		ldr	r3, .L90+28
 1485 00a2 0193     		str	r3, [sp, #4]
 1486 00a4 0095     		str	r5, [sp]
 1487 00a6 2B46     		mov	r3, r5
 1488 00a8 4FF40072 		mov	r2, #512
 1489 00ac 2749     		ldr	r1, .L90+32
 1490 00ae 3046     		mov	r0, r6
 1491 00b0 FFF7FEFF 		bl	xTaskCreate
 1492              	.LVL175:
 252:main.c        ****     xTaskCreate(state_machine_task,"slave_2", 512, (void*) slaveNummer, 1, &taskHandler2);
 1493              		.loc 1 252 0
 1494 00b4 0223     		movs	r3, #2
 1495 00b6 87F83D30 		strb	r3, [r7, #61]
 253:main.c        ****     slaveNummer = 3;
 1496              		.loc 1 253 0
 1497 00ba 254A     		ldr	r2, .L90+36
 1498 00bc 0192     		str	r2, [sp, #4]
 1499 00be 0095     		str	r5, [sp]
 1500 00c0 4FF40072 		mov	r2, #512
ARM GAS  C:\Users\PIERRE~1\AppData\Local\Temp\ccWV16Vr.s 			page 37


 1501 00c4 2349     		ldr	r1, .L90+40
 1502 00c6 3046     		mov	r0, r6
 1503 00c8 FFF7FEFF 		bl	xTaskCreate
 1504              	.LVL176:
 255:main.c        ****     xTaskCreate(state_machine_task,"slave_3", 512, (void*) slaveNummer, 1, &taskHandler3);
 1505              		.loc 1 255 0
 1506 00cc 0323     		movs	r3, #3
 1507 00ce 87F83E30 		strb	r3, [r7, #62]
 256:main.c        ****     xTaskCreate(usb_out, "usb_out", 512, NULL, usb_out_prio, &usbOutHandler);
 1508              		.loc 1 256 0
 1509 00d2 214A     		ldr	r2, .L90+44
 1510 00d4 0192     		str	r2, [sp, #4]
 1511 00d6 0095     		str	r5, [sp]
 1512 00d8 4FF40072 		mov	r2, #512
 1513 00dc 1F49     		ldr	r1, .L90+48
 1514 00de 3046     		mov	r0, r6
 1515 00e0 FFF7FEFF 		bl	xTaskCreate
 1516              	.LVL177:
 257:main.c        ****     xTaskCreate(usb_in, "usb_in", 512, NULL, usb_in_prio, &usbInHandler);
 1517              		.loc 1 257 0
 1518 00e4 1E4B     		ldr	r3, .L90+52
 1519 00e6 0193     		str	r3, [sp, #4]
 1520 00e8 1E4D     		ldr	r5, .L90+56
 1521 00ea 6B78     		ldrb	r3, [r5, #1]	@ zero_extendqisi2
 1522 00ec 0093     		str	r3, [sp]
 1523 00ee 2346     		mov	r3, r4
 1524 00f0 4FF40072 		mov	r2, #512
 1525 00f4 1C49     		ldr	r1, .L90+60
 1526 00f6 1D48     		ldr	r0, .L90+64
 1527 00f8 FFF7FEFF 		bl	xTaskCreate
 1528              	.LVL178:
 258:main.c        ****     xTaskCreate(dummy_task, "dummy_task", 100, NULL, DUMMY_PRIO, &dummyHandler);//!!! stack size
 1529              		.loc 1 258 0
 1530 00fc 1C4B     		ldr	r3, .L90+68
 1531 00fe 0193     		str	r3, [sp, #4]
 1532 0100 AB78     		ldrb	r3, [r5, #2]	@ zero_extendqisi2
 1533 0102 0093     		str	r3, [sp]
 1534 0104 2346     		mov	r3, r4
 1535 0106 4FF40072 		mov	r2, #512
 1536 010a 1A49     		ldr	r1, .L90+72
 1537 010c 1A48     		ldr	r0, .L90+76
 1538 010e FFF7FEFF 		bl	xTaskCreate
 1539              	.LVL179:
 259:main.c        ****     vTaskStartScheduler();
 1540              		.loc 1 259 0
 1541 0112 1A4B     		ldr	r3, .L90+80
 1542 0114 0193     		str	r3, [sp, #4]
 1543 0116 0623     		movs	r3, #6
 1544 0118 0093     		str	r3, [sp]
 1545 011a 2346     		mov	r3, r4
 1546 011c 6422     		movs	r2, #100
 1547 011e 1849     		ldr	r1, .L90+84
 1548 0120 1848     		ldr	r0, .L90+88
 1549 0122 FFF7FEFF 		bl	xTaskCreate
 1550              	.LVL180:
 260:main.c        ****     for(;;){
 1551              		.loc 1 260 0
ARM GAS  C:\Users\PIERRE~1\AppData\Local\Temp\ccWV16Vr.s 			page 38


 1552 0126 FFF7FEFF 		bl	vTaskStartScheduler
 1553              	.LVL181:
 1554              	.L88:
 1555 012a FEE7     		b	.L88
 1556              	.L91:
 1557              		.align	2
 1558              	.L90:
 1559 012c 00000000 		.word	ISR
 1560 0130 00000000 		.word	.LANCHOR0
 1561 0134 00000000 		.word	semaphoreBuf1
 1562 0138 00000000 		.word	.LC0
 1563 013c 00000000 		.word	interrupt_routine
 1564 0140 00000000 		.word	TxPhoneData
 1565 0144 00000000 		.word	state_machine_task
 1566 0148 00000000 		.word	taskHandler1
 1567 014c 14000000 		.word	.LC1
 1568 0150 00000000 		.word	taskHandler2
 1569 0154 1C000000 		.word	.LC2
 1570 0158 00000000 		.word	taskHandler3
 1571 015c 24000000 		.word	.LC3
 1572 0160 00000000 		.word	usbOutHandler
 1573 0164 00000000 		.word	.LANCHOR1
 1574 0168 2C000000 		.word	.LC4
 1575 016c 00000000 		.word	usb_out
 1576 0170 00000000 		.word	usbInHandler
 1577 0174 34000000 		.word	.LC5
 1578 0178 00000000 		.word	usb_in
 1579 017c 00000000 		.word	dummyHandler
 1580 0180 3C000000 		.word	.LC6
 1581 0184 00000000 		.word	dummy_task
 1582              		.cfi_endproc
 1583              	.LFE76:
 1584              		.size	main, .-main
 1585              		.comm	semaphoreBuf1,4,4
 1586              		.comm	usbInHandler,4,4
 1587              		.comm	usbOutHandler,4,4
 1588              		.comm	dummyHandler,4,4
 1589              		.comm	taskHandler4,4,4
 1590              		.comm	taskHandler3,4,4
 1591              		.comm	taskHandler2,4,4
 1592              		.comm	taskHandler1,4,4
 1593              		.comm	state,1,1
 1594              		.global	TxOk
 1595              		.global	found
 1596              		.global	all_clock_time
 1597              		.comm	TxPhoneData,63,4
 1598              		.comm	RxPhoneData,8,4
 1599              		.global	number_bytes_receive
 1600              		.global	usb_in_prio
 1601              		.global	usb_out_prio
 1602              		.global	prioBeacon
 1603              		.global	prio_matrice
 1604              		.data
 1605              		.set	.LANCHOR1,. + 0
 1606              		.type	prioBeacon, %object
 1607              		.size	prioBeacon, 1
 1608              	prioBeacon:
ARM GAS  C:\Users\PIERRE~1\AppData\Local\Temp\ccWV16Vr.s 			page 39


 1609 0000 14       		.byte	20
 1610              		.type	usb_out_prio, %object
 1611              		.size	usb_out_prio, 1
 1612              	usb_out_prio:
 1613 0001 1D       		.byte	29
 1614              		.type	usb_in_prio, %object
 1615              		.size	usb_in_prio, 1
 1616              	usb_in_prio:
 1617 0002 1E       		.byte	30
 1618              		.section	.rodata.str1.4,"aMS",%progbits,1
 1619              		.align	2
 1620              	.LC0:
 1621 0000 696E7465 		.ascii	"interrupt_routine\000"
 1621      72727570 
 1621      745F726F 
 1621      7574696E 
 1621      6500
 1622 0012 0000     		.space	2
 1623              	.LC1:
 1624 0014 736C6176 		.ascii	"slave_1\000"
 1624      655F3100 
 1625              	.LC2:
 1626 001c 736C6176 		.ascii	"slave_2\000"
 1626      655F3200 
 1627              	.LC3:
 1628 0024 736C6176 		.ascii	"slave_3\000"
 1628      655F3300 
 1629              	.LC4:
 1630 002c 7573625F 		.ascii	"usb_out\000"
 1630      6F757400 
 1631              	.LC5:
 1632 0034 7573625F 		.ascii	"usb_in\000"
 1632      696E00
 1633 003b 00       		.space	1
 1634              	.LC6:
 1635 003c 64756D6D 		.ascii	"dummy_task\000"
 1635      795F7461 
 1635      736B00
 1636              		.bss
 1637              		.align	3
 1638              		.set	.LANCHOR0,. + 0
 1639              		.type	irq_queue, %object
 1640              		.size	irq_queue, 4
 1641              	irq_queue:
 1642 0000 00000000 		.space	4
 1643              		.type	number_bytes_receive, %object
 1644              		.size	number_bytes_receive, 2
 1645              	number_bytes_receive:
 1646 0004 0000     		.space	2
 1647 0006 0000     		.space	2
 1648              		.type	all_clock_time, %object
 1649              		.size	all_clock_time, 96
 1650              	all_clock_time:
 1651 0008 00000000 		.space	96
 1651      00000000 
 1651      00000000 
 1651      00000000 
ARM GAS  C:\Users\PIERRE~1\AppData\Local\Temp\ccWV16Vr.s 			page 40


 1651      00000000 
 1652              		.type	TxOk, %object
 1653              		.size	TxOk, 1
 1654              	TxOk:
 1655 0068 00       		.space	1
 1656              		.type	RxState, %object
 1657              		.size	RxState, 1
 1658              	RxState:
 1659 0069 00       		.space	1
 1660 006a 0000     		.space	2
 1661              		.type	Rx_q, %object
 1662              		.size	Rx_q, 4
 1663              	Rx_q:
 1664 006c 00000000 		.space	4
 1665              		.type	Tx_q, %object
 1666              		.size	Tx_q, 4
 1667              	Tx_q:
 1668 0070 00000000 		.space	4
 1669              		.type	found, %object
 1670              		.size	found, 1
 1671              	found:
 1672 0074 00       		.space	1
 1673 0075 000000   		.space	3
 1674              		.type	prio_matrice, %object
 1675              		.size	prio_matrice, 16
 1676              	prio_matrice:
 1677 0078 00000000 		.space	16
 1677      00000000 
 1677      00000000 
 1677      00000000 
 1678              		.text
 1679              	.Letext0:
 1680              		.file 2 "c:\\program files (x86)\\cypress\\psoc creator\\4.3\\psoc creator\\import\\gnu\\arm\\5.4.
 1681              		.file 3 "c:\\program files (x86)\\cypress\\psoc creator\\4.3\\psoc creator\\import\\gnu\\arm\\5.4.
 1682              		.file 4 "Generated_Source\\PSoC5/cytypes.h"
 1683              		.file 5 ".\\FreeRTOS\\include/portmacro.h"
 1684              		.file 6 ".\\FreeRTOS\\include/task.h"
 1685              		.file 7 ".\\FreeRTOS\\include/queue.h"
 1686              		.file 8 ".\\FreeRTOS\\include/semphr.h"
 1687              		.file 9 "Generated_Source\\PSoC5/core_cm3.h"
 1688              		.file 10 "Generated_Source\\PSoC5/IRQ.h"
 1689              		.file 11 "Generated_Source\\PSoC5/pin_1.h"
 1690              		.file 12 "Generated_Source\\PSoC5/GPIOJ11.h"
 1691              		.file 13 "Generated_Source\\PSoC5/CyLib.h"
 1692              		.file 14 "Generated_Source\\PSoC5/GPIOJ14.h"
 1693              		.file 15 "Generated_Source\\PSoC5/USBP.h"
 1694              		.file 16 "Generated_Source\\PSoC5/GPIOJ13.h"
 1695              		.file 17 "Generated_Source\\PSoC5/GPIOJ12.h"
 1696              		.file 18 "dwm1000.h"
 1697              		.file 19 "Generated_Source\\PSoC5/LED_1.h"
 1698              		.file 20 "Generated_Source\\PSoC5/LED_2.h"
 1699              		.file 21 "Generated_Source\\PSoC5/LED_3.h"
 1700              		.file 22 "Generated_Source\\PSoC5/LED_4.h"
 1701              		.file 23 "Generated_Source\\PSoC5/Timer_1.h"
 1702              		.file 24 "Generated_Source\\PSoC5/SPIM.h"
 1703              		.file 25 "main.h"