ARM GAS  C:\Users\PIERRE~1\AppData\Local\Temp\ccosKNXH.s 			page 1


   1              		.syntax unified
   2              		.cpu cortex-m3
   3              		.fpu softvfp
   4              		.eabi_attribute 20, 1
   5              		.eabi_attribute 21, 1
   6              		.eabi_attribute 23, 3
   7              		.eabi_attribute 24, 1
   8              		.eabi_attribute 25, 1
   9              		.eabi_attribute 26, 1
  10              		.eabi_attribute 30, 1
  11              		.eabi_attribute 34, 1
  12              		.eabi_attribute 18, 4
  13              		.thumb
  14              		.syntax unified
  15              		.file	"main.c"
  16              		.text
  17              	.Ltext0:
  18              		.cfi_sections	.debug_frame
  19              		.section	.text.ISR,"ax",%progbits
  20              		.align	2
  21              		.global	ISR
  22              		.thumb
  23              		.thumb_func
  24              		.type	ISR, %function
  25              	ISR:
  26              	.LFB65:
  27              		.file 1 "main.c"
   1:main.c        **** /* Includes ------------------------------------------------------------------*/
   2:main.c        **** 
   3:main.c        **** #include <project.h>
   4:main.c        **** 
   5:main.c        **** /* USER CODE BEGIN Includes */
   6:main.c        **** #include "main.h"
   7:main.c        **** #include "stdio.h"
   8:main.c        **** #include "dwm1000.h"
   9:main.c        **** #include <string.h>
  10:main.c        **** #include <inttypes.h>
  11:main.c        **** #include <math.h>
  12:main.c        **** 
  13:main.c        **** #define NESTED_ISR                          (1u)
  14:main.c        **** #define DEFAULT_PRIORITY                    (3u)
  15:main.c        **** #define HIGHER_PRIORITY                     (2u)
  16:main.c        **** 
  17:main.c        **** #define LIGHT_OFF                       (0u)
  18:main.c        **** #define LIGHT_ON                        (1u)
  19:main.c        **** 
  20:main.c        **** 
  21:main.c        **** /* Private variables ---------------------------------------------------------*/
  22:main.c        **** static uint8_t RxData[15];
  23:main.c        **** static uint8_t TxData[128];
  24:main.c        **** static uint8_t RxPhoneData[8];
  25:main.c        **** static uint8_t TxPhoneData[63];
  26:main.c        ****     
  27:main.c        **** static uint16_t number_bytes_receive=0;
  28:main.c        **** 
  29:main.c        **** uint8_t master_first_message;
  30:main.c        **** uint8_t master_second_message;
ARM GAS  C:\Users\PIERRE~1\AppData\Local\Temp\ccosKNXH.s 			page 2


  31:main.c        **** uint8_t slave_standard_message;
  32:main.c        **** 
  33:main.c        **** static uint64_t t1, t2, t3, t4, t5, t6;
  34:main.c        **** static uint64_t all_clock_time[12]={0};
  35:main.c        **** static uint8_t t1_8[5];
  36:main.c        **** static uint8_t t2_8[5];
  37:main.c        **** static uint8_t t3_8[5];
  38:main.c        **** static uint8_t t4_8[5];
  39:main.c        **** static uint8_t t5_8[5];
  40:main.c        **** static uint8_t t6_8[5];
  41:main.c        **** 
  42:main.c        **** static volatile uint64_t TroundMaster;
  43:main.c        **** static volatile uint64_t TreplySlave;
  44:main.c        **** static volatile uint64_t TroundSlave;
  45:main.c        **** static volatile uint64_t TreplyMaster;
  46:main.c        **** 
  47:main.c        **** // Boolean variables
  48:main.c        **** static volatile uint8_t TxOk = 0;
  49:main.c        **** static volatile uint8_t RxOk = 0;
  50:main.c        **** static volatile uint8_t RxError = 0;
  51:main.c        **** static volatile uint8_t inter = 0;
  52:main.c        **** 
  53:main.c        **** static volatile enum STATE state;
  54:main.c        **** 
  55:main.c        **** //fonction
  56:main.c        **** void interrupt_routine(void);
  57:main.c        **** uint8_t find_slave_nummer(uint8_t All_ancle[], uint8_t SlaveNummer); 
  58:main.c        ****     
  59:main.c        **** /* Interrupt prototypes */
  60:main.c        **** CY_ISR_PROTO(ISR);
  61:main.c        **** 
  62:main.c        **** 
  63:main.c        **** // main fonction 
  64:main.c        **** int main(void){
  65:main.c        ****     uint8_t SlaveNummer=1;
  66:main.c        ****     uint8_t All_ancle[4]={1,1,1,0};
  67:main.c        ****     uint8_t nbr_ancle_find=0;
  68:main.c        ****     uint8_t SlaveSave;
  69:main.c        ****     uint8_t next_slave=1;
  70:main.c        ****     uint8_t isempty=0;
  71:main.c        **** 
  72:main.c        **** 	LED_1_Write(LIGHT_OFF);
  73:main.c        ****     LED_2_Write(LIGHT_OFF);
  74:main.c        ****     LED_3_Write(LIGHT_OFF);
  75:main.c        ****     LED_4_Write(LIGHT_OFF);
  76:main.c        ****     
  77:main.c        ****     /* Enable global interrupts */
  78:main.c        ****     CyGlobalIntEnable;
  79:main.c        ****     
  80:main.c        ****     /*We need to start the USB connection and choose the power supply */
  81:main.c        ****     USBP_Start(0, USBP_DWR_VDDD_OPERATION);
  82:main.c        ****     
  83:main.c        **** 	/* We need to start Character LCD, Timer, SPI Master and Slave components */
  84:main.c        ****     Timer_1_Start();
  85:main.c        ****     SPIM_Start();
  86:main.c        ****     
  87:main.c        **** 	/* initialisation of the DecaWave */
ARM GAS  C:\Users\PIERRE~1\AppData\Local\Temp\ccosKNXH.s 			page 3


  88:main.c        **** 	CyDelay(10u); //time for the DW to go from Wakeup to init and then IDLE
  89:main.c        **** 	DWM_Init();
  90:main.c        ****     
  91:main.c        ****     /* Sets up the GPIO interrupt and enables it */
  92:main.c        ****     IRQ_StartEx(ISR);
  93:main.c        ****     IRQ_SetPriority(DEFAULT_PRIORITY);
  94:main.c        ****     
  95:main.c        ****     while(!USBP_bGetConfiguration());
  96:main.c        **** 	for(;;){
  97:main.c        ****         USBP_EnableOutEP(2);
  98:main.c        ****         while(USBP_bGetEPAckState(2)==USBP_OUT_BUFFER_EMPTY)
  99:main.c        ****         number_bytes_receive=USBP_GetEPCount(2);
 100:main.c        **** 	    USBP_ReadOutEP(2,RxPhoneData,number_bytes_receive);
 101:main.c        ****         USBP_DisableOutEP(2);
 102:main.c        ****         if(RxPhoneData[0]==0x04 && RxPhoneData[1]==0x06){   //test connection
 103:main.c        ****             TxPhoneData[0]=0x02;
 104:main.c        ****             TxPhoneData[1]=0x03;
 105:main.c        ****             TxPhoneData[2]=0x46;
 106:main.c        ****             TxPhoneData[3]=0x37;
 107:main.c        ****             USBP_LoadInEP(1,TxPhoneData,4);
 108:main.c        ****         }  
 109:main.c        ****         while(RxPhoneData[0]==0x01){   //Localization message
 110:main.c        ****             state = STATE_INIT;
 111:main.c        ****             
 112:main.c        ****             //SlaveNummer=find_slave_nummer(All_ancle, SlaveNummer); 
 113:main.c        ****             SlaveSave=SlaveNummer;
 114:main.c        ****             while(SlaveNummer==SlaveSave){
 115:main.c        ****                 if(next_slave>NUMBER_OF_ANCHOR)next_slave=1;
 116:main.c        ****                 isempty=0;
 117:main.c        ****                 for(int u=0;u<NUMBER_OF_ANCHOR;u++)if(All_ancle[u]==1)isempty=1;
 118:main.c        ****                 
 119:main.c        ****                 if(All_ancle[next_slave-1]==1){
 120:main.c        ****                     SlaveNummer=next_slave;
 121:main.c        ****                     All_ancle[next_slave-1]=0;
 122:main.c        ****                 }
 123:main.c        ****                 else if(All_ancle[next_slave-1]!=2 && isempty==0)SlaveNummer=next_slave;
 124:main.c        ****                 next_slave++;
 125:main.c        ****             }
 126:main.c        ****             
 127:main.c        ****             Timer_1_Enable();   //Timer
 128:main.c        ****             rst_in_Write(1u);   //reset timer
 129:main.c        ****             CyDelay(1u);
 130:main.c        ****             rst_in_Write(0u);
 131:main.c        ****             while(nbr_ancle_find<4 && Timer_1_ReadCounter()>0x001F){
 132:main.c        ****     		    switch(state){
 133:main.c        ****         			case STATE_INIT :
 134:main.c        ****                             LED_1_Write(LIGHT_OFF);
 135:main.c        ****                             LED_2_Write(LIGHT_OFF);
 136:main.c        ****                             LED_3_Write(LIGHT_OFF);
 137:main.c        ****                             LED_4_Write(LIGHT_OFF);
 138:main.c        ****                             idle();
 139:main.c        ****         					RxError = 0;
 140:main.c        ****         					TxOk = 0;
 141:main.c        ****         					RxOk = 0;
 142:main.c        ****                             
 143:main.c        ****         					master_first_message = 0x10 | SlaveNummer;
 144:main.c        ****         					master_second_message	= 0x20 | SlaveNummer;
ARM GAS  C:\Users\PIERRE~1\AppData\Local\Temp\ccosKNXH.s 			page 4


 145:main.c        ****         				    slave_standard_message	= 0x0A | SlaveNummer<<4;
 146:main.c        ****         					
 147:main.c        ****                             TxData[0] = master_first_message;
 148:main.c        ****                             DWM_SendData(TxData,1,1);
 149:main.c        ****         					state = STATE_WAIT_FIRST_SEND;
 150:main.c        ****         			break;
 151:main.c        ****                             
 152:main.c        ****         			case STATE_WAIT_FIRST_SEND :
 153:main.c        ****                             if(inter==1){
 154:main.c        ****                                 interrupt_routine();
 155:main.c        ****                             }
 156:main.c        ****         					if (TxOk){
 157:main.c        ****         							DWM_ReadSPI_ext(TX_TIME, NO_SUB, t1_8, 5);//get tx time (T1)
 158:main.c        ****         							TxOk = 0;
 159:main.c        ****                                     idle();
 160:main.c        ****                                     DWM_Enable_Rx();
 161:main.c        ****                                     state = STATE_WAIT_RESPONSE;
 162:main.c        ****                                     LED_1_Write(LIGHT_ON);
 163:main.c        ****         						}
 164:main.c        ****         			break;
 165:main.c        ****                             
 166:main.c        ****         			case STATE_WAIT_RESPONSE:
 167:main.c        ****                             if(inter==1){
 168:main.c        ****                                 interrupt_routine();
 169:main.c        ****                             }
 170:main.c        ****         					if (RxError){
 171:main.c        ****         						RxError = 0;
 172:main.c        ****                                 DWM_Reset_Rx();
 173:main.c        ****         						state = STATE_INIT;
 174:main.c        ****         					}
 175:main.c        ****         					else if (RxOk){
 176:main.c        ****                                 LED_2_Write(LIGHT_ON);
 177:main.c        ****         						DWM_ReceiveData(RxData); 	// Read Rx buffer
 178:main.c        ****         						if (RxData[0] == slave_standard_message){   // Check RxFrame
 179:main.c        ****                                     DWM_ReadSPI_ext(RX_TIME,NO_SUB, t4_8,5);// get T4
 180:main.c        ****         							state = STATE_SECOND_SEND;
 181:main.c        ****         						}
 182:main.c        ****         						else state = STATE_INIT;
 183:main.c        ****         						RxOk = 0;
 184:main.c        ****         					}
 185:main.c        ****         			break;
 186:main.c        ****                             
 187:main.c        ****         			case STATE_SECOND_SEND:	
 188:main.c        ****                             idle();
 189:main.c        ****             				TxData[0] = master_second_message;
 190:main.c        ****             				DWM_SendData(TxData, 1, 1);
 191:main.c        ****             				state = STATE_WAIT_SECOND_SEND;
 192:main.c        ****         			break;
 193:main.c        ****                             
 194:main.c        ****         			case STATE_WAIT_SECOND_SEND:
 195:main.c        ****                             if(inter==1){
 196:main.c        ****                                 interrupt_routine();
 197:main.c        ****                             }
 198:main.c        ****         					if (TxOk){
 199:main.c        ****                                 LED_3_Write(LIGHT_ON);
 200:main.c        ****         							DWM_ReadSPI_ext(TX_TIME, NO_SUB, t5_8, 5);	//get tx time (T5)
 201:main.c        ****         							state = STATE_GET_TIMES;
ARM GAS  C:\Users\PIERRE~1\AppData\Local\Temp\ccosKNXH.s 			page 5


 202:main.c        ****                                     idle();
 203:main.c        ****                                     DWM_Enable_Rx();
 204:main.c        ****         							TxOk = 0;
 205:main.c        ****         					}
 206:main.c        ****         			break;
 207:main.c        ****                             
 208:main.c        ****         			case STATE_GET_TIMES :
 209:main.c        ****                             if(inter==1){
 210:main.c        ****                                 interrupt_routine();
 211:main.c        ****                             }
 212:main.c        ****         					if (RxError){
 213:main.c        ****         						state = STATE_INIT;
 214:main.c        ****                                 DWM_Reset_Rx();
 215:main.c        ****         						RxError = 0;
 216:main.c        ****         					}
 217:main.c        ****         					else if (RxOk){
 218:main.c        ****                                 LED_4_Write(LIGHT_ON);
 219:main.c        ****         						DWM_ReceiveData(RxData);	//Read Rx Buffer
 220:main.c        ****         						for (int i=0;i<5;i++){
 221:main.c        ****         							t2_8[i] = RxData[i];
 222:main.c        ****         							t3_8[i] = RxData[i+5];
 223:main.c        ****         							t6_8[i] = RxData[i+10];
 224:main.c        ****         						}
 225:main.c        ****                                
 226:main.c        ****         						// Cast all times to uint64
 227:main.c        ****         						t1 = t2 = t3 = t4 = t5 = t6 = 0;
 228:main.c        ****         						for (int i=0;i<5;i++){
 229:main.c        ****         							t1 = (t1 << 8) | t1_8[4-i];
 230:main.c        ****         							t2 = (t2 << 8) | t2_8[4-i];
 231:main.c        ****         							t3 = (t3 << 8) | t3_8[4-i];
 232:main.c        ****         							t4 = (t4 << 8) | t4_8[4-i];
 233:main.c        ****         							t5 = (t5 << 8) | t5_8[4-i];
 234:main.c        ****         							t6 = (t6 << 8) | t6_8[4-i];
 235:main.c        ****         						}
 236:main.c        ****         						if (t6 < t2 || t5 < t1){
 237:main.c        ****         							state = STATE_INIT;
 238:main.c        ****         						}
 239:main.c        ****         						else{
 240:main.c        ****         							state = STATE_END;
 241:main.c        ****         							RxOk = 0;
 242:main.c        ****         						}
 243:main.c        ****         					}
 244:main.c        ****         			break;
 245:main.c        ****         			
 246:main.c        ****         			case STATE_END :
 247:main.c        ****                         TroundMaster = (t4-t1);         //Time calculation
 248:main.c        ****         				TreplySlave = (t3-t2);
 249:main.c        ****         				TroundSlave = (t6-t3);
 250:main.c        ****         				TreplyMaster = (t5-t4);
 251:main.c        ****                         all_clock_time[4*nbr_ancle_find]=TroundMaster;      //Time are save
 252:main.c        ****                         all_clock_time[4*nbr_ancle_find+1]=TroundSlave;
 253:main.c        ****                         all_clock_time[4*nbr_ancle_find+2]=TreplyMaster;
 254:main.c        ****                         all_clock_time[4*nbr_ancle_find+3]=TreplySlave;
 255:main.c        ****                         
 256:main.c        ****                         state = STATE_INIT;
 257:main.c        ****         			break;
 258:main.c        ****         		}
ARM GAS  C:\Users\PIERRE~1\AppData\Local\Temp\ccosKNXH.s 			page 6


 259:main.c        ****             }
 260:main.c        ****             
 261:main.c        ****             Timer_1_Stop();     //end timer
 262:main.c        ****             if(all_clock_time[0]!=0 && nbr_ancle_find==0){           //check if one transaction is 
 263:main.c        ****                 if(SlaveNummer==1)LED_1_Write(LIGHT_ON);
 264:main.c        ****                 if(SlaveNummer==2)LED_2_Write(LIGHT_ON);
 265:main.c        ****                 if(SlaveNummer==3)LED_3_Write(LIGHT_ON);
 266:main.c        ****                 if(SlaveNummer==4)LED_4_Write(LIGHT_ON);
 267:main.c        ****                 nbr_ancle_find++;
 268:main.c        ****                 All_ancle[SlaveNummer-1]=2;
 269:main.c        ****                 TxPhoneData[60]=SlaveNummer;
 270:main.c        ****             }
 271:main.c        ****             else if(all_clock_time[4]!=0 && nbr_ancle_find==1){      //check if 2 transactions are 
 272:main.c        ****                 nbr_ancle_find++;
 273:main.c        ****                 All_ancle[SlaveNummer-1]=2;
 274:main.c        ****                 TxPhoneData[61]=SlaveNummer;
 275:main.c        ****             }
 276:main.c        ****             else if(all_clock_time[8]!=0 && nbr_ancle_find==2){      //check if 3 transactions are 
 277:main.c        ****                 nbr_ancle_find++;
 278:main.c        ****                 All_ancle[SlaveNummer-1]=2;
 279:main.c        ****                 TxPhoneData[62]=SlaveNummer;
 280:main.c        ****             }
 281:main.c        ****             
 282:main.c        ****             if(nbr_ancle_find==3){                      //transactions are done
 283:main.c        ****                 for(int i=0;i<12;i++){                  // Preparation of data
 284:main.c        ****                             TxPhoneData[5*i]=all_clock_time[i];       
 285:main.c        ****                             TxPhoneData[5*i+1]=all_clock_time[i]>>8;       
 286:main.c        ****                             TxPhoneData[5*i+2]=all_clock_time[i]>>16;       
 287:main.c        ****                             TxPhoneData[5*i+3]=all_clock_time[i]>>24;       
 288:main.c        ****                             TxPhoneData[5*i+4]=all_clock_time[i]>>32;  
 289:main.c        ****                             all_clock_time[i]=0;
 290:main.c        ****                 }
 291:main.c        ****                 USBP_LoadInEP(1,TxPhoneData,63);        //Data sending
 292:main.c        ****                 
 293:main.c        ****                 RxPhoneData[0]=0x00;                    //End of the while >> All data are collecte
 294:main.c        ****                 nbr_ancle_find=0;
 295:main.c        ****                 All_ancle[TxPhoneData[60]-1]=1;         //Initialisation for the next localisation
 296:main.c        ****                 All_ancle[TxPhoneData[61]-1]=1;
 297:main.c        ****                 All_ancle[TxPhoneData[62]-1]=1;
 298:main.c        ****                 LED_1_Write(LIGHT_OFF);                 //All LED are switch off
 299:main.c        ****                 LED_2_Write(LIGHT_OFF);
 300:main.c        ****                 LED_3_Write(LIGHT_OFF);
 301:main.c        ****                 LED_4_Write(LIGHT_OFF);
 302:main.c        ****             }
 303:main.c        ****             
 304:main.c        ****         }
 305:main.c        **** 	}
 306:main.c        **** }
 307:main.c        **** 
 308:main.c        **** 
 309:main.c        **** //interrupt management
 310:main.c        **** 
 311:main.c        **** CY_ISR(ISR){
  28              		.loc 1 311 0
  29              		.cfi_startproc
  30              		@ args = 0, pretend = 0, frame = 0
  31              		@ frame_needed = 0, uses_anonymous_args = 0
ARM GAS  C:\Users\PIERRE~1\AppData\Local\Temp\ccosKNXH.s 			page 7


  32 0000 08B5     		push	{r3, lr}
  33              		.cfi_def_cfa_offset 8
  34              		.cfi_offset 3, -8
  35              		.cfi_offset 14, -4
 312:main.c        ****     IRQ_ClearPending();    /* Clear pending Interrupt */
  36              		.loc 1 312 0
  37 0002 FFF7FEFF 		bl	IRQ_ClearPending
  38              	.LVL0:
 313:main.c        ****     pin_1_ClearInterrupt();    /* Clear pin Interrupt */
  39              		.loc 1 313 0
  40 0006 FFF7FEFF 		bl	pin_1_ClearInterrupt
  41              	.LVL1:
 314:main.c        **** 	inter = 1;
  42              		.loc 1 314 0
  43 000a 0122     		movs	r2, #1
  44 000c 014B     		ldr	r3, .L3
  45 000e 1A70     		strb	r2, [r3]
  46 0010 08BD     		pop	{r3, pc}
  47              	.L4:
  48 0012 00BF     		.align	2
  49              	.L3:
  50 0014 00000000 		.word	.LANCHOR0
  51              		.cfi_endproc
  52              	.LFE65:
  53              		.size	ISR, .-ISR
  54              		.section	.text.interrupt_routine,"ax",%progbits
  55              		.align	2
  56              		.global	interrupt_routine
  57              		.thumb
  58              		.thumb_func
  59              		.type	interrupt_routine, %function
  60              	interrupt_routine:
  61              	.LFB66:
 315:main.c        **** }
 316:main.c        ****     
 317:main.c        **** void interrupt_routine(void){
  62              		.loc 1 317 0
  63              		.cfi_startproc
  64              		@ args = 0, pretend = 0, frame = 8
  65              		@ frame_needed = 0, uses_anonymous_args = 0
  66 0000 10B5     		push	{r4, lr}
  67              		.cfi_def_cfa_offset 8
  68              		.cfi_offset 4, -8
  69              		.cfi_offset 14, -4
  70 0002 82B0     		sub	sp, sp, #8
  71              		.cfi_def_cfa_offset 16
 318:main.c        **** 	uint8_t RxBuffer[4];
 319:main.c        **** 	uint32_t StatusRegister;
 320:main.c        **** 	uint8_t ack[4] = {0};
  72              		.loc 1 320 0
  73 0004 0023     		movs	r3, #0
  74 0006 0093     		str	r3, [sp]
 321:main.c        **** 	// Getting status Register
 322:main.c        **** 	DWM_ReadSPI_ext(SYS_STATUS, NO_SUB,  RxBuffer, 4);
  75              		.loc 1 322 0
  76 0008 0423     		movs	r3, #4
  77 000a 0DEB0302 		add	r2, sp, r3
ARM GAS  C:\Users\PIERRE~1\AppData\Local\Temp\ccosKNXH.s 			page 8


  78 000e 4FF6FF71 		movw	r1, #65535
  79 0012 0F20     		movs	r0, #15
  80 0014 FFF7FEFF 		bl	DWM_ReadSPI_ext
  81              	.LVL2:
 323:main.c        **** 	StatusRegister  = (RxBuffer[3] << 24) | (RxBuffer[2] << 16) | (RxBuffer[1] << 8) | RxBuffer[0];
  82              		.loc 1 323 0
  83 0018 9DF80740 		ldrb	r4, [sp, #7]	@ zero_extendqisi2
  84 001c 9DF80630 		ldrb	r3, [sp, #6]	@ zero_extendqisi2
  85 0020 1B04     		lsls	r3, r3, #16
  86 0022 43EA0464 		orr	r4, r3, r4, lsl #24
  87 0026 9DF80530 		ldrb	r3, [sp, #5]	@ zero_extendqisi2
  88 002a 44EA0323 		orr	r3, r4, r3, lsl #8
  89 002e 9DF80440 		ldrb	r4, [sp, #4]	@ zero_extendqisi2
  90 0032 1C43     		orrs	r4, r4, r3
  91              	.LVL3:
 324:main.c        **** 	if (StatusRegister == 0xFFFFFFFF) {
  92              		.loc 1 324 0
  93 0034 B4F1FF3F 		cmp	r4, #-1
  94 0038 15D1     		bne	.L6
 325:main.c        **** 		// Read again
 326:main.c        **** 		DWM_ReadSPI_ext(SYS_STATUS, NO_SUB,  RxBuffer, 4);
  95              		.loc 1 326 0
  96 003a 0423     		movs	r3, #4
  97 003c 0DEB0302 		add	r2, sp, r3
  98 0040 4FF6FF71 		movw	r1, #65535
  99 0044 0F20     		movs	r0, #15
 100 0046 FFF7FEFF 		bl	DWM_ReadSPI_ext
 101              	.LVL4:
 327:main.c        **** 		StatusRegister  = (RxBuffer[3] << 24) | (RxBuffer[2] << 16) | (RxBuffer[1] << 8) | RxBuffer[0];
 102              		.loc 1 327 0
 103 004a 9DF80740 		ldrb	r4, [sp, #7]	@ zero_extendqisi2
 104              	.LVL5:
 105 004e 9DF80630 		ldrb	r3, [sp, #6]	@ zero_extendqisi2
 106 0052 1B04     		lsls	r3, r3, #16
 107 0054 43EA0463 		orr	r3, r3, r4, lsl #24
 108 0058 9DF80540 		ldrb	r4, [sp, #5]	@ zero_extendqisi2
 109 005c 43EA0423 		orr	r3, r3, r4, lsl #8
 110 0060 9DF80440 		ldrb	r4, [sp, #4]	@ zero_extendqisi2
 111 0064 1C43     		orrs	r4, r4, r3
 112              	.LVL6:
 113              	.L6:
 328:main.c        **** 	}
 329:main.c        **** 	if (StatusRegister & TX_OK_MASK){
 114              		.loc 1 329 0
 115 0066 14F0800F 		tst	r4, #128
 116 006a 07D0     		beq	.L7
 330:main.c        **** 		TxOk = 1;
 117              		.loc 1 330 0
 118 006c 0123     		movs	r3, #1
 119 006e 1C4A     		ldr	r2, .L11
 120 0070 5370     		strb	r3, [r2, #1]
 331:main.c        **** 		setBit(ack, 4, TX_OK_BIT, 1);
 121              		.loc 1 331 0
 122 0072 0722     		movs	r2, #7
 123 0074 0421     		movs	r1, #4
 124 0076 6846     		mov	r0, sp
 125 0078 FFF7FEFF 		bl	setBit
ARM GAS  C:\Users\PIERRE~1\AppData\Local\Temp\ccosKNXH.s 			page 9


 126              	.LVL7:
 127              	.L7:
 332:main.c        **** 	}
 333:main.c        **** 	// check if RX finished
 334:main.c        ****     if((StatusRegister & RX_FINISHED_MASK) == RX_FINISHED_MASK){
 128              		.loc 1 334 0
 129 007c 04F4C843 		and	r3, r4, #25600
 130 0080 B3F5C84F 		cmp	r3, #25600
 131 0084 08D1     		bne	.L8
 335:main.c        ****     	ack[0] |= RX_FINISHED_MASK;
 336:main.c        **** 		ack[1] |= RX_FINISHED_MASK >> 8;
 132              		.loc 1 336 0
 133 0086 9DF80130 		ldrb	r3, [sp, #1]	@ zero_extendqisi2
 134 008a 43F06403 		orr	r3, r3, #100
 135 008e 8DF80130 		strb	r3, [sp, #1]
 337:main.c        **** 		ack[2] |= RX_FINISHED_MASK >> 16;
 338:main.c        **** 		ack[3] |= RX_FINISHED_MASK >> 24;
 339:main.c        **** 		RxOk = 1;
 136              		.loc 1 339 0
 137 0092 0122     		movs	r2, #1
 138 0094 124B     		ldr	r3, .L11
 139 0096 9A70     		strb	r2, [r3, #2]
 140              	.L8:
 340:main.c        **** 	}
 341:main.c        **** 	if (StatusRegister & RX_ERROR_MASK) {
 141              		.loc 1 341 0
 142 0098 124B     		ldr	r3, .L11+4
 143 009a 1C42     		tst	r4, r3
 144 009c 14D0     		beq	.L9
 342:main.c        **** 		ack[0] |= RX_ERROR_MASK;
 343:main.c        **** 		ack[1] |= RX_ERROR_MASK >> 8;
 145              		.loc 1 343 0
 146 009e 9DF80130 		ldrb	r3, [sp, #1]	@ zero_extendqisi2
 147 00a2 63F06F03 		orn	r3, r3, #111
 148 00a6 8DF80130 		strb	r3, [sp, #1]
 344:main.c        **** 		ack[2] |= RX_ERROR_MASK >> 16;
 149              		.loc 1 344 0
 150 00aa 9DF80230 		ldrb	r3, [sp, #2]	@ zero_extendqisi2
 151 00ae 43F02703 		orr	r3, r3, #39
 152 00b2 8DF80230 		strb	r3, [sp, #2]
 345:main.c        **** 		ack[3] |= RX_ERROR_MASK >> 24;
 153              		.loc 1 345 0
 154 00b6 9DF80330 		ldrb	r3, [sp, #3]	@ zero_extendqisi2
 155 00ba 43F00403 		orr	r3, r3, #4
 156 00be 8DF80330 		strb	r3, [sp, #3]
 346:main.c        **** 		RxError = 1;
 157              		.loc 1 346 0
 158 00c2 0122     		movs	r2, #1
 159 00c4 064B     		ldr	r3, .L11
 160 00c6 DA70     		strb	r2, [r3, #3]
 161              	.L9:
 347:main.c        ****     }
 348:main.c        ****     
 349:main.c        **** 	// clear IRQ flags on DW
 350:main.c        **** 	DWM_WriteSPI_ext(SYS_STATUS, NO_SUB, ack, 4);
 162              		.loc 1 350 0
 163 00c8 0423     		movs	r3, #4
ARM GAS  C:\Users\PIERRE~1\AppData\Local\Temp\ccosKNXH.s 			page 10


 164 00ca 6A46     		mov	r2, sp
 165 00cc 4FF6FF71 		movw	r1, #65535
 166 00d0 0F20     		movs	r0, #15
 167 00d2 FFF7FEFF 		bl	DWM_WriteSPI_ext
 168              	.LVL8:
 351:main.c        ****     inter=0;
 169              		.loc 1 351 0
 170 00d6 0022     		movs	r2, #0
 171 00d8 014B     		ldr	r3, .L11
 172 00da 1A70     		strb	r2, [r3]
 352:main.c        **** }
 173              		.loc 1 352 0
 174 00dc 02B0     		add	sp, sp, #8
 175              		.cfi_def_cfa_offset 8
 176              		@ sp needed
 177 00de 10BD     		pop	{r4, pc}
 178              	.LVL9:
 179              	.L12:
 180              		.align	2
 181              	.L11:
 182 00e0 00000000 		.word	.LANCHOR0
 183 00e4 00902704 		.word	69701632
 184              		.cfi_endproc
 185              	.LFE66:
 186              		.size	interrupt_routine, .-interrupt_routine
 187              		.section	.text.main,"ax",%progbits
 188              		.align	2
 189              		.global	main
 190              		.thumb
 191              		.thumb_func
 192              		.type	main, %function
 193              	main:
 194              	.LFB64:
  64:main.c        ****     uint8_t SlaveNummer=1;
 195              		.loc 1 64 0
 196              		.cfi_startproc
 197              		@ args = 0, pretend = 0, frame = 72
 198              		@ frame_needed = 0, uses_anonymous_args = 0
 199 0000 2DE9F04F 		push	{r4, r5, r6, r7, r8, r9, r10, fp, lr}
 200              		.cfi_def_cfa_offset 36
 201              		.cfi_offset 4, -36
 202              		.cfi_offset 5, -32
 203              		.cfi_offset 6, -28
 204              		.cfi_offset 7, -24
 205              		.cfi_offset 8, -20
 206              		.cfi_offset 9, -16
 207              		.cfi_offset 10, -12
 208              		.cfi_offset 11, -8
 209              		.cfi_offset 14, -4
 210 0004 93B0     		sub	sp, sp, #76
 211              		.cfi_def_cfa_offset 112
 212              	.LVL10:
  66:main.c        ****     uint8_t nbr_ancle_find=0;
 213              		.loc 1 66 0
 214 0006 C44B     		ldr	r3, .L73
 215 0008 1868     		ldr	r0, [r3]	@ unaligned
 216 000a 1190     		str	r0, [sp, #68]	@ unaligned
ARM GAS  C:\Users\PIERRE~1\AppData\Local\Temp\ccosKNXH.s 			page 11


 217              	.LVL11:
  72:main.c        ****     LED_2_Write(LIGHT_OFF);
 218              		.loc 1 72 0
 219 000c 0020     		movs	r0, #0
 220 000e FFF7FEFF 		bl	LED_1_Write
 221              	.LVL12:
  73:main.c        ****     LED_3_Write(LIGHT_OFF);
 222              		.loc 1 73 0
 223 0012 0020     		movs	r0, #0
 224 0014 FFF7FEFF 		bl	LED_2_Write
 225              	.LVL13:
  74:main.c        ****     LED_4_Write(LIGHT_OFF);
 226              		.loc 1 74 0
 227 0018 0020     		movs	r0, #0
 228 001a FFF7FEFF 		bl	LED_3_Write
 229              	.LVL14:
  75:main.c        ****     
 230              		.loc 1 75 0
 231 001e 0020     		movs	r0, #0
 232 0020 FFF7FEFF 		bl	LED_4_Write
 233              	.LVL15:
  78:main.c        ****     
 234              		.loc 1 78 0
 235              		.syntax unified
 236              	@ 78 "main.c" 1
 237 0024 62B6     		CPSIE   i
 238              	@ 0 "" 2
  81:main.c        ****     
 239              		.loc 1 81 0
 240              		.thumb
 241              		.syntax unified
 242 0026 0221     		movs	r1, #2
 243 0028 0020     		movs	r0, #0
 244 002a FFF7FEFF 		bl	USBP_Start
 245              	.LVL16:
  84:main.c        ****     SPIM_Start();
 246              		.loc 1 84 0
 247 002e FFF7FEFF 		bl	Timer_1_Start
 248              	.LVL17:
  85:main.c        ****     
 249              		.loc 1 85 0
 250 0032 FFF7FEFF 		bl	SPIM_Start
 251              	.LVL18:
  88:main.c        **** 	DWM_Init();
 252              		.loc 1 88 0
 253 0036 0A20     		movs	r0, #10
 254 0038 FFF7FEFF 		bl	CyDelay
 255              	.LVL19:
  89:main.c        ****     
 256              		.loc 1 89 0
 257 003c FFF7FEFF 		bl	DWM_Init
 258              	.LVL20:
  92:main.c        ****     IRQ_SetPriority(DEFAULT_PRIORITY);
 259              		.loc 1 92 0
 260 0040 B648     		ldr	r0, .L73+4
 261 0042 FFF7FEFF 		bl	IRQ_StartEx
 262              	.LVL21:
ARM GAS  C:\Users\PIERRE~1\AppData\Local\Temp\ccosKNXH.s 			page 12


  93:main.c        ****     
 263              		.loc 1 93 0
 264 0046 0320     		movs	r0, #3
 265 0048 FFF7FEFF 		bl	IRQ_SetPriority
 266              	.LVL22:
 267              	.L14:
  95:main.c        **** 	for(;;){
 268              		.loc 1 95 0 discriminator 1
 269 004c FFF7FEFF 		bl	USBP_GetConfiguration
 270              	.LVL23:
 271 0050 0028     		cmp	r0, #0
 272 0052 FBD0     		beq	.L14
 273 0054 4FF0010A 		mov	r10, #1
 274 0058 4FF0000B 		mov	fp, #0
 275 005c 5546     		mov	r5, r10
 276              	.LVL24:
 277              	.L65:
  97:main.c        ****         while(USBP_bGetEPAckState(2)==USBP_OUT_BUFFER_EMPTY)
 278              		.loc 1 97 0
 279 005e 0220     		movs	r0, #2
 280 0060 FFF7FEFF 		bl	USBP_EnableOutEP
 281              	.LVL25:
  98:main.c        ****         number_bytes_receive=USBP_GetEPCount(2);
 282              		.loc 1 98 0
 283 0064 04E0     		b	.L15
 284              	.L16:
  99:main.c        **** 	    USBP_ReadOutEP(2,RxPhoneData,number_bytes_receive);
 285              		.loc 1 99 0
 286 0066 0220     		movs	r0, #2
 287 0068 FFF7FEFF 		bl	USBP_GetEPCount
 288              	.LVL26:
 289 006c AC4B     		ldr	r3, .L73+8
 290 006e 9880     		strh	r0, [r3, #4]	@ movhi
 291              	.L15:
  98:main.c        ****         number_bytes_receive=USBP_GetEPCount(2);
 292              		.loc 1 98 0
 293 0070 0220     		movs	r0, #2
 294 0072 FFF7FEFF 		bl	USBP_GetEPAckState
 295              	.LVL27:
 296 0076 0028     		cmp	r0, #0
 297 0078 F5D0     		beq	.L16
 100:main.c        ****         USBP_DisableOutEP(2);
 298              		.loc 1 100 0
 299 007a A94C     		ldr	r4, .L73+8
 300 007c A288     		ldrh	r2, [r4, #4]
 301 007e 04F10801 		add	r1, r4, #8
 302 0082 0220     		movs	r0, #2
 303 0084 FFF7FEFF 		bl	USBP_ReadOutEP
 304              	.LVL28:
 101:main.c        ****         if(RxPhoneData[0]==0x04 && RxPhoneData[1]==0x06){   //test connection
 305              		.loc 1 101 0
 306 0088 0220     		movs	r0, #2
 307 008a FFF7FEFF 		bl	USBP_DisableOutEP
 308              	.LVL29:
 102:main.c        ****             TxPhoneData[0]=0x02;
 309              		.loc 1 102 0
 310 008e 237A     		ldrb	r3, [r4, #8]	@ zero_extendqisi2
ARM GAS  C:\Users\PIERRE~1\AppData\Local\Temp\ccosKNXH.s 			page 13


 311 0090 042B     		cmp	r3, #4
 312 0092 40F06583 		bne	.L18
 102:main.c        ****             TxPhoneData[0]=0x02;
 313              		.loc 1 102 0 is_stmt 0 discriminator 1
 314 0096 637A     		ldrb	r3, [r4, #9]	@ zero_extendqisi2
 315 0098 062B     		cmp	r3, #6
 316 009a 40F06183 		bne	.L18
 103:main.c        ****             TxPhoneData[1]=0x03;
 317              		.loc 1 103 0 is_stmt 1
 318 009e 2146     		mov	r1, r4
 319 00a0 0223     		movs	r3, #2
 320 00a2 2374     		strb	r3, [r4, #16]
 104:main.c        ****             TxPhoneData[2]=0x46;
 321              		.loc 1 104 0
 322 00a4 0323     		movs	r3, #3
 323 00a6 6374     		strb	r3, [r4, #17]
 105:main.c        ****             TxPhoneData[3]=0x37;
 324              		.loc 1 105 0
 325 00a8 4623     		movs	r3, #70
 326 00aa A374     		strb	r3, [r4, #18]
 106:main.c        ****             USBP_LoadInEP(1,TxPhoneData,4);
 327              		.loc 1 106 0
 328 00ac 3723     		movs	r3, #55
 329 00ae E374     		strb	r3, [r4, #19]
 107:main.c        ****         }  
 330              		.loc 1 107 0
 331 00b0 0422     		movs	r2, #4
 332 00b2 1031     		adds	r1, r1, #16
 333 00b4 0120     		movs	r0, #1
 334 00b6 FFF7FEFF 		bl	USBP_LoadInEP
 335              	.LVL30:
 336 00ba 51E3     		b	.L18
 337              	.L64:
 110:main.c        ****             
 338              		.loc 1 110 0
 339 00bc 0022     		movs	r2, #0
 340 00be 984B     		ldr	r3, .L73+8
 341 00c0 83F84F20 		strb	r2, [r3, #79]
 342              	.LVL31:
 114:main.c        ****                 if(next_slave>NUMBER_OF_ANCHOR)next_slave=1;
 343              		.loc 1 114 0
 344 00c4 A846     		mov	r8, r5
 345 00c6 28E0     		b	.L19
 346              	.LVL32:
 347              	.L26:
 115:main.c        ****                 isempty=0;
 348              		.loc 1 115 0
 349 00c8 BAF1040F 		cmp	r10, #4
 350 00cc 01D9     		bls	.L20
 351 00ce 4FF0010A 		mov	r10, #1
 352              	.LVL33:
 353              	.L20:
 354              	.LBB2:
 117:main.c        ****                 
 355              		.loc 1 117 0
 356 00d2 0023     		movs	r3, #0
 357              	.LBE2:
ARM GAS  C:\Users\PIERRE~1\AppData\Local\Temp\ccosKNXH.s 			page 14


 116:main.c        ****                 for(int u=0;u<NUMBER_OF_ANCHOR;u++)if(All_ancle[u]==1)isempty=1;
 358              		.loc 1 116 0
 359 00d4 1946     		mov	r1, r3
 360              	.LBB3:
 117:main.c        ****                 
 361              		.loc 1 117 0
 362 00d6 07E0     		b	.L21
 363              	.LVL34:
 364              	.L23:
 117:main.c        ****                 
 365              		.loc 1 117 0 is_stmt 0 discriminator 6
 366 00d8 12AA     		add	r2, sp, #72
 367 00da 1A44     		add	r2, r2, r3
 368 00dc 12F8042C 		ldrb	r2, [r2, #-4]	@ zero_extendqisi2
 369 00e0 012A     		cmp	r2, #1
 370 00e2 00D1     		bne	.L22
 117:main.c        ****                 
 371              		.loc 1 117 0
 372 00e4 0121     		movs	r1, #1
 373              	.LVL35:
 374              	.L22:
 117:main.c        ****                 
 375              		.loc 1 117 0 discriminator 4
 376 00e6 0133     		adds	r3, r3, #1
 377              	.LVL36:
 378              	.L21:
 117:main.c        ****                 
 379              		.loc 1 117 0 discriminator 5
 380 00e8 032B     		cmp	r3, #3
 381 00ea F5DD     		ble	.L23
 382              	.LBE3:
 119:main.c        ****                     SlaveNummer=next_slave;
 383              		.loc 1 119 0 is_stmt 1
 384 00ec 0AF1FF33 		add	r3, r10, #-1
 385              	.LVL37:
 386 00f0 12AA     		add	r2, sp, #72
 387 00f2 1A44     		add	r2, r2, r3
 388 00f4 12F8042C 		ldrb	r2, [r2, #-4]	@ zero_extendqisi2
 389 00f8 012A     		cmp	r2, #1
 390 00fa 06D1     		bne	.L24
 391              	.LVL38:
 121:main.c        ****                 }
 392              		.loc 1 121 0
 393 00fc 12AA     		add	r2, sp, #72
 394 00fe 1344     		add	r3, r3, r2
 395 0100 0022     		movs	r2, #0
 396 0102 03F8042C 		strb	r2, [r3, #-4]
 120:main.c        ****                     All_ancle[next_slave-1]=0;
 397              		.loc 1 120 0
 398 0106 D046     		mov	r8, r10
 399 0108 03E0     		b	.L25
 400              	.LVL39:
 401              	.L24:
 123:main.c        ****                 next_slave++;
 402              		.loc 1 123 0
 403 010a 022A     		cmp	r2, #2
 404 010c 01D0     		beq	.L25
ARM GAS  C:\Users\PIERRE~1\AppData\Local\Temp\ccosKNXH.s 			page 15


 123:main.c        ****                 next_slave++;
 405              		.loc 1 123 0 is_stmt 0 discriminator 1
 406 010e 01B9     		cbnz	r1, .L25
 123:main.c        ****                 next_slave++;
 407              		.loc 1 123 0
 408 0110 D046     		mov	r8, r10
 409              	.LVL40:
 410              	.L25:
 124:main.c        ****             }
 411              		.loc 1 124 0 is_stmt 1
 412 0112 0AF1010A 		add	r10, r10, #1
 413              	.LVL41:
 414 0116 5FFA8AFA 		uxtb	r10, r10
 415              	.LVL42:
 416              	.L19:
 114:main.c        ****                 if(next_slave>NUMBER_OF_ANCHOR)next_slave=1;
 417              		.loc 1 114 0
 418 011a A845     		cmp	r8, r5
 419 011c D4D0     		beq	.L26
 127:main.c        ****             rst_in_Write(1u);   //reset timer
 420              		.loc 1 127 0
 421 011e FFF7FEFF 		bl	Timer_1_Enable
 422              	.LVL43:
 128:main.c        ****             CyDelay(1u);
 423              		.loc 1 128 0
 424 0122 0120     		movs	r0, #1
 425 0124 FFF7FEFF 		bl	rst_in_Write
 426              	.LVL44:
 129:main.c        ****             rst_in_Write(0u);
 427              		.loc 1 129 0
 428 0128 0120     		movs	r0, #1
 429 012a FFF7FEFF 		bl	CyDelay
 430              	.LVL45:
 130:main.c        ****             while(nbr_ancle_find<4 && Timer_1_ReadCounter()>0x001F){
 431              		.loc 1 130 0
 432 012e 0020     		movs	r0, #0
 433 0130 FFF7FEFF 		bl	rst_in_Write
 434              	.LVL46:
 131:main.c        ****     		    switch(state){
 435              		.loc 1 131 0
 436 0134 59E2     		b	.L28
 437              	.LVL47:
 438              	.L53:
 132:main.c        ****         			case STATE_INIT :
 439              		.loc 1 132 0
 440 0136 7A4B     		ldr	r3, .L73+8
 441 0138 93F84F30 		ldrb	r3, [r3, #79]	@ zero_extendqisi2
 442 013c DBB2     		uxtb	r3, r3
 443 013e 062B     		cmp	r3, #6
 444 0140 00F25382 		bhi	.L28
 445 0144 DFE813F0 		tbh	[pc, r3, lsl #1]
 446              	.L30:
 447 0148 0700     		.2byte	(.L29-.L30)/2
 448 014a 3400     		.2byte	(.L31-.L30)/2
 449 014c 5700     		.2byte	(.L32-.L30)/2
 450 014e 9300     		.2byte	(.L33-.L30)/2
 451 0150 A300     		.2byte	(.L34-.L30)/2
ARM GAS  C:\Users\PIERRE~1\AppData\Local\Temp\ccosKNXH.s 			page 16


 452 0152 C600     		.2byte	(.L35-.L30)/2
 453 0154 F401     		.2byte	(.L36-.L30)/2
 454              		.p2align 1
 455              	.L29:
 134:main.c        ****                             LED_2_Write(LIGHT_OFF);
 456              		.loc 1 134 0
 457 0156 0020     		movs	r0, #0
 458 0158 FFF7FEFF 		bl	LED_1_Write
 459              	.LVL48:
 135:main.c        ****                             LED_3_Write(LIGHT_OFF);
 460              		.loc 1 135 0
 461 015c 0020     		movs	r0, #0
 462 015e FFF7FEFF 		bl	LED_2_Write
 463              	.LVL49:
 136:main.c        ****                             LED_4_Write(LIGHT_OFF);
 464              		.loc 1 136 0
 465 0162 0020     		movs	r0, #0
 466 0164 FFF7FEFF 		bl	LED_3_Write
 467              	.LVL50:
 137:main.c        ****                             idle();
 468              		.loc 1 137 0
 469 0168 0020     		movs	r0, #0
 470 016a FFF7FEFF 		bl	LED_4_Write
 471              	.LVL51:
 138:main.c        ****         					RxError = 0;
 472              		.loc 1 138 0
 473 016e FFF7FEFF 		bl	idle
 474              	.LVL52:
 139:main.c        ****         					TxOk = 0;
 475              		.loc 1 139 0
 476 0172 6B4C     		ldr	r4, .L73+8
 477 0174 0023     		movs	r3, #0
 478 0176 E370     		strb	r3, [r4, #3]
 140:main.c        ****         					RxOk = 0;
 479              		.loc 1 140 0
 480 0178 6370     		strb	r3, [r4, #1]
 141:main.c        ****                             
 481              		.loc 1 141 0
 482 017a A370     		strb	r3, [r4, #2]
 143:main.c        ****         					master_second_message	= 0x20 | SlaveNummer;
 483              		.loc 1 143 0
 484 017c 48F01003 		orr	r3, r8, #16
 485 0180 DBB2     		uxtb	r3, r3
 486 0182 684A     		ldr	r2, .L73+12
 487 0184 1370     		strb	r3, [r2]
 144:main.c        ****         				    slave_standard_message	= 0x0A | SlaveNummer<<4;
 488              		.loc 1 144 0
 489 0186 48F02002 		orr	r2, r8, #32
 490 018a 6749     		ldr	r1, .L73+16
 491 018c 0A70     		strb	r2, [r1]
 145:main.c        ****         					
 492              		.loc 1 145 0
 493 018e 4FEA0812 		lsl	r2, r8, #4
 494 0192 42F00A02 		orr	r2, r2, #10
 495 0196 6549     		ldr	r1, .L73+20
 496 0198 0A70     		strb	r2, [r1]
 147:main.c        ****                             DWM_SendData(TxData,1,1);
ARM GAS  C:\Users\PIERRE~1\AppData\Local\Temp\ccosKNXH.s 			page 17


 497              		.loc 1 147 0
 498 019a 2046     		mov	r0, r4
 499 019c 00F8503F 		strb	r3, [r0, #80]!
 148:main.c        ****         					state = STATE_WAIT_FIRST_SEND;
 500              		.loc 1 148 0
 501 01a0 0122     		movs	r2, #1
 502 01a2 1146     		mov	r1, r2
 503 01a4 FFF7FEFF 		bl	DWM_SendData
 504              	.LVL53:
 149:main.c        ****         			break;
 505              		.loc 1 149 0
 506 01a8 0123     		movs	r3, #1
 507 01aa 84F84F30 		strb	r3, [r4, #79]
 150:main.c        ****                             
 508              		.loc 1 150 0
 509 01ae 1CE2     		b	.L28
 510              	.L31:
 153:main.c        ****                                 interrupt_routine();
 511              		.loc 1 153 0
 512 01b0 5B4B     		ldr	r3, .L73+8
 513 01b2 1B78     		ldrb	r3, [r3]	@ zero_extendqisi2
 514 01b4 DBB2     		uxtb	r3, r3
 515 01b6 012B     		cmp	r3, #1
 516 01b8 01D1     		bne	.L38
 154:main.c        ****                             }
 517              		.loc 1 154 0
 518 01ba FFF7FEFF 		bl	interrupt_routine
 519              	.LVL54:
 520              	.L38:
 156:main.c        ****         							DWM_ReadSPI_ext(TX_TIME, NO_SUB, t1_8, 5);//get tx time (T1)
 521              		.loc 1 156 0
 522 01be 584B     		ldr	r3, .L73+8
 523 01c0 5B78     		ldrb	r3, [r3, #1]	@ zero_extendqisi2
 524 01c2 13F0FF0F 		tst	r3, #255
 525 01c6 00F01082 		beq	.L28
 157:main.c        ****         							TxOk = 0;
 526              		.loc 1 157 0
 527 01ca 554C     		ldr	r4, .L73+8
 528 01cc 0523     		movs	r3, #5
 529 01ce 04F1D002 		add	r2, r4, #208
 530 01d2 4FF6FF71 		movw	r1, #65535
 531 01d6 1720     		movs	r0, #23
 532 01d8 FFF7FEFF 		bl	DWM_ReadSPI_ext
 533              	.LVL55:
 158:main.c        ****                                     idle();
 534              		.loc 1 158 0
 535 01dc 0023     		movs	r3, #0
 536 01de 6370     		strb	r3, [r4, #1]
 159:main.c        ****                                     DWM_Enable_Rx();
 537              		.loc 1 159 0
 538 01e0 FFF7FEFF 		bl	idle
 539              	.LVL56:
 160:main.c        ****                                     state = STATE_WAIT_RESPONSE;
 540              		.loc 1 160 0
 541 01e4 FFF7FEFF 		bl	DWM_Enable_Rx
 542              	.LVL57:
 161:main.c        ****                                     LED_1_Write(LIGHT_ON);
ARM GAS  C:\Users\PIERRE~1\AppData\Local\Temp\ccosKNXH.s 			page 18


 543              		.loc 1 161 0
 544 01e8 0223     		movs	r3, #2
 545 01ea 84F84F30 		strb	r3, [r4, #79]
 162:main.c        ****         						}
 546              		.loc 1 162 0
 547 01ee 0120     		movs	r0, #1
 548 01f0 FFF7FEFF 		bl	LED_1_Write
 549              	.LVL58:
 550 01f4 F9E1     		b	.L28
 551              	.L32:
 167:main.c        ****                                 interrupt_routine();
 552              		.loc 1 167 0
 553 01f6 4A4B     		ldr	r3, .L73+8
 554 01f8 1B78     		ldrb	r3, [r3]	@ zero_extendqisi2
 555 01fa DBB2     		uxtb	r3, r3
 556 01fc 012B     		cmp	r3, #1
 557 01fe 01D1     		bne	.L39
 168:main.c        ****                             }
 558              		.loc 1 168 0
 559 0200 FFF7FEFF 		bl	interrupt_routine
 560              	.LVL59:
 561              	.L39:
 170:main.c        ****         						RxError = 0;
 562              		.loc 1 170 0
 563 0204 464B     		ldr	r3, .L73+8
 564 0206 DB78     		ldrb	r3, [r3, #3]	@ zero_extendqisi2
 565 0208 13F0FF0F 		tst	r3, #255
 566 020c 07D0     		beq	.L40
 171:main.c        ****                                 DWM_Reset_Rx();
 567              		.loc 1 171 0
 568 020e 444C     		ldr	r4, .L73+8
 569 0210 0025     		movs	r5, #0
 570 0212 E570     		strb	r5, [r4, #3]
 172:main.c        ****         						state = STATE_INIT;
 571              		.loc 1 172 0
 572 0214 FFF7FEFF 		bl	DWM_Reset_Rx
 573              	.LVL60:
 173:main.c        ****         					}
 574              		.loc 1 173 0
 575 0218 84F84F50 		strb	r5, [r4, #79]
 576 021c E5E1     		b	.L28
 577              	.L40:
 175:main.c        ****                                 LED_2_Write(LIGHT_ON);
 578              		.loc 1 175 0
 579 021e 404B     		ldr	r3, .L73+8
 580 0220 9B78     		ldrb	r3, [r3, #2]	@ zero_extendqisi2
 581 0222 13F0FF0F 		tst	r3, #255
 582 0226 00F0E081 		beq	.L28
 176:main.c        ****         						DWM_ReceiveData(RxData); 	// Read Rx buffer
 583              		.loc 1 176 0
 584 022a 0120     		movs	r0, #1
 585 022c FFF7FEFF 		bl	LED_2_Write
 586              	.LVL61:
 177:main.c        ****         						if (RxData[0] == slave_standard_message){   // Check RxFrame
 587              		.loc 1 177 0
 588 0230 3B4C     		ldr	r4, .L73+8
 589 0232 04F1D800 		add	r0, r4, #216
ARM GAS  C:\Users\PIERRE~1\AppData\Local\Temp\ccosKNXH.s 			page 19


 590 0236 FFF7FEFF 		bl	DWM_ReceiveData
 591              	.LVL62:
 178:main.c        ****                                     DWM_ReadSPI_ext(RX_TIME,NO_SUB, t4_8,5);// get T4
 592              		.loc 1 178 0
 593 023a 94F8D820 		ldrb	r2, [r4, #216]	@ zero_extendqisi2
 594 023e 3B4B     		ldr	r3, .L73+20
 595 0240 1B78     		ldrb	r3, [r3]	@ zero_extendqisi2
 596 0242 9A42     		cmp	r2, r3
 597 0244 0BD1     		bne	.L41
 179:main.c        ****         							state = STATE_SECOND_SEND;
 598              		.loc 1 179 0
 599 0246 0523     		movs	r3, #5
 600 0248 04F1E802 		add	r2, r4, #232
 601 024c 4FF6FF71 		movw	r1, #65535
 602 0250 1520     		movs	r0, #21
 603 0252 FFF7FEFF 		bl	DWM_ReadSPI_ext
 604              	.LVL63:
 180:main.c        ****         						}
 605              		.loc 1 180 0
 606 0256 0323     		movs	r3, #3
 607 0258 84F84F30 		strb	r3, [r4, #79]
 608 025c 03E0     		b	.L42
 609              	.L41:
 182:main.c        ****         						RxOk = 0;
 610              		.loc 1 182 0
 611 025e 0022     		movs	r2, #0
 612 0260 2F4B     		ldr	r3, .L73+8
 613 0262 83F84F20 		strb	r2, [r3, #79]
 614              	.L42:
 183:main.c        ****         					}
 615              		.loc 1 183 0
 616 0266 0022     		movs	r2, #0
 617 0268 2D4B     		ldr	r3, .L73+8
 618 026a 9A70     		strb	r2, [r3, #2]
 619 026c BDE1     		b	.L28
 620              	.L33:
 188:main.c        ****             				TxData[0] = master_second_message;
 621              		.loc 1 188 0
 622 026e FFF7FEFF 		bl	idle
 623              	.LVL64:
 189:main.c        ****             				DWM_SendData(TxData, 1, 1);
 624              		.loc 1 189 0
 625 0272 2B4C     		ldr	r4, .L73+8
 626 0274 2C4B     		ldr	r3, .L73+16
 627 0276 1B78     		ldrb	r3, [r3]	@ zero_extendqisi2
 628 0278 2046     		mov	r0, r4
 629 027a 00F8503F 		strb	r3, [r0, #80]!
 190:main.c        ****             				state = STATE_WAIT_SECOND_SEND;
 630              		.loc 1 190 0
 631 027e 0122     		movs	r2, #1
 632 0280 1146     		mov	r1, r2
 633 0282 FFF7FEFF 		bl	DWM_SendData
 634              	.LVL65:
 191:main.c        ****         			break;
 635              		.loc 1 191 0
 636 0286 0423     		movs	r3, #4
 637 0288 84F84F30 		strb	r3, [r4, #79]
ARM GAS  C:\Users\PIERRE~1\AppData\Local\Temp\ccosKNXH.s 			page 20


 192:main.c        ****                             
 638              		.loc 1 192 0
 639 028c ADE1     		b	.L28
 640              	.L34:
 195:main.c        ****                                 interrupt_routine();
 641              		.loc 1 195 0
 642 028e 244B     		ldr	r3, .L73+8
 643 0290 1B78     		ldrb	r3, [r3]	@ zero_extendqisi2
 644 0292 DBB2     		uxtb	r3, r3
 645 0294 012B     		cmp	r3, #1
 646 0296 01D1     		bne	.L43
 196:main.c        ****                             }
 647              		.loc 1 196 0
 648 0298 FFF7FEFF 		bl	interrupt_routine
 649              	.LVL66:
 650              	.L43:
 198:main.c        ****                                 LED_3_Write(LIGHT_ON);
 651              		.loc 1 198 0
 652 029c 204B     		ldr	r3, .L73+8
 653 029e 5B78     		ldrb	r3, [r3, #1]	@ zero_extendqisi2
 654 02a0 13F0FF0F 		tst	r3, #255
 655 02a4 00F0A181 		beq	.L28
 199:main.c        ****         							DWM_ReadSPI_ext(TX_TIME, NO_SUB, t5_8, 5);	//get tx time (T5)
 656              		.loc 1 199 0
 657 02a8 0120     		movs	r0, #1
 658 02aa FFF7FEFF 		bl	LED_3_Write
 659              	.LVL67:
 200:main.c        ****         							state = STATE_GET_TIMES;
 660              		.loc 1 200 0
 661 02ae 1C4C     		ldr	r4, .L73+8
 662 02b0 0523     		movs	r3, #5
 663 02b2 04F1F002 		add	r2, r4, #240
 664 02b6 4FF6FF71 		movw	r1, #65535
 665 02ba 1720     		movs	r0, #23
 666 02bc FFF7FEFF 		bl	DWM_ReadSPI_ext
 667              	.LVL68:
 201:main.c        ****                                     idle();
 668              		.loc 1 201 0
 669 02c0 0523     		movs	r3, #5
 670 02c2 84F84F30 		strb	r3, [r4, #79]
 202:main.c        ****                                     DWM_Enable_Rx();
 671              		.loc 1 202 0
 672 02c6 FFF7FEFF 		bl	idle
 673              	.LVL69:
 203:main.c        ****         							TxOk = 0;
 674              		.loc 1 203 0
 675 02ca FFF7FEFF 		bl	DWM_Enable_Rx
 676              	.LVL70:
 204:main.c        ****         					}
 677              		.loc 1 204 0
 678 02ce 0023     		movs	r3, #0
 679 02d0 6370     		strb	r3, [r4, #1]
 680 02d2 8AE1     		b	.L28
 681              	.L35:
 209:main.c        ****                                 interrupt_routine();
 682              		.loc 1 209 0
 683 02d4 124B     		ldr	r3, .L73+8
ARM GAS  C:\Users\PIERRE~1\AppData\Local\Temp\ccosKNXH.s 			page 21


 684 02d6 1B78     		ldrb	r3, [r3]	@ zero_extendqisi2
 685 02d8 DBB2     		uxtb	r3, r3
 686 02da 012B     		cmp	r3, #1
 687 02dc 01D1     		bne	.L44
 210:main.c        ****                             }
 688              		.loc 1 210 0
 689 02de FFF7FEFF 		bl	interrupt_routine
 690              	.LVL71:
 691              	.L44:
 212:main.c        ****         						state = STATE_INIT;
 692              		.loc 1 212 0
 693 02e2 0F4B     		ldr	r3, .L73+8
 694 02e4 DB78     		ldrb	r3, [r3, #3]	@ zero_extendqisi2
 695 02e6 13F0FF0F 		tst	r3, #255
 696 02ea 07D0     		beq	.L45
 213:main.c        ****                                 DWM_Reset_Rx();
 697              		.loc 1 213 0
 698 02ec 0C4C     		ldr	r4, .L73+8
 699 02ee 0025     		movs	r5, #0
 700 02f0 84F84F50 		strb	r5, [r4, #79]
 214:main.c        ****         						RxError = 0;
 701              		.loc 1 214 0
 702 02f4 FFF7FEFF 		bl	DWM_Reset_Rx
 703              	.LVL72:
 215:main.c        ****         					}
 704              		.loc 1 215 0
 705 02f8 E570     		strb	r5, [r4, #3]
 706 02fa 76E1     		b	.L28
 707              	.L45:
 217:main.c        ****                                 LED_4_Write(LIGHT_ON);
 708              		.loc 1 217 0
 709 02fc 084B     		ldr	r3, .L73+8
 710 02fe 9B78     		ldrb	r3, [r3, #2]	@ zero_extendqisi2
 711 0300 13F0FF0F 		tst	r3, #255
 712 0304 00F07181 		beq	.L28
 218:main.c        ****         						DWM_ReceiveData(RxData);	//Read Rx Buffer
 713              		.loc 1 218 0
 714 0308 0120     		movs	r0, #1
 715 030a FFF7FEFF 		bl	LED_4_Write
 716              	.LVL73:
 219:main.c        ****         						for (int i=0;i<5;i++){
 717              		.loc 1 219 0
 718 030e 0848     		ldr	r0, .L73+24
 719 0310 FFF7FEFF 		bl	DWM_ReceiveData
 720              	.LVL74:
 721              	.LBB4:
 220:main.c        ****         							t2_8[i] = RxData[i];
 722              		.loc 1 220 0
 723 0314 0021     		movs	r1, #0
 724 0316 21E0     		b	.L46
 725              	.L74:
 726              		.align	2
 727              	.L73:
 728 0318 00000000 		.word	.LANCHOR1
 729 031c 00000000 		.word	ISR
 730 0320 00000000 		.word	.LANCHOR0
 731 0324 00000000 		.word	master_first_message
ARM GAS  C:\Users\PIERRE~1\AppData\Local\Temp\ccosKNXH.s 			page 22


 732 0328 00000000 		.word	master_second_message
 733 032c 00000000 		.word	slave_standard_message
 734 0330 D8000000 		.word	.LANCHOR0+216
 735              	.LVL75:
 736              	.L47:
 221:main.c        ****         							t3_8[i] = RxData[i+5];
 737              		.loc 1 221 0 discriminator 3
 738 0334 7D48     		ldr	r0, .L75
 739 0336 4318     		adds	r3, r0, r1
 740 0338 93F8D820 		ldrb	r2, [r3, #216]	@ zero_extendqisi2
 741 033c 83F8F820 		strb	r2, [r3, #248]
 222:main.c        ****         							t6_8[i] = RxData[i+10];
 742              		.loc 1 222 0 discriminator 3
 743 0340 4A1D     		adds	r2, r1, #5
 744 0342 0244     		add	r2, r2, r0
 745 0344 92F8D820 		ldrb	r2, [r2, #216]	@ zero_extendqisi2
 746 0348 83F80021 		strb	r2, [r3, #256]
 223:main.c        ****         						}
 747              		.loc 1 223 0 discriminator 3
 748 034c 01F10A02 		add	r2, r1, #10
 749 0350 0244     		add	r2, r2, r0
 750 0352 92F8D820 		ldrb	r2, [r2, #216]	@ zero_extendqisi2
 751 0356 83F80821 		strb	r2, [r3, #264]
 220:main.c        ****         							t2_8[i] = RxData[i];
 752              		.loc 1 220 0 discriminator 3
 753 035a 0131     		adds	r1, r1, #1
 754              	.LVL76:
 755              	.L46:
 220:main.c        ****         							t2_8[i] = RxData[i];
 756              		.loc 1 220 0 is_stmt 0 discriminator 1
 757 035c 0429     		cmp	r1, #4
 758 035e E9DD     		ble	.L47
 759              	.LBE4:
 227:main.c        ****         						for (int i=0;i<5;i++){
 760              		.loc 1 227 0 is_stmt 1
 761 0360 724B     		ldr	r3, .L75
 762 0362 03F58872 		add	r2, r3, #272
 763 0366 0020     		movs	r0, #0
 764 0368 0021     		movs	r1, #0
 765              	.LVL77:
 766 036a C2E90001 		strd	r0, [r2]
 767 036e 03F58C72 		add	r2, r3, #280
 768 0372 C2E90001 		strd	r0, [r2]
 769 0376 03F59072 		add	r2, r3, #288
 770 037a C2E90001 		strd	r0, [r2]
 771 037e 03F59472 		add	r2, r3, #296
 772 0382 C2E90001 		strd	r0, [r2]
 773 0386 03F59872 		add	r2, r3, #304
 774 038a C2E90001 		strd	r0, [r2]
 775 038e 03F59C73 		add	r3, r3, #312
 776 0392 C3E90001 		strd	r0, [r3]
 777              	.LVL78:
 778              	.LBB5:
 228:main.c        ****         							t1 = (t1 << 8) | t1_8[4-i];
 779              		.loc 1 228 0
 780 0396 0021     		movs	r1, #0
 781 0398 C446     		mov	ip, r8
ARM GAS  C:\Users\PIERRE~1\AppData\Local\Temp\ccosKNXH.s 			page 23


 782 039a CDF838B0 		str	fp, [sp, #56]
 783 039e CDF83CA0 		str	r10, [sp, #60]
 784 03a2 0691     		str	r1, [sp, #24]
 785 03a4 DDE908AB 		ldrd	r10, [sp, #32]
 786 03a8 DDE90A89 		ldrd	r8, [sp, #40]
 787 03ac DDE90C01 		ldrd	r0, [sp, #48]
 788 03b0 87E0     		b	.L48
 789              	.LVL79:
 790              	.L49:
 229:main.c        ****         							t2 = (t2 << 8) | t2_8[4-i];
 791              		.loc 1 229 0 discriminator 3
 792 03b2 5E4B     		ldr	r3, .L75
 793              	.LVL80:
 794 03b4 03F59C75 		add	r5, r3, #312
 795 03b8 D3F83861 		ldr	r6, [r3, #312]
 796 03bc D3F83C21 		ldr	r2, [r3, #316]
 797 03c0 4FEA022B 		lsl	fp, r2, #8
 798 03c4 4BEA166B 		orr	fp, fp, r6, lsr #24
 799 03c8 4FEA062A 		lsl	r10, r6, #8
 800 03cc 069A     		ldr	r2, [sp, #24]
 801 03ce C2F10402 		rsb	r2, r2, #4
 802 03d2 1A44     		add	r2, r2, r3
 803 03d4 92F8D060 		ldrb	r6, [r2, #208]	@ zero_extendqisi2
 804 03d8 0027     		movs	r7, #0
 805 03da 46EA0A06 		orr	r6, r6, r10
 806 03de 47EA0B07 		orr	r7, r7, fp
 807 03e2 C5E90067 		strd	r6, [r5]
 230:main.c        ****         							t3 = (t3 << 8) | t3_8[4-i];
 808              		.loc 1 230 0 discriminator 3
 809 03e6 03F5987E 		add	lr, r3, #304
 810 03ea D3F83061 		ldr	r6, [r3, #304]
 811 03ee D3F83451 		ldr	r5, [r3, #308]
 812 03f2 2D02     		lsls	r5, r5, #8
 813 03f4 45EA1665 		orr	r5, r5, r6, lsr #24
 814 03f8 0195     		str	r5, [sp, #4]
 815 03fa 3502     		lsls	r5, r6, #8
 816 03fc 0095     		str	r5, [sp]
 817 03fe 92F8F860 		ldrb	r6, [r2, #248]	@ zero_extendqisi2
 818 0402 0027     		movs	r7, #0
 819 0404 DDE90045 		ldrd	r4, [sp]
 820 0408 3443     		orrs	r4, r4, r6
 821 040a 3D43     		orrs	r5, r5, r7
 822 040c 2646     		mov	r6, r4
 823 040e 2F46     		mov	r7, r5
 824 0410 CEE90067 		strd	r6, [lr]
 231:main.c        ****         							t4 = (t4 << 8) | t4_8[4-i];
 825              		.loc 1 231 0 discriminator 3
 826 0414 03F5947E 		add	lr, r3, #296
 827 0418 D3F82861 		ldr	r6, [r3, #296]
 828 041c D3F82C51 		ldr	r5, [r3, #300]
 829 0420 2D02     		lsls	r5, r5, #8
 830 0422 45EA1665 		orr	r5, r5, r6, lsr #24
 831 0426 0395     		str	r5, [sp, #12]
 832 0428 3502     		lsls	r5, r6, #8
 833 042a 0295     		str	r5, [sp, #8]
 834 042c 92F80061 		ldrb	r6, [r2, #256]	@ zero_extendqisi2
 835 0430 0027     		movs	r7, #0
ARM GAS  C:\Users\PIERRE~1\AppData\Local\Temp\ccosKNXH.s 			page 24


 836 0432 DDE90245 		ldrd	r4, [sp, #8]
 837 0436 3443     		orrs	r4, r4, r6
 838 0438 3D43     		orrs	r5, r5, r7
 839 043a 2646     		mov	r6, r4
 840 043c 2F46     		mov	r7, r5
 841 043e CEE90067 		strd	r6, [lr]
 232:main.c        ****         							t5 = (t5 << 8) | t5_8[4-i];
 842              		.loc 1 232 0 discriminator 3
 843 0442 03F5907E 		add	lr, r3, #288
 844 0446 D3F82061 		ldr	r6, [r3, #288]
 845 044a D3F82451 		ldr	r5, [r3, #292]
 846 044e 2D02     		lsls	r5, r5, #8
 847 0450 45EA1665 		orr	r5, r5, r6, lsr #24
 848 0454 0595     		str	r5, [sp, #20]
 849 0456 3502     		lsls	r5, r6, #8
 850 0458 0495     		str	r5, [sp, #16]
 851 045a 92F8E860 		ldrb	r6, [r2, #232]	@ zero_extendqisi2
 852 045e 0027     		movs	r7, #0
 853 0460 DDE90445 		ldrd	r4, [sp, #16]
 854 0464 3443     		orrs	r4, r4, r6
 855 0466 3D43     		orrs	r5, r5, r7
 856 0468 2646     		mov	r6, r4
 857 046a 2F46     		mov	r7, r5
 858 046c CEE90067 		strd	r6, [lr]
 233:main.c        ****         							t6 = (t6 << 8) | t6_8[4-i];
 859              		.loc 1 233 0 discriminator 3
 860 0470 03F58C7E 		add	lr, r3, #280
 861 0474 D3F81861 		ldr	r6, [r3, #280]
 862 0478 D3F81C51 		ldr	r5, [r3, #284]
 863 047c 4FEA0529 		lsl	r9, r5, #8
 864 0480 49EA1669 		orr	r9, r9, r6, lsr #24
 865 0484 4FEA0628 		lsl	r8, r6, #8
 866 0488 92F8F060 		ldrb	r6, [r2, #240]	@ zero_extendqisi2
 867 048c 0027     		movs	r7, #0
 868 048e 46EA0806 		orr	r6, r6, r8
 869 0492 47EA0907 		orr	r7, r7, r9
 870 0496 CEE90067 		strd	r6, [lr]
 234:main.c        ****         						}
 871              		.loc 1 234 0 discriminator 3
 872 049a 03F58875 		add	r5, r3, #272
 873 049e D3F81061 		ldr	r6, [r3, #272]
 874 04a2 D3F81431 		ldr	r3, [r3, #276]
 875 04a6 1902     		lsls	r1, r3, #8
 876 04a8 41EA1661 		orr	r1, r1, r6, lsr #24
 877 04ac 3002     		lsls	r0, r6, #8
 878 04ae 92F80821 		ldrb	r2, [r2, #264]	@ zero_extendqisi2
 879 04b2 0023     		movs	r3, #0
 880 04b4 0243     		orrs	r2, r2, r0
 881 04b6 0B43     		orrs	r3, r3, r1
 882 04b8 C5E90023 		strd	r2, [r5]
 228:main.c        ****         							t1 = (t1 << 8) | t1_8[4-i];
 883              		.loc 1 228 0 discriminator 3
 884 04bc 069B     		ldr	r3, [sp, #24]
 885 04be 0133     		adds	r3, r3, #1
 886 04c0 0693     		str	r3, [sp, #24]
 887              	.LVL81:
 888              	.L48:
ARM GAS  C:\Users\PIERRE~1\AppData\Local\Temp\ccosKNXH.s 			page 25


 228:main.c        ****         							t1 = (t1 << 8) | t1_8[4-i];
 889              		.loc 1 228 0 is_stmt 0 discriminator 1
 890 04c2 069B     		ldr	r3, [sp, #24]
 891 04c4 042B     		cmp	r3, #4
 892 04c6 7FF774AF 		ble	.L49
 893 04ca CDE908AB 		strd	r10, [sp, #32]
 894 04ce DDF83CA0 		ldr	r10, [sp, #60]
 895 04d2 DDF838B0 		ldr	fp, [sp, #56]
 896 04d6 CDE90A89 		strd	r8, [sp, #40]
 897 04da E046     		mov	r8, ip
 898 04dc CDE90C01 		strd	r0, [sp, #48]
 899              	.LBE5:
 236:main.c        ****         							state = STATE_INIT;
 900              		.loc 1 236 0 is_stmt 1
 901 04e0 124B     		ldr	r3, .L75
 902 04e2 03F58872 		add	r2, r3, #272
 903 04e6 D2E90001 		ldrd	r0, [r2]
 904 04ea 03F59873 		add	r3, r3, #304
 905 04ee D3E90023 		ldrd	r2, [r3]
 906 04f2 9942     		cmp	r1, r3
 907 04f4 08BF     		it	eq
 908 04f6 9042     		cmpeq	r0, r2
 909 04f8 0CD3     		bcc	.L50
 236:main.c        ****         							state = STATE_INIT;
 910              		.loc 1 236 0 is_stmt 0 discriminator 1
 911 04fa 0C4B     		ldr	r3, .L75
 912 04fc 03F58C72 		add	r2, r3, #280
 913 0500 D2E90001 		ldrd	r0, [r2]
 914 0504 03F59C73 		add	r3, r3, #312
 915 0508 D3E90023 		ldrd	r2, [r3]
 916 050c 9942     		cmp	r1, r3
 917 050e 08BF     		it	eq
 918 0510 9042     		cmpeq	r0, r2
 919 0512 04D2     		bcs	.L51
 920              	.L50:
 237:main.c        ****         						}
 921              		.loc 1 237 0 is_stmt 1
 922 0514 0022     		movs	r2, #0
 923 0516 054B     		ldr	r3, .L75
 924 0518 83F84F20 		strb	r2, [r3, #79]
 925 051c 65E0     		b	.L28
 926              	.L51:
 240:main.c        ****         							RxOk = 0;
 927              		.loc 1 240 0
 928 051e 034B     		ldr	r3, .L75
 929 0520 0622     		movs	r2, #6
 930 0522 83F84F20 		strb	r2, [r3, #79]
 241:main.c        ****         						}
 931              		.loc 1 241 0
 932 0526 0022     		movs	r2, #0
 933 0528 9A70     		strb	r2, [r3, #2]
 934 052a 5EE0     		b	.L28
 935              	.L76:
 936              		.align	2
 937              	.L75:
 938 052c 00000000 		.word	.LANCHOR0
 939              	.LVL82:
ARM GAS  C:\Users\PIERRE~1\AppData\Local\Temp\ccosKNXH.s 			page 26


 940              	.L36:
 247:main.c        ****         				TreplySlave = (t3-t2);
 941              		.loc 1 247 0
 942 0530 8E4B     		ldr	r3, .L77
 943 0532 03F59072 		add	r2, r3, #288
 944 0536 D2E90012 		ldrd	r1, [r2]
 945 053a 0846     		mov	r0, r1
 946 053c 1146     		mov	r1, r2
 947 053e 03F59C72 		add	r2, r3, #312
 948 0542 D2E90045 		ldrd	r4, [r2]
 949 0546 CDE90601 		strd	r0, [sp, #24]
 950 054a 001B     		subs	r0, r0, r4
 951 054c 61EB0501 		sbc	r1, r1, r5
 952 0550 0446     		mov	r4, r0
 953 0552 0D46     		mov	r5, r1
 954 0554 1846     		mov	r0, r3
 955 0556 E0E95045 		strd	r4, [r0, #320]!
 248:main.c        ****         				TroundSlave = (t6-t3);
 956              		.loc 1 248 0
 957 055a 03F59472 		add	r2, r3, #296
 958 055e D2E90067 		ldrd	r6, [r2]
 959 0562 03F59872 		add	r2, r3, #304
 960 0566 D2E90045 		ldrd	r4, [r2]
 961 056a 341B     		subs	r4, r6, r4
 962 056c 67EB0505 		sbc	r5, r7, r5
 963 0570 1A46     		mov	r2, r3
 964 0572 E2E95245 		strd	r4, [r2, #328]!
 249:main.c        ****         				TreplyMaster = (t5-t4);
 965              		.loc 1 249 0
 966 0576 03F58871 		add	r1, r3, #272
 967 057a D1E90045 		ldrd	r4, [r1]
 968 057e A41B     		subs	r4, r4, r6
 969 0580 65EB0705 		sbc	r5, r5, r7
 970 0584 1946     		mov	r1, r3
 971 0586 E1E95445 		strd	r4, [r1, #336]!
 250:main.c        ****                         all_clock_time[4*nbr_ancle_find]=TroundMaster;      //Time are save
 972              		.loc 1 250 0
 973 058a 03F58C74 		add	r4, r3, #280
 974 058e 30CC     		ldmia	r4, {r4-r5}
 975 0590 DDE90667 		ldrd	r6, [sp, #24]
 976 0594 A61B     		subs	r6, r4, r6
 977 0596 65EB0707 		sbc	r7, r5, r7
 978 059a 3446     		mov	r4, r6
 979 059c 3D46     		mov	r5, r7
 980 059e 1E46     		mov	r6, r3
 981 05a0 E6E95645 		strd	r4, [r6, #344]!
 251:main.c        ****                         all_clock_time[4*nbr_ancle_find+1]=TroundSlave;
 982              		.loc 1 251 0
 983 05a4 4FEA8B0E 		lsl	lr, fp, #2
 984 05a8 D0E90045 		ldrd	r4, [r0]
 985 05ac 03F5B077 		add	r7, r3, #352
 986 05b0 07EB4B10 		add	r0, r7, fp, lsl #5
 987 05b4 C0E90045 		strd	r4, [r0]
 252:main.c        ****                         all_clock_time[4*nbr_ancle_find+2]=TreplyMaster;
 988              		.loc 1 252 0
 989 05b8 7446     		mov	r4, lr
 990 05ba 651C     		adds	r5, r4, #1
ARM GAS  C:\Users\PIERRE~1\AppData\Local\Temp\ccosKNXH.s 			page 27


 991 05bc D1E90001 		ldrd	r0, [r1]
 992 05c0 07EBC505 		add	r5, r7, r5, lsl #3
 993 05c4 C5E90001 		strd	r0, [r5]
 253:main.c        ****                         all_clock_time[4*nbr_ancle_find+3]=TreplySlave;
 994              		.loc 1 253 0
 995 05c8 A51C     		adds	r5, r4, #2
 996 05ca D6E90001 		ldrd	r0, [r6]
 997 05ce 07EBC505 		add	r5, r7, r5, lsl #3
 998 05d2 C5E90001 		strd	r0, [r5]
 254:main.c        ****                         
 999              		.loc 1 254 0
 1000 05d6 0334     		adds	r4, r4, #3
 1001 05d8 D2E90001 		ldrd	r0, [r2]
 1002 05dc 07EBC407 		add	r7, r7, r4, lsl #3
 1003 05e0 C7E90001 		strd	r0, [r7]
 256:main.c        ****         			break;
 1004              		.loc 1 256 0
 1005 05e4 0022     		movs	r2, #0
 1006 05e6 83F84F20 		strb	r2, [r3, #79]
 1007              	.L28:
 131:main.c        ****     		    switch(state){
 1008              		.loc 1 131 0
 1009 05ea BBF1030F 		cmp	fp, #3
 1010 05ee 04D8     		bhi	.L52
 131:main.c        ****     		    switch(state){
 1011              		.loc 1 131 0 is_stmt 0 discriminator 1
 1012 05f0 FFF7FEFF 		bl	Timer_1_ReadCounter
 1013              	.LVL83:
 1014 05f4 1F28     		cmp	r0, #31
 1015 05f6 3FF69EAD 		bhi	.L53
 1016              	.L52:
 261:main.c        ****             if(all_clock_time[0]!=0 && nbr_ancle_find==0){           //check if one transaction is 
 1017              		.loc 1 261 0 is_stmt 1
 1018 05fa FFF7FEFF 		bl	Timer_1_Stop
 1019              	.LVL84:
 262:main.c        ****                 if(SlaveNummer==1)LED_1_Write(LIGHT_ON);
 1020              		.loc 1 262 0
 1021 05fe 5C4B     		ldr	r3, .L77+4
 1022 0600 D3E90023 		ldrd	r2, [r3]
 1023 0604 1343     		orrs	r3, r2, r3
 1024 0606 29D0     		beq	.L54
 262:main.c        ****                 if(SlaveNummer==1)LED_1_Write(LIGHT_ON);
 1025              		.loc 1 262 0 is_stmt 0 discriminator 1
 1026 0608 BBF1000F 		cmp	fp, #0
 1027 060c 26D1     		bne	.L54
 263:main.c        ****                 if(SlaveNummer==2)LED_2_Write(LIGHT_ON);
 1028              		.loc 1 263 0 is_stmt 1
 1029 060e B8F1010F 		cmp	r8, #1
 1030 0612 02D1     		bne	.L55
 263:main.c        ****                 if(SlaveNummer==2)LED_2_Write(LIGHT_ON);
 1031              		.loc 1 263 0 is_stmt 0 discriminator 1
 1032 0614 0120     		movs	r0, #1
 1033 0616 FFF7FEFF 		bl	LED_1_Write
 1034              	.LVL85:
 1035              	.L55:
 264:main.c        ****                 if(SlaveNummer==3)LED_3_Write(LIGHT_ON);
 1036              		.loc 1 264 0 is_stmt 1
ARM GAS  C:\Users\PIERRE~1\AppData\Local\Temp\ccosKNXH.s 			page 28


 1037 061a B8F1020F 		cmp	r8, #2
 1038 061e 02D1     		bne	.L56
 264:main.c        ****                 if(SlaveNummer==3)LED_3_Write(LIGHT_ON);
 1039              		.loc 1 264 0 is_stmt 0 discriminator 1
 1040 0620 0120     		movs	r0, #1
 1041 0622 FFF7FEFF 		bl	LED_2_Write
 1042              	.LVL86:
 1043              	.L56:
 265:main.c        ****                 if(SlaveNummer==4)LED_4_Write(LIGHT_ON);
 1044              		.loc 1 265 0 is_stmt 1
 1045 0626 B8F1030F 		cmp	r8, #3
 1046 062a 02D1     		bne	.L57
 265:main.c        ****                 if(SlaveNummer==4)LED_4_Write(LIGHT_ON);
 1047              		.loc 1 265 0 is_stmt 0 discriminator 1
 1048 062c 0120     		movs	r0, #1
 1049 062e FFF7FEFF 		bl	LED_3_Write
 1050              	.LVL87:
 1051              	.L57:
 266:main.c        ****                 nbr_ancle_find++;
 1052              		.loc 1 266 0 is_stmt 1
 1053 0632 B8F1040F 		cmp	r8, #4
 1054 0636 02D1     		bne	.L58
 266:main.c        ****                 nbr_ancle_find++;
 1055              		.loc 1 266 0 is_stmt 0 discriminator 1
 1056 0638 0120     		movs	r0, #1
 1057 063a FFF7FEFF 		bl	LED_4_Write
 1058              	.LVL88:
 1059              	.L58:
 267:main.c        ****                 All_ancle[SlaveNummer-1]=2;
 1060              		.loc 1 267 0 is_stmt 1
 1061 063e 0BF1010B 		add	fp, fp, #1
 1062 0642 5FFA8BFB 		uxtb	fp, fp
 1063              	.LVL89:
 268:main.c        ****                 TxPhoneData[60]=SlaveNummer;
 1064              		.loc 1 268 0
 1065 0646 08F1FF33 		add	r3, r8, #-1
 1066 064a 12AA     		add	r2, sp, #72
 1067 064c 1344     		add	r3, r3, r2
 1068 064e 0222     		movs	r2, #2
 1069 0650 03F8042C 		strb	r2, [r3, #-4]
 269:main.c        ****             }
 1070              		.loc 1 269 0
 1071 0654 454B     		ldr	r3, .L77
 1072 0656 83F84C80 		strb	r8, [r3, #76]
 1073 065a 2CE0     		b	.L59
 1074              	.LVL90:
 1075              	.L54:
 271:main.c        ****                 nbr_ancle_find++;
 1076              		.loc 1 271 0
 1077 065c 444B     		ldr	r3, .L77+4
 1078 065e D3E90823 		ldrd	r2, [r3, #32]
 1079 0662 1343     		orrs	r3, r2, r3
 1080 0664 11D0     		beq	.L60
 271:main.c        ****                 nbr_ancle_find++;
 1081              		.loc 1 271 0 is_stmt 0 discriminator 1
 1082 0666 BBF1010F 		cmp	fp, #1
 1083 066a 0ED1     		bne	.L60
ARM GAS  C:\Users\PIERRE~1\AppData\Local\Temp\ccosKNXH.s 			page 29


 272:main.c        ****                 All_ancle[SlaveNummer-1]=2;
 1084              		.loc 1 272 0 is_stmt 1
 1085 066c 0BF1010B 		add	fp, fp, #1
 1086 0670 5FFA8BFB 		uxtb	fp, fp
 1087              	.LVL91:
 273:main.c        ****                 TxPhoneData[61]=SlaveNummer;
 1088              		.loc 1 273 0
 1089 0674 08F1FF33 		add	r3, r8, #-1
 1090 0678 12AA     		add	r2, sp, #72
 1091 067a 1344     		add	r3, r3, r2
 1092 067c 0222     		movs	r2, #2
 1093 067e 03F8042C 		strb	r2, [r3, #-4]
 274:main.c        ****             }
 1094              		.loc 1 274 0
 1095 0682 3A4B     		ldr	r3, .L77
 1096 0684 83F84D80 		strb	r8, [r3, #77]
 1097 0688 15E0     		b	.L59
 1098              	.LVL92:
 1099              	.L60:
 276:main.c        ****                 nbr_ancle_find++;
 1100              		.loc 1 276 0
 1101 068a 394B     		ldr	r3, .L77+4
 1102 068c D3E91023 		ldrd	r2, [r3, #64]
 1103 0690 1343     		orrs	r3, r2, r3
 1104 0692 10D0     		beq	.L59
 276:main.c        ****                 nbr_ancle_find++;
 1105              		.loc 1 276 0 is_stmt 0 discriminator 1
 1106 0694 BBF1020F 		cmp	fp, #2
 1107 0698 0DD1     		bne	.L59
 277:main.c        ****                 All_ancle[SlaveNummer-1]=2;
 1108              		.loc 1 277 0 is_stmt 1
 1109 069a 0BF1010B 		add	fp, fp, #1
 1110 069e 5FFA8BFB 		uxtb	fp, fp
 1111              	.LVL93:
 278:main.c        ****                 TxPhoneData[62]=SlaveNummer;
 1112              		.loc 1 278 0
 1113 06a2 08F1FF33 		add	r3, r8, #-1
 1114 06a6 12AA     		add	r2, sp, #72
 1115 06a8 1344     		add	r3, r3, r2
 1116 06aa 0222     		movs	r2, #2
 1117 06ac 03F8042C 		strb	r2, [r3, #-4]
 279:main.c        ****             }
 1118              		.loc 1 279 0
 1119 06b0 2E4B     		ldr	r3, .L77
 1120 06b2 83F84E80 		strb	r8, [r3, #78]
 1121              	.LVL94:
 1122              	.L59:
 282:main.c        ****                 for(int i=0;i<12;i++){                  // Preparation of data
 1123              		.loc 1 282 0
 1124 06b6 BBF1030F 		cmp	fp, #3
 1125 06ba 50D1     		bne	.L62
 1126 06bc 20E0     		b	.L69
 1127              	.LVL95:
 1128              	.L63:
 1129              	.LBB6:
 284:main.c        ****                             TxPhoneData[5*i+1]=all_clock_time[i]>>8;       
 1130              		.loc 1 284 0 discriminator 3
ARM GAS  C:\Users\PIERRE~1\AppData\Local\Temp\ccosKNXH.s 			page 30


 1131 06be 01EB8103 		add	r3, r1, r1, lsl #2
 1132 06c2 2A4A     		ldr	r2, .L77
 1133 06c4 02F5B070 		add	r0, r2, #352
 1134 06c8 00EBC106 		add	r6, r0, r1, lsl #3
 1135 06cc 50F83100 		ldr	r0, [r0, r1, lsl #3]
 1136 06d0 7468     		ldr	r4, [r6, #4]
 1137 06d2 D518     		adds	r5, r2, r3
 1138 06d4 2874     		strb	r0, [r5, #16]
 285:main.c        ****                             TxPhoneData[5*i+2]=all_clock_time[i]>>16;       
 1139              		.loc 1 285 0 discriminator 3
 1140 06d6 5D1C     		adds	r5, r3, #1
 1141 06d8 070A     		lsrs	r7, r0, #8
 1142 06da 1544     		add	r5, r5, r2
 1143 06dc 2F74     		strb	r7, [r5, #16]
 286:main.c        ****                             TxPhoneData[5*i+3]=all_clock_time[i]>>24;       
 1144              		.loc 1 286 0 discriminator 3
 1145 06de 9D1C     		adds	r5, r3, #2
 1146 06e0 070C     		lsrs	r7, r0, #16
 1147 06e2 1544     		add	r5, r5, r2
 1148 06e4 2F74     		strb	r7, [r5, #16]
 287:main.c        ****                             TxPhoneData[5*i+4]=all_clock_time[i]>>32;  
 1149              		.loc 1 287 0 discriminator 3
 1150 06e6 DD1C     		adds	r5, r3, #3
 1151 06e8 000E     		lsrs	r0, r0, #24
 1152 06ea 1544     		add	r5, r5, r2
 1153 06ec 2874     		strb	r0, [r5, #16]
 288:main.c        ****                             all_clock_time[i]=0;
 1154              		.loc 1 288 0 discriminator 3
 1155 06ee 0433     		adds	r3, r3, #4
 1156 06f0 1344     		add	r3, r3, r2
 1157 06f2 1C74     		strb	r4, [r3, #16]
 289:main.c        ****                 }
 1158              		.loc 1 289 0 discriminator 3
 1159 06f4 0022     		movs	r2, #0
 1160 06f6 0023     		movs	r3, #0
 1161 06f8 C6E90023 		strd	r2, [r6]
 283:main.c        ****                             TxPhoneData[5*i]=all_clock_time[i];       
 1162              		.loc 1 283 0 discriminator 3
 1163 06fc 0131     		adds	r1, r1, #1
 1164              	.LVL96:
 1165 06fe 00E0     		b	.L61
 1166              	.LVL97:
 1167              	.L69:
 1168              	.LBE6:
 1169 0700 0021     		movs	r1, #0
 1170              	.L61:
 1171              	.LVL98:
 1172              	.LBB7:
 283:main.c        ****                             TxPhoneData[5*i]=all_clock_time[i];       
 1173              		.loc 1 283 0 is_stmt 0 discriminator 1
 1174 0702 0B29     		cmp	r1, #11
 1175 0704 DBDD     		ble	.L63
 1176              	.LBE7:
 291:main.c        ****                 
 1177              		.loc 1 291 0 is_stmt 1
 1178 0706 194C     		ldr	r4, .L77
 1179 0708 3F22     		movs	r2, #63
ARM GAS  C:\Users\PIERRE~1\AppData\Local\Temp\ccosKNXH.s 			page 31


 1180 070a 04F11001 		add	r1, r4, #16
 1181              	.LVL99:
 1182 070e 0120     		movs	r0, #1
 1183 0710 FFF7FEFF 		bl	USBP_LoadInEP
 1184              	.LVL100:
 293:main.c        ****                 nbr_ancle_find=0;
 1185              		.loc 1 293 0
 1186 0714 4FF0000B 		mov	fp, #0
 1187              	.LVL101:
 1188 0718 84F808B0 		strb	fp, [r4, #8]
 1189              	.LVL102:
 295:main.c        ****                 All_ancle[TxPhoneData[61]-1]=1;
 1190              		.loc 1 295 0
 1191 071c 94F84C30 		ldrb	r3, [r4, #76]	@ zero_extendqisi2
 1192 0720 013B     		subs	r3, r3, #1
 1193 0722 12AA     		add	r2, sp, #72
 1194 0724 1344     		add	r3, r3, r2
 1195 0726 0122     		movs	r2, #1
 1196 0728 03F8042C 		strb	r2, [r3, #-4]
 296:main.c        ****                 All_ancle[TxPhoneData[62]-1]=1;
 1197              		.loc 1 296 0
 1198 072c 94F84D30 		ldrb	r3, [r4, #77]	@ zero_extendqisi2
 1199 0730 013B     		subs	r3, r3, #1
 1200 0732 12A9     		add	r1, sp, #72
 1201 0734 0B44     		add	r3, r3, r1
 1202 0736 03F8042C 		strb	r2, [r3, #-4]
 297:main.c        ****                 LED_1_Write(LIGHT_OFF);                 //All LED are switch off
 1203              		.loc 1 297 0
 1204 073a 94F84E30 		ldrb	r3, [r4, #78]	@ zero_extendqisi2
 1205 073e 013B     		subs	r3, r3, #1
 1206 0740 0B44     		add	r3, r3, r1
 1207 0742 03F8042C 		strb	r2, [r3, #-4]
 298:main.c        ****                 LED_2_Write(LIGHT_OFF);
 1208              		.loc 1 298 0
 1209 0746 5846     		mov	r0, fp
 1210 0748 FFF7FEFF 		bl	LED_1_Write
 1211              	.LVL103:
 299:main.c        ****                 LED_3_Write(LIGHT_OFF);
 1212              		.loc 1 299 0
 1213 074c 5846     		mov	r0, fp
 1214 074e FFF7FEFF 		bl	LED_2_Write
 1215              	.LVL104:
 300:main.c        ****                 LED_4_Write(LIGHT_OFF);
 1216              		.loc 1 300 0
 1217 0752 5846     		mov	r0, fp
 1218 0754 FFF7FEFF 		bl	LED_3_Write
 1219              	.LVL105:
 301:main.c        ****             }
 1220              		.loc 1 301 0
 1221 0758 5846     		mov	r0, fp
 1222 075a FFF7FEFF 		bl	LED_4_Write
 1223              	.LVL106:
 1224              	.L62:
 294:main.c        ****                 All_ancle[TxPhoneData[60]-1]=1;         //Initialisation for the next localisation
 1225              		.loc 1 294 0
 1226 075e 4546     		mov	r5, r8
 1227              	.L18:
ARM GAS  C:\Users\PIERRE~1\AppData\Local\Temp\ccosKNXH.s 			page 32


 1228              	.LVL107:
 109:main.c        ****             state = STATE_INIT;
 1229              		.loc 1 109 0
 1230 0760 024B     		ldr	r3, .L77
 1231 0762 1B7A     		ldrb	r3, [r3, #8]	@ zero_extendqisi2
 1232 0764 012B     		cmp	r3, #1
 1233 0766 3FF4A9AC 		beq	.L64
 1234 076a 78E4     		b	.L65
 1235              	.L78:
 1236              		.align	2
 1237              	.L77:
 1238 076c 00000000 		.word	.LANCHOR0
 1239 0770 60010000 		.word	.LANCHOR0+352
 1240              		.cfi_endproc
 1241              	.LFE64:
 1242              		.size	main, .-main
 1243              		.comm	slave_standard_message,1,1
 1244              		.comm	master_second_message,1,1
 1245              		.comm	master_first_message,1,1
 1246              		.section	.rodata
 1247              		.align	2
 1248              		.set	.LANCHOR1,. + 0
 1249              	.LC0:
 1250 0000 01       		.byte	1
 1251 0001 01       		.byte	1
 1252 0002 01       		.byte	1
 1253 0003 00       		.byte	0
 1254              		.bss
 1255              		.align	3
 1256              		.set	.LANCHOR0,. + 0
 1257              		.type	inter, %object
 1258              		.size	inter, 1
 1259              	inter:
 1260 0000 00       		.space	1
 1261              		.type	TxOk, %object
 1262              		.size	TxOk, 1
 1263              	TxOk:
 1264 0001 00       		.space	1
 1265              		.type	RxOk, %object
 1266              		.size	RxOk, 1
 1267              	RxOk:
 1268 0002 00       		.space	1
 1269              		.type	RxError, %object
 1270              		.size	RxError, 1
 1271              	RxError:
 1272 0003 00       		.space	1
 1273              		.type	number_bytes_receive, %object
 1274              		.size	number_bytes_receive, 2
 1275              	number_bytes_receive:
 1276 0004 0000     		.space	2
 1277 0006 0000     		.space	2
 1278              		.type	RxPhoneData, %object
 1279              		.size	RxPhoneData, 8
 1280              	RxPhoneData:
 1281 0008 00000000 		.space	8
 1281      00000000 
 1282              		.type	TxPhoneData, %object
ARM GAS  C:\Users\PIERRE~1\AppData\Local\Temp\ccosKNXH.s 			page 33


 1283              		.size	TxPhoneData, 63
 1284              	TxPhoneData:
 1285 0010 00000000 		.space	63
 1285      00000000 
 1285      00000000 
 1285      00000000 
 1285      00000000 
 1286              		.type	state, %object
 1287              		.size	state, 1
 1288              	state:
 1289 004f 00       		.space	1
 1290              		.type	TxData, %object
 1291              		.size	TxData, 128
 1292              	TxData:
 1293 0050 00000000 		.space	128
 1293      00000000 
 1293      00000000 
 1293      00000000 
 1293      00000000 
 1294              		.type	t1_8, %object
 1295              		.size	t1_8, 5
 1296              	t1_8:
 1297 00d0 00000000 		.space	5
 1297      00
 1298 00d5 000000   		.space	3
 1299              		.type	RxData, %object
 1300              		.size	RxData, 15
 1301              	RxData:
 1302 00d8 00000000 		.space	15
 1302      00000000 
 1302      00000000 
 1302      000000
 1303 00e7 00       		.space	1
 1304              		.type	t4_8, %object
 1305              		.size	t4_8, 5
 1306              	t4_8:
 1307 00e8 00000000 		.space	5
 1307      00
 1308 00ed 000000   		.space	3
 1309              		.type	t5_8, %object
 1310              		.size	t5_8, 5
 1311              	t5_8:
 1312 00f0 00000000 		.space	5
 1312      00
 1313 00f5 000000   		.space	3
 1314              		.type	t2_8, %object
 1315              		.size	t2_8, 5
 1316              	t2_8:
 1317 00f8 00000000 		.space	5
 1317      00
 1318 00fd 000000   		.space	3
 1319              		.type	t3_8, %object
 1320              		.size	t3_8, 5
 1321              	t3_8:
 1322 0100 00000000 		.space	5
 1322      00
 1323 0105 000000   		.space	3
ARM GAS  C:\Users\PIERRE~1\AppData\Local\Temp\ccosKNXH.s 			page 34


 1324              		.type	t6_8, %object
 1325              		.size	t6_8, 5
 1326              	t6_8:
 1327 0108 00000000 		.space	5
 1327      00
 1328 010d 000000   		.space	3
 1329              		.type	t6, %object
 1330              		.size	t6, 8
 1331              	t6:
 1332 0110 00000000 		.space	8
 1332      00000000 
 1333              		.type	t5, %object
 1334              		.size	t5, 8
 1335              	t5:
 1336 0118 00000000 		.space	8
 1336      00000000 
 1337              		.type	t4, %object
 1338              		.size	t4, 8
 1339              	t4:
 1340 0120 00000000 		.space	8
 1340      00000000 
 1341              		.type	t3, %object
 1342              		.size	t3, 8
 1343              	t3:
 1344 0128 00000000 		.space	8
 1344      00000000 
 1345              		.type	t2, %object
 1346              		.size	t2, 8
 1347              	t2:
 1348 0130 00000000 		.space	8
 1348      00000000 
 1349              		.type	t1, %object
 1350              		.size	t1, 8
 1351              	t1:
 1352 0138 00000000 		.space	8
 1352      00000000 
 1353              		.type	TroundMaster, %object
 1354              		.size	TroundMaster, 8
 1355              	TroundMaster:
 1356 0140 00000000 		.space	8
 1356      00000000 
 1357              		.type	TreplySlave, %object
 1358              		.size	TreplySlave, 8
 1359              	TreplySlave:
 1360 0148 00000000 		.space	8
 1360      00000000 
 1361              		.type	TroundSlave, %object
 1362              		.size	TroundSlave, 8
 1363              	TroundSlave:
 1364 0150 00000000 		.space	8
 1364      00000000 
 1365              		.type	TreplyMaster, %object
 1366              		.size	TreplyMaster, 8
 1367              	TreplyMaster:
 1368 0158 00000000 		.space	8
 1368      00000000 
 1369              		.type	all_clock_time, %object
ARM GAS  C:\Users\PIERRE~1\AppData\Local\Temp\ccosKNXH.s 			page 35


 1370              		.size	all_clock_time, 96
 1371              	all_clock_time:
 1372 0160 00000000 		.space	96
 1372      00000000 
 1372      00000000 
 1372      00000000 
 1372      00000000 
 1373              		.text
 1374              	.Letext0:
 1375              		.file 2 "c:\\program files (x86)\\cypress\\psoc creator\\4.3\\psoc creator\\import\\gnu\\arm\\5.4.
 1376              		.file 3 "c:\\program files (x86)\\cypress\\psoc creator\\4.3\\psoc creator\\import\\gnu\\arm\\5.4.
 1377              		.file 4 "Generated_Source\\PSoC5/core_cm3.h"
 1378              		.file 5 "Generated_Source\\PSoC5/IRQ.h"
 1379              		.file 6 "Generated_Source\\PSoC5/pin_1.h"
 1380              		.file 7 "dwm1000.h"
 1381              		.file 8 "Generated_Source\\PSoC5/LED_1.h"
 1382              		.file 9 "Generated_Source\\PSoC5/LED_2.h"
 1383              		.file 10 "Generated_Source\\PSoC5/LED_3.h"
 1384              		.file 11 "Generated_Source\\PSoC5/LED_4.h"
 1385              		.file 12 "Generated_Source\\PSoC5/USBP.h"
 1386              		.file 13 "Generated_Source\\PSoC5/Timer_1.h"
 1387              		.file 14 "Generated_Source\\PSoC5/SPIM.h"
 1388              		.file 15 "Generated_Source\\PSoC5/CyLib.h"
 1389              		.file 16 "Generated_Source\\PSoC5/rst_in.h"
 1390              		.file 17 "main.h"