ARM GAS  C:\Users\PIERRE~1\AppData\Local\Temp\ccT4SRTq.s 			page 1


   1              		.syntax unified
   2              		.cpu cortex-m3
   3              		.fpu softvfp
   4              		.eabi_attribute 20, 1
   5              		.eabi_attribute 21, 1
   6              		.eabi_attribute 23, 3
   7              		.eabi_attribute 24, 1
   8              		.eabi_attribute 25, 1
   9              		.eabi_attribute 26, 1
  10              		.eabi_attribute 30, 1
  11              		.eabi_attribute 34, 1
  12              		.eabi_attribute 18, 4
  13              		.thumb
  14              		.syntax unified
  15              		.file	"main.c"
  16              		.text
  17              	.Ltext0:
  18              		.cfi_sections	.debug_frame
  19              		.section	.text.freeRTOSInit,"ax",%progbits
  20              		.align	2
  21              		.thumb
  22              		.thumb_func
  23              		.type	freeRTOSInit, %function
  24              	freeRTOSInit:
  25              	.LFB70:
  26              		.file 1 "main.c"
   1:main.c        **** /* Includes ------------------------------------------------------------------*/
   2:main.c        **** 
   3:main.c        **** #include <project.h>
   4:main.c        **** 
   5:main.c        **** /* RTOS includes. */
   6:main.c        **** #include "FreeRTOS.h"
   7:main.c        **** #include "task.h"
   8:main.c        **** #include "queue.h"
   9:main.c        **** #include "timers.h"
  10:main.c        **** #include "semphr.h"
  11:main.c        **** 
  12:main.c        **** #include "main.h"
  13:main.c        **** #include "stdio.h"
  14:main.c        **** #include "dwm1000.h"
  15:main.c        **** #include <string.h>
  16:main.c        **** #include <inttypes.h>
  17:main.c        **** #include <math.h>
  18:main.c        **** 
  19:main.c        **** uint8_t prio_matrice[NUMBER_OF_ANCHOR+1][NUMBER_OF_ANCHOR+1] = {{10,0,0,0},
  20:main.c        ****                                                                 {0,10,0,0},
  21:main.c        ****                                                                 {0,0,10,0},
  22:main.c        ****                                                                 {0,0,0,4},
  23:main.c        ****                                                                 }; //each anchor + usb_out + usb_in
  24:main.c        **** uint8_t prio1 = 18;
  25:main.c        **** uint8_t prio2 = 19;
  26:main.c        **** uint8_t prio3 = 20;
  27:main.c        **** uint8_t prio4 = 17;
  28:main.c        **** uint8_t usb_out_prio = 16;
  29:main.c        **** uint8_t usb_in_prio = 21;
  30:main.c        **** 
  31:main.c        **** uint16_t number_bytes_receive=0;
ARM GAS  C:\Users\PIERRE~1\AppData\Local\Temp\ccT4SRTq.s 			page 2


  32:main.c        **** uint8_t RxPhoneData[8];
  33:main.c        **** uint8_t TxPhoneData[63];
  34:main.c        **** uint64_t all_clock_time[12]={0};
  35:main.c        **** uint8_t found = 0;
  36:main.c        **** 
  37:main.c        **** // Boolean variables
  38:main.c        **** uint8_t TxOk = 0;
  39:main.c        **** uint8_t RxOk = 0;
  40:main.c        **** uint8_t RxError = 0;
  41:main.c        **** uint8_t inter = 0;
  42:main.c        **** 
  43:main.c        **** enum STATE state;
  44:main.c        **** 
  45:main.c        **** /* 		Tasks 		 */
  46:main.c        **** static void freeRTOSInit(void);
  47:main.c        **** static void state_machine_task(void *arg);
  48:main.c        **** static void usb_out(void *arg);
  49:main.c        **** static void usb_in(void *arg);
  50:main.c        **** 
  51:main.c        **** /*      Tasks handle    */
  52:main.c        **** TaskHandle_t taskHandler1; 
  53:main.c        **** TaskHandle_t taskHandler2; 
  54:main.c        **** TaskHandle_t taskHandler3;
  55:main.c        **** TaskHandle_t taskHandler4;
  56:main.c        **** TaskHandle_t usbOutHandler;
  57:main.c        **** TaskHandle_t usbInHandler;
  58:main.c        **** 
  59:main.c        **** SemaphoreHandle_t semaphoreBuf1;
  60:main.c        **** 
  61:main.c        **** //fonction
  62:main.c        **** static void interrupt_routine(void);
  63:main.c        **** static void change_priorities(int slave);
  64:main.c        **** 
  65:main.c        **** /* Interrupt prototypes */
  66:main.c        **** CY_ISR_PROTO(ISR);
  67:main.c        **** 
  68:main.c        **** CY_ISR(ISR){
  69:main.c        ****     IRQ_ClearPending();    /* Clear pending Interrupt */
  70:main.c        ****     pin_1_ClearInterrupt();    /* Clear pin Interrupt */
  71:main.c        **** 	inter = 1;
  72:main.c        **** }
  73:main.c        ****     
  74:main.c        **** static void freeRTOSInit( void ){
  27              		.loc 1 74 0
  28              		.cfi_startproc
  29              		@ args = 0, pretend = 0, frame = 0
  30              		@ frame_needed = 0, uses_anonymous_args = 0
  31              		@ link register save eliminated.
  75:main.c        **** /* Port layer functions that need to be copied into the vector table. */
  76:main.c        **** extern void xPortPendSVHandler( void );
  77:main.c        **** extern void xPortSysTickHandler( void );
  78:main.c        **** extern void vPortSVCHandler( void );
  79:main.c        **** extern cyisraddress CyRamVectors[];
  80:main.c        **** 
  81:main.c        **** 	/* Install the OS Interrupt Handlers. */
  82:main.c        **** 	CyRamVectors[ 11 ] = ( cyisraddress ) vPortSVCHandler;
  32              		.loc 1 82 0
ARM GAS  C:\Users\PIERRE~1\AppData\Local\Temp\ccT4SRTq.s 			page 3


  33 0000 034B     		ldr	r3, .L2
  34 0002 044A     		ldr	r2, .L2+4
  35 0004 DA62     		str	r2, [r3, #44]
  83:main.c        **** 	CyRamVectors[ 14 ] = ( cyisraddress ) xPortPendSVHandler;
  36              		.loc 1 83 0
  37 0006 044A     		ldr	r2, .L2+8
  38 0008 9A63     		str	r2, [r3, #56]
  84:main.c        **** 	CyRamVectors[ 15 ] = ( cyisraddress ) xPortSysTickHandler;
  39              		.loc 1 84 0
  40 000a 044A     		ldr	r2, .L2+12
  41 000c DA63     		str	r2, [r3, #60]
  42 000e 7047     		bx	lr
  43              	.L3:
  44              		.align	2
  45              	.L2:
  46 0010 00000000 		.word	CyRamVectors
  47 0014 00000000 		.word	vPortSVCHandler
  48 0018 00000000 		.word	xPortPendSVHandler
  49 001c 00000000 		.word	xPortSysTickHandler
  50              		.cfi_endproc
  51              	.LFE70:
  52              		.size	freeRTOSInit, .-freeRTOSInit
  53              		.section	.text.ISR,"ax",%progbits
  54              		.align	2
  55              		.global	ISR
  56              		.thumb
  57              		.thumb_func
  58              		.type	ISR, %function
  59              	ISR:
  60              	.LFB69:
  68:main.c        ****     IRQ_ClearPending();    /* Clear pending Interrupt */
  61              		.loc 1 68 0
  62              		.cfi_startproc
  63              		@ args = 0, pretend = 0, frame = 0
  64              		@ frame_needed = 0, uses_anonymous_args = 0
  65 0000 08B5     		push	{r3, lr}
  66              		.cfi_def_cfa_offset 8
  67              		.cfi_offset 3, -8
  68              		.cfi_offset 14, -4
  69:main.c        ****     pin_1_ClearInterrupt();    /* Clear pin Interrupt */
  69              		.loc 1 69 0
  70 0002 FFF7FEFF 		bl	IRQ_ClearPending
  71              	.LVL0:
  70:main.c        **** 	inter = 1;
  72              		.loc 1 70 0
  73 0006 FFF7FEFF 		bl	pin_1_ClearInterrupt
  74              	.LVL1:
  71:main.c        **** }
  75              		.loc 1 71 0
  76 000a 0122     		movs	r2, #1
  77 000c 014B     		ldr	r3, .L6
  78 000e 1A70     		strb	r2, [r3]
  79 0010 08BD     		pop	{r3, pc}
  80              	.L7:
  81 0012 00BF     		.align	2
  82              	.L6:
  83 0014 00000000 		.word	.LANCHOR0
ARM GAS  C:\Users\PIERRE~1\AppData\Local\Temp\ccT4SRTq.s 			page 4


  84              		.cfi_endproc
  85              	.LFE69:
  86              		.size	ISR, .-ISR
  87              		.section	.text.change_priorities,"ax",%progbits
  88              		.align	2
  89              		.thumb
  90              		.thumb_func
  91              		.type	change_priorities, %function
  92              	change_priorities:
  93              	.LFB74:
  85:main.c        **** }
  86:main.c        **** 
  87:main.c        **** static void interrupt_routine(void){
  88:main.c        **** 	uint8_t RxBuffer[4];
  89:main.c        **** 	uint32_t StatusRegister;
  90:main.c        **** 	uint8_t ack[4] = {0};
  91:main.c        **** 	// Getting status Register
  92:main.c        **** 	DWM_ReadSPI_ext(SYS_STATUS, NO_SUB,  RxBuffer, 4);
  93:main.c        **** 	StatusRegister  = (RxBuffer[3] << 24) | (RxBuffer[2] << 16) | (RxBuffer[1] << 8) | RxBuffer[0];
  94:main.c        **** 	if (StatusRegister == 0xFFFFFFFF) {
  95:main.c        **** 		// Read again
  96:main.c        **** 		DWM_ReadSPI_ext(SYS_STATUS, NO_SUB,  RxBuffer, 4);
  97:main.c        **** 		StatusRegister  = (RxBuffer[3] << 24) | (RxBuffer[2] << 16) | (RxBuffer[1] << 8) | RxBuffer[0];
  98:main.c        **** 	}
  99:main.c        **** 	if (StatusRegister & TX_OK_MASK){
 100:main.c        **** 		TxOk = 1;
 101:main.c        **** 		setBit(ack, 4, TX_OK_BIT, 1);
 102:main.c        **** 	}
 103:main.c        **** 	// check if RX finished
 104:main.c        ****     if((StatusRegister & RX_FINISHED_MASK) == RX_FINISHED_MASK){
 105:main.c        ****     	ack[0] |= RX_FINISHED_MASK;
 106:main.c        **** 		ack[1] |= RX_FINISHED_MASK >> 8;
 107:main.c        **** 		ack[2] |= RX_FINISHED_MASK >> 16;
 108:main.c        **** 		ack[3] |= RX_FINISHED_MASK >> 24;
 109:main.c        **** 		RxOk = 1;
 110:main.c        **** 	}
 111:main.c        **** 	if (StatusRegister & RX_ERROR_MASK) {
 112:main.c        **** 		ack[0] |= RX_ERROR_MASK;
 113:main.c        **** 		ack[1] |= RX_ERROR_MASK >> 8;
 114:main.c        **** 		ack[2] |= RX_ERROR_MASK >> 16;
 115:main.c        **** 		ack[3] |= RX_ERROR_MASK >> 24;
 116:main.c        **** 		RxError = 1;
 117:main.c        ****     }
 118:main.c        ****     
 119:main.c        **** 	// clear IRQ flags on DW
 120:main.c        **** 	DWM_WriteSPI_ext(SYS_STATUS, NO_SUB, ack, 4);
 121:main.c        ****     inter=0;
 122:main.c        **** }
 123:main.c        **** 
 124:main.c        **** static void usb_out(void *arg){
 125:main.c        **** 
 126:main.c        ****     (void) *arg;
 127:main.c        ****     for(;;){
 128:main.c        ****         for(int i=0;i<12;i++){                  // Preparation of data
 129:main.c        ****             TxPhoneData[5*i]=all_clock_time[i];       
 130:main.c        ****             TxPhoneData[5*i+1]=all_clock_time[i]>>8;       
 131:main.c        ****             TxPhoneData[5*i+2]=all_clock_time[i]>>16;       
ARM GAS  C:\Users\PIERRE~1\AppData\Local\Temp\ccT4SRTq.s 			page 5


 132:main.c        ****             TxPhoneData[5*i+3]=all_clock_time[i]>>24;       
 133:main.c        ****             TxPhoneData[5*i+4]=all_clock_time[i]>>32;
 134:main.c        ****             all_clock_time[i]=0;
 135:main.c        ****         }
 136:main.c        ****         USBP_LoadInEP(1,TxPhoneData,63);
 137:main.c        ****         change_priorities(4);
 138:main.c        ****     }
 139:main.c        **** }
 140:main.c        **** 
 141:main.c        **** static void usb_in(void *arg){
 142:main.c        ****     (void) *arg;
 143:main.c        ****     for(;;){
 144:main.c        ****         USBP_EnableOutEP(2);
 145:main.c        ****         while(USBP_bGetEPAckState(2)==USBP_OUT_BUFFER_EMPTY)
 146:main.c        ****         number_bytes_receive=USBP_GetEPCount(2);
 147:main.c        ****         USBP_ReadOutEP(2,RxPhoneData,number_bytes_receive);
 148:main.c        ****         USBP_DisableOutEP(2);
 149:main.c        ****         if(RxPhoneData[0]==0x04 && RxPhoneData[1]==0x06){   //test connection
 150:main.c        ****             TxPhoneData[0]=0x02;
 151:main.c        ****             TxPhoneData[1]=0x03;
 152:main.c        ****             TxPhoneData[2]=0x46;
 153:main.c        ****             TxPhoneData[3]=0x37;
 154:main.c        ****             USBP_LoadInEP(1,TxPhoneData,4);
 155:main.c        ****         }else if(RxPhoneData[0]==0x01){
 156:main.c        ****             change_priorities(-1);
 157:main.c        ****         }
 158:main.c        ****     }
 159:main.c        **** }
 160:main.c        **** 
 161:main.c        **** static void change_priorities(int num){
  94              		.loc 1 161 0
  95              		.cfi_startproc
  96              		@ args = 0, pretend = 0, frame = 0
  97              		@ frame_needed = 0, uses_anonymous_args = 0
  98              	.LVL2:
  99 0000 38B5     		push	{r3, r4, r5, lr}
 100              		.cfi_def_cfa_offset 16
 101              		.cfi_offset 3, -16
 102              		.cfi_offset 4, -12
 103              		.cfi_offset 5, -8
 104              		.cfi_offset 14, -4
 105 0002 0446     		mov	r4, r0
 162:main.c        ****     taskENTER_CRITICAL();
 106              		.loc 1 162 0
 107 0004 FFF7FEFF 		bl	vPortEnterCritical
 108              	.LVL3:
 163:main.c        ****     if(num == -1){
 109              		.loc 1 163 0
 110 0008 B4F1FF3F 		cmp	r4, #-1
 111 000c 1BD1     		bne	.L9
 164:main.c        ****         vTaskPrioritySet(taskHandler1, prio1);
 112              		.loc 1 164 0
 113 000e 2D4C     		ldr	r4, .L13
 114              	.LVL4:
 115 0010 2178     		ldrb	r1, [r4]	@ zero_extendqisi2
 116 0012 2D4B     		ldr	r3, .L13+4
 117 0014 1868     		ldr	r0, [r3]
ARM GAS  C:\Users\PIERRE~1\AppData\Local\Temp\ccT4SRTq.s 			page 6


 118 0016 FFF7FEFF 		bl	vTaskPrioritySet
 119              	.LVL5:
 165:main.c        ****         vTaskPrioritySet(taskHandler2, prio2);
 120              		.loc 1 165 0
 121 001a 6178     		ldrb	r1, [r4, #1]	@ zero_extendqisi2
 122 001c 2B4B     		ldr	r3, .L13+8
 123 001e 1868     		ldr	r0, [r3]
 124 0020 FFF7FEFF 		bl	vTaskPrioritySet
 125              	.LVL6:
 166:main.c        ****         vTaskPrioritySet(taskHandler3, prio3);
 126              		.loc 1 166 0
 127 0024 A178     		ldrb	r1, [r4, #2]	@ zero_extendqisi2
 128 0026 2A4B     		ldr	r3, .L13+12
 129 0028 1868     		ldr	r0, [r3]
 130 002a FFF7FEFF 		bl	vTaskPrioritySet
 131              	.LVL7:
 167:main.c        ****         if(NUMBER_OF_ANCHOR > 3){
 168:main.c        ****             vTaskPrioritySet(taskHandler4, prio4);
 169:main.c        ****         }
 170:main.c        ****         vTaskPrioritySet(usbOutHandler, usb_out_prio);
 132              		.loc 1 170 0
 133 002e E178     		ldrb	r1, [r4, #3]	@ zero_extendqisi2
 134 0030 284B     		ldr	r3, .L13+16
 135 0032 1868     		ldr	r0, [r3]
 136 0034 FFF7FEFF 		bl	vTaskPrioritySet
 137              	.LVL8:
 171:main.c        ****         vTaskPrioritySet(usbInHandler, usb_out_prio - 1);
 138              		.loc 1 171 0
 139 0038 E178     		ldrb	r1, [r4, #3]	@ zero_extendqisi2
 140 003a 0139     		subs	r1, r1, #1
 141 003c 264B     		ldr	r3, .L13+20
 142 003e 1868     		ldr	r0, [r3]
 143 0040 FFF7FEFF 		bl	vTaskPrioritySet
 144              	.LVL9:
 145 0044 3AE0     		b	.L10
 146              	.LVL10:
 147              	.L9:
 172:main.c        ****     }else if(num == 4){
 148              		.loc 1 172 0
 149 0046 042C     		cmp	r4, #4
 150 0048 0DD1     		bne	.L11
 173:main.c        ****         vTaskPrioritySet(usbOutHandler, usb_out_prio - 2);
 151              		.loc 1 173 0
 152 004a 1E4C     		ldr	r4, .L13
 153              	.LVL11:
 154 004c E178     		ldrb	r1, [r4, #3]	@ zero_extendqisi2
 155 004e 0239     		subs	r1, r1, #2
 156 0050 204B     		ldr	r3, .L13+16
 157 0052 1868     		ldr	r0, [r3]
 158 0054 FFF7FEFF 		bl	vTaskPrioritySet
 159              	.LVL12:
 174:main.c        ****         vTaskPrioritySet(usbInHandler, usb_out_prio + 10);
 160              		.loc 1 174 0
 161 0058 E178     		ldrb	r1, [r4, #3]	@ zero_extendqisi2
 162 005a 0A31     		adds	r1, r1, #10
 163 005c 1E4B     		ldr	r3, .L13+20
 164 005e 1868     		ldr	r0, [r3]
ARM GAS  C:\Users\PIERRE~1\AppData\Local\Temp\ccT4SRTq.s 			page 7


 165 0060 FFF7FEFF 		bl	vTaskPrioritySet
 166              	.LVL13:
 167 0064 2AE0     		b	.L10
 168              	.LVL14:
 169              	.L11:
 175:main.c        ****     }else{
 176:main.c        ****         vTaskPrioritySet(taskHandler1, uxTaskPriorityGet(taskHandler1)-prio_matrice[num][0]);
 170              		.loc 1 176 0
 171 0066 184B     		ldr	r3, .L13+4
 172 0068 1D68     		ldr	r5, [r3]
 173 006a 2846     		mov	r0, r5
 174 006c FFF7FEFF 		bl	uxTaskPriorityGet
 175              	.LVL15:
 176 0070 144B     		ldr	r3, .L13
 177 0072 03EB8404 		add	r4, r3, r4, lsl #2
 178              	.LVL16:
 179 0076 2179     		ldrb	r1, [r4, #4]	@ zero_extendqisi2
 180 0078 411A     		subs	r1, r0, r1
 181 007a 2846     		mov	r0, r5
 182 007c FFF7FEFF 		bl	vTaskPrioritySet
 183              	.LVL17:
 177:main.c        ****         vTaskPrioritySet(taskHandler2, uxTaskPriorityGet(taskHandler2)-prio_matrice[num][1]);
 184              		.loc 1 177 0
 185 0080 124B     		ldr	r3, .L13+8
 186 0082 1D68     		ldr	r5, [r3]
 187 0084 2846     		mov	r0, r5
 188 0086 FFF7FEFF 		bl	uxTaskPriorityGet
 189              	.LVL18:
 190 008a 6179     		ldrb	r1, [r4, #5]	@ zero_extendqisi2
 191 008c 411A     		subs	r1, r0, r1
 192 008e 2846     		mov	r0, r5
 193 0090 FFF7FEFF 		bl	vTaskPrioritySet
 194              	.LVL19:
 178:main.c        ****         vTaskPrioritySet(taskHandler3, uxTaskPriorityGet(taskHandler3)-prio_matrice[num][2]);
 195              		.loc 1 178 0
 196 0094 0E4B     		ldr	r3, .L13+12
 197 0096 1D68     		ldr	r5, [r3]
 198 0098 2846     		mov	r0, r5
 199 009a FFF7FEFF 		bl	uxTaskPriorityGet
 200              	.LVL20:
 201 009e A179     		ldrb	r1, [r4, #6]	@ zero_extendqisi2
 202 00a0 411A     		subs	r1, r0, r1
 203 00a2 2846     		mov	r0, r5
 204 00a4 FFF7FEFF 		bl	vTaskPrioritySet
 205              	.LVL21:
 179:main.c        ****         if(NUMBER_OF_ANCHOR > 3){
 180:main.c        ****             vTaskPrioritySet(taskHandler4, uxTaskPriorityGet(taskHandler4)-prio_matrice[num][3]);
 181:main.c        ****             vTaskPrioritySet(usbOutHandler, uxTaskPriorityGet(usbOutHandler)-prio_matrice[num][4]);
 182:main.c        ****         }else{
 183:main.c        ****             vTaskPrioritySet(usbOutHandler, uxTaskPriorityGet(usbOutHandler)-prio_matrice[num][3]);
 206              		.loc 1 183 0
 207 00a8 0A4B     		ldr	r3, .L13+16
 208 00aa 1D68     		ldr	r5, [r3]
 209 00ac 2846     		mov	r0, r5
 210 00ae FFF7FEFF 		bl	uxTaskPriorityGet
 211              	.LVL22:
 212 00b2 E179     		ldrb	r1, [r4, #7]	@ zero_extendqisi2
ARM GAS  C:\Users\PIERRE~1\AppData\Local\Temp\ccT4SRTq.s 			page 8


 213 00b4 411A     		subs	r1, r0, r1
 214 00b6 2846     		mov	r0, r5
 215 00b8 FFF7FEFF 		bl	vTaskPrioritySet
 216              	.LVL23:
 217              	.L10:
 184:main.c        ****         }
 185:main.c        ****     }
 186:main.c        ****     taskEXIT_CRITICAL();
 218              		.loc 1 186 0
 219 00bc FFF7FEFF 		bl	vPortExitCritical
 220              	.LVL24:
 221 00c0 38BD     		pop	{r3, r4, r5, pc}
 222              	.L14:
 223 00c2 00BF     		.align	2
 224              	.L13:
 225 00c4 00000000 		.word	.LANCHOR1
 226 00c8 00000000 		.word	taskHandler1
 227 00cc 00000000 		.word	taskHandler2
 228 00d0 00000000 		.word	taskHandler3
 229 00d4 00000000 		.word	usbOutHandler
 230 00d8 00000000 		.word	usbInHandler
 231              		.cfi_endproc
 232              	.LFE74:
 233              		.size	change_priorities, .-change_priorities
 234              		.section	.text.usb_in,"ax",%progbits
 235              		.align	2
 236              		.thumb
 237              		.thumb_func
 238              		.type	usb_in, %function
 239              	usb_in:
 240              	.LFB73:
 141:main.c        ****     (void) *arg;
 241              		.loc 1 141 0
 242              		.cfi_startproc
 243              		@ Volatile: function does not return.
 244              		@ args = 0, pretend = 0, frame = 0
 245              		@ frame_needed = 0, uses_anonymous_args = 0
 246              	.LVL25:
 247 0000 08B5     		push	{r3, lr}
 248              		.cfi_def_cfa_offset 8
 249              		.cfi_offset 3, -8
 250              		.cfi_offset 14, -4
 251              	.LVL26:
 252              	.L16:
 144:main.c        ****         while(USBP_bGetEPAckState(2)==USBP_OUT_BUFFER_EMPTY)
 253              		.loc 1 144 0
 254 0002 0220     		movs	r0, #2
 255 0004 FFF7FEFF 		bl	USBP_EnableOutEP
 256              	.LVL27:
 145:main.c        ****         number_bytes_receive=USBP_GetEPCount(2);
 257              		.loc 1 145 0
 258 0008 04E0     		b	.L17
 259              	.L18:
 146:main.c        ****         USBP_ReadOutEP(2,RxPhoneData,number_bytes_receive);
 260              		.loc 1 146 0
 261 000a 0220     		movs	r0, #2
 262 000c FFF7FEFF 		bl	USBP_GetEPCount
ARM GAS  C:\Users\PIERRE~1\AppData\Local\Temp\ccT4SRTq.s 			page 9


 263              	.LVL28:
 264 0010 154B     		ldr	r3, .L22
 265 0012 5880     		strh	r0, [r3, #2]	@ movhi
 266              	.L17:
 145:main.c        ****         number_bytes_receive=USBP_GetEPCount(2);
 267              		.loc 1 145 0
 268 0014 0220     		movs	r0, #2
 269 0016 FFF7FEFF 		bl	USBP_GetEPAckState
 270              	.LVL29:
 271 001a 0028     		cmp	r0, #0
 272 001c F5D0     		beq	.L18
 147:main.c        ****         USBP_DisableOutEP(2);
 273              		.loc 1 147 0
 274 001e 134C     		ldr	r4, .L22+4
 275 0020 114B     		ldr	r3, .L22
 276 0022 5A88     		ldrh	r2, [r3, #2]
 277 0024 2146     		mov	r1, r4
 278 0026 0220     		movs	r0, #2
 279 0028 FFF7FEFF 		bl	USBP_ReadOutEP
 280              	.LVL30:
 148:main.c        ****         if(RxPhoneData[0]==0x04 && RxPhoneData[1]==0x06){   //test connection
 281              		.loc 1 148 0
 282 002c 0220     		movs	r0, #2
 283 002e FFF7FEFF 		bl	USBP_DisableOutEP
 284              	.LVL31:
 149:main.c        ****             TxPhoneData[0]=0x02;
 285              		.loc 1 149 0
 286 0032 2378     		ldrb	r3, [r4]	@ zero_extendqisi2
 287 0034 042B     		cmp	r3, #4
 288 0036 10D1     		bne	.L19
 149:main.c        ****             TxPhoneData[0]=0x02;
 289              		.loc 1 149 0 is_stmt 0 discriminator 1
 290 0038 6278     		ldrb	r2, [r4, #1]	@ zero_extendqisi2
 291 003a 062A     		cmp	r2, #6
 292 003c 0DD1     		bne	.L19
 150:main.c        ****             TxPhoneData[1]=0x03;
 293              		.loc 1 150 0 is_stmt 1
 294 003e 0C49     		ldr	r1, .L22+8
 295 0040 0223     		movs	r3, #2
 296 0042 0B70     		strb	r3, [r1]
 151:main.c        ****             TxPhoneData[2]=0x46;
 297              		.loc 1 151 0
 298 0044 0323     		movs	r3, #3
 299 0046 4B70     		strb	r3, [r1, #1]
 152:main.c        ****             TxPhoneData[3]=0x37;
 300              		.loc 1 152 0
 301 0048 4623     		movs	r3, #70
 302 004a 8B70     		strb	r3, [r1, #2]
 153:main.c        ****             USBP_LoadInEP(1,TxPhoneData,4);
 303              		.loc 1 153 0
 304 004c 3723     		movs	r3, #55
 305 004e CB70     		strb	r3, [r1, #3]
 154:main.c        ****         }else if(RxPhoneData[0]==0x01){
 306              		.loc 1 154 0
 307 0050 0422     		movs	r2, #4
 308 0052 0120     		movs	r0, #1
 309 0054 FFF7FEFF 		bl	USBP_LoadInEP
ARM GAS  C:\Users\PIERRE~1\AppData\Local\Temp\ccT4SRTq.s 			page 10


 310              	.LVL32:
 311 0058 D3E7     		b	.L16
 312              	.L19:
 155:main.c        ****             change_priorities(-1);
 313              		.loc 1 155 0
 314 005a 012B     		cmp	r3, #1
 315 005c D1D1     		bne	.L16
 156:main.c        ****         }
 316              		.loc 1 156 0
 317 005e 4FF0FF30 		mov	r0, #-1
 318 0062 FFF7FEFF 		bl	change_priorities
 319              	.LVL33:
 320 0066 CCE7     		b	.L16
 321              	.L23:
 322              		.align	2
 323              	.L22:
 324 0068 00000000 		.word	.LANCHOR0
 325 006c 00000000 		.word	RxPhoneData
 326 0070 00000000 		.word	TxPhoneData
 327              		.cfi_endproc
 328              	.LFE73:
 329              		.size	usb_in, .-usb_in
 330              		.section	.text.usb_out,"ax",%progbits
 331              		.align	2
 332              		.thumb
 333              		.thumb_func
 334              		.type	usb_out, %function
 335              	usb_out:
 336              	.LFB72:
 124:main.c        **** 
 337              		.loc 1 124 0
 338              		.cfi_startproc
 339              		@ args = 0, pretend = 0, frame = 0
 340              		@ frame_needed = 0, uses_anonymous_args = 0
 341              	.LVL34:
 342 0000 F8B5     		push	{r3, r4, r5, r6, r7, lr}
 343              		.cfi_def_cfa_offset 24
 344              		.cfi_offset 3, -24
 345              		.cfi_offset 4, -20
 346              		.cfi_offset 5, -16
 347              		.cfi_offset 6, -12
 348              		.cfi_offset 7, -8
 349              		.cfi_offset 14, -4
 350              	.LVL35:
 351              	.L27:
 352              	.LBB2:
 128:main.c        ****             TxPhoneData[5*i]=all_clock_time[i];       
 353              		.loc 1 128 0
 354 0002 0021     		movs	r1, #0
 355 0004 18E0     		b	.L25
 356              	.LVL36:
 357              	.L26:
 129:main.c        ****             TxPhoneData[5*i+1]=all_clock_time[i]>>8;       
 358              		.loc 1 129 0 discriminator 3
 359 0006 01EB8103 		add	r3, r1, r1, lsl #2
 360 000a 1148     		ldr	r0, .L29
 361 000c 00EBC100 		add	r0, r0, r1, lsl #3
ARM GAS  C:\Users\PIERRE~1\AppData\Local\Temp\ccT4SRTq.s 			page 11


 362 0010 8268     		ldr	r2, [r0, #8]
 363 0012 C568     		ldr	r5, [r0, #12]
 364 0014 0F4C     		ldr	r4, .L29+4
 365 0016 E254     		strb	r2, [r4, r3]
 130:main.c        ****             TxPhoneData[5*i+2]=all_clock_time[i]>>16;       
 366              		.loc 1 130 0 discriminator 3
 367 0018 5E1C     		adds	r6, r3, #1
 368 001a 170A     		lsrs	r7, r2, #8
 369 001c A755     		strb	r7, [r4, r6]
 131:main.c        ****             TxPhoneData[5*i+3]=all_clock_time[i]>>24;       
 370              		.loc 1 131 0 discriminator 3
 371 001e 9E1C     		adds	r6, r3, #2
 372 0020 170C     		lsrs	r7, r2, #16
 373 0022 A755     		strb	r7, [r4, r6]
 132:main.c        ****             TxPhoneData[5*i+4]=all_clock_time[i]>>32;
 374              		.loc 1 132 0 discriminator 3
 375 0024 DE1C     		adds	r6, r3, #3
 376 0026 120E     		lsrs	r2, r2, #24
 377 0028 A255     		strb	r2, [r4, r6]
 133:main.c        ****             all_clock_time[i]=0;
 378              		.loc 1 133 0 discriminator 3
 379 002a 0433     		adds	r3, r3, #4
 380 002c E554     		strb	r5, [r4, r3]
 134:main.c        ****         }
 381              		.loc 1 134 0 discriminator 3
 382 002e 0022     		movs	r2, #0
 383 0030 0023     		movs	r3, #0
 384 0032 C0E90223 		strd	r2, [r0, #8]
 128:main.c        ****             TxPhoneData[5*i]=all_clock_time[i];       
 385              		.loc 1 128 0 discriminator 3
 386 0036 0131     		adds	r1, r1, #1
 387              	.LVL37:
 388              	.L25:
 128:main.c        ****             TxPhoneData[5*i]=all_clock_time[i];       
 389              		.loc 1 128 0 is_stmt 0 discriminator 1
 390 0038 0B29     		cmp	r1, #11
 391 003a E4DD     		ble	.L26
 392              	.LBE2:
 136:main.c        ****         change_priorities(4);
 393              		.loc 1 136 0 is_stmt 1
 394 003c 3F22     		movs	r2, #63
 395 003e 0549     		ldr	r1, .L29+4
 396              	.LVL38:
 397 0040 0120     		movs	r0, #1
 398 0042 FFF7FEFF 		bl	USBP_LoadInEP
 399              	.LVL39:
 137:main.c        ****     }
 400              		.loc 1 137 0
 401 0046 0420     		movs	r0, #4
 402 0048 FFF7FEFF 		bl	change_priorities
 403              	.LVL40:
 138:main.c        **** }
 404              		.loc 1 138 0
 405 004c D9E7     		b	.L27
 406              	.L30:
 407 004e 00BF     		.align	2
 408              	.L29:
ARM GAS  C:\Users\PIERRE~1\AppData\Local\Temp\ccT4SRTq.s 			page 12


 409 0050 00000000 		.word	.LANCHOR0
 410 0054 00000000 		.word	TxPhoneData
 411              		.cfi_endproc
 412              	.LFE72:
 413              		.size	usb_out, .-usb_out
 414              		.section	.text.interrupt_routine,"ax",%progbits
 415              		.align	2
 416              		.thumb
 417              		.thumb_func
 418              		.type	interrupt_routine, %function
 419              	interrupt_routine:
 420              	.LFB71:
  87:main.c        **** 	uint8_t RxBuffer[4];
 421              		.loc 1 87 0
 422              		.cfi_startproc
 423              		@ args = 0, pretend = 0, frame = 8
 424              		@ frame_needed = 0, uses_anonymous_args = 0
 425 0000 10B5     		push	{r4, lr}
 426              		.cfi_def_cfa_offset 8
 427              		.cfi_offset 4, -8
 428              		.cfi_offset 14, -4
 429 0002 82B0     		sub	sp, sp, #8
 430              		.cfi_def_cfa_offset 16
  90:main.c        **** 	// Getting status Register
 431              		.loc 1 90 0
 432 0004 0023     		movs	r3, #0
 433 0006 0093     		str	r3, [sp]
  92:main.c        **** 	StatusRegister  = (RxBuffer[3] << 24) | (RxBuffer[2] << 16) | (RxBuffer[1] << 8) | RxBuffer[0];
 434              		.loc 1 92 0
 435 0008 0423     		movs	r3, #4
 436 000a 0DEB0302 		add	r2, sp, r3
 437 000e 4FF6FF71 		movw	r1, #65535
 438 0012 0F20     		movs	r0, #15
 439 0014 FFF7FEFF 		bl	DWM_ReadSPI_ext
 440              	.LVL41:
  93:main.c        **** 	if (StatusRegister == 0xFFFFFFFF) {
 441              		.loc 1 93 0
 442 0018 9DF80740 		ldrb	r4, [sp, #7]	@ zero_extendqisi2
 443 001c 9DF80630 		ldrb	r3, [sp, #6]	@ zero_extendqisi2
 444 0020 1B04     		lsls	r3, r3, #16
 445 0022 43EA0464 		orr	r4, r3, r4, lsl #24
 446 0026 9DF80530 		ldrb	r3, [sp, #5]	@ zero_extendqisi2
 447 002a 44EA0323 		orr	r3, r4, r3, lsl #8
 448 002e 9DF80440 		ldrb	r4, [sp, #4]	@ zero_extendqisi2
 449 0032 1C43     		orrs	r4, r4, r3
 450              	.LVL42:
  94:main.c        **** 		// Read again
 451              		.loc 1 94 0
 452 0034 B4F1FF3F 		cmp	r4, #-1
 453 0038 15D1     		bne	.L32
  96:main.c        **** 		StatusRegister  = (RxBuffer[3] << 24) | (RxBuffer[2] << 16) | (RxBuffer[1] << 8) | RxBuffer[0];
 454              		.loc 1 96 0
 455 003a 0423     		movs	r3, #4
 456 003c 0DEB0302 		add	r2, sp, r3
 457 0040 4FF6FF71 		movw	r1, #65535
 458 0044 0F20     		movs	r0, #15
 459 0046 FFF7FEFF 		bl	DWM_ReadSPI_ext
ARM GAS  C:\Users\PIERRE~1\AppData\Local\Temp\ccT4SRTq.s 			page 13


 460              	.LVL43:
  97:main.c        **** 	}
 461              		.loc 1 97 0
 462 004a 9DF80740 		ldrb	r4, [sp, #7]	@ zero_extendqisi2
 463              	.LVL44:
 464 004e 9DF80630 		ldrb	r3, [sp, #6]	@ zero_extendqisi2
 465 0052 1B04     		lsls	r3, r3, #16
 466 0054 43EA0463 		orr	r3, r3, r4, lsl #24
 467 0058 9DF80540 		ldrb	r4, [sp, #5]	@ zero_extendqisi2
 468 005c 43EA0423 		orr	r3, r3, r4, lsl #8
 469 0060 9DF80440 		ldrb	r4, [sp, #4]	@ zero_extendqisi2
 470 0064 1C43     		orrs	r4, r4, r3
 471              	.LVL45:
 472              	.L32:
  99:main.c        **** 		TxOk = 1;
 473              		.loc 1 99 0
 474 0066 14F0800F 		tst	r4, #128
 475 006a 08D0     		beq	.L33
 100:main.c        **** 		setBit(ack, 4, TX_OK_BIT, 1);
 476              		.loc 1 100 0
 477 006c 0123     		movs	r3, #1
 478 006e 1E4A     		ldr	r2, .L37
 479 0070 82F86830 		strb	r3, [r2, #104]
 101:main.c        **** 	}
 480              		.loc 1 101 0
 481 0074 0722     		movs	r2, #7
 482 0076 0421     		movs	r1, #4
 483 0078 6846     		mov	r0, sp
 484 007a FFF7FEFF 		bl	setBit
 485              	.LVL46:
 486              	.L33:
 104:main.c        ****     	ack[0] |= RX_FINISHED_MASK;
 487              		.loc 1 104 0
 488 007e 04F4C843 		and	r3, r4, #25600
 489 0082 B3F5C84F 		cmp	r3, #25600
 490 0086 09D1     		bne	.L34
 106:main.c        **** 		ack[2] |= RX_FINISHED_MASK >> 16;
 491              		.loc 1 106 0
 492 0088 9DF80130 		ldrb	r3, [sp, #1]	@ zero_extendqisi2
 493 008c 43F06403 		orr	r3, r3, #100
 494 0090 8DF80130 		strb	r3, [sp, #1]
 109:main.c        **** 	}
 495              		.loc 1 109 0
 496 0094 0122     		movs	r2, #1
 497 0096 144B     		ldr	r3, .L37
 498 0098 83F86920 		strb	r2, [r3, #105]
 499              	.L34:
 111:main.c        **** 		ack[0] |= RX_ERROR_MASK;
 500              		.loc 1 111 0
 501 009c 134B     		ldr	r3, .L37+4
 502 009e 1C42     		tst	r4, r3
 503 00a0 15D0     		beq	.L35
 113:main.c        **** 		ack[2] |= RX_ERROR_MASK >> 16;
 504              		.loc 1 113 0
 505 00a2 9DF80130 		ldrb	r3, [sp, #1]	@ zero_extendqisi2
 506 00a6 63F06F03 		orn	r3, r3, #111
 507 00aa 8DF80130 		strb	r3, [sp, #1]
ARM GAS  C:\Users\PIERRE~1\AppData\Local\Temp\ccT4SRTq.s 			page 14


 114:main.c        **** 		ack[3] |= RX_ERROR_MASK >> 24;
 508              		.loc 1 114 0
 509 00ae 9DF80230 		ldrb	r3, [sp, #2]	@ zero_extendqisi2
 510 00b2 43F02703 		orr	r3, r3, #39
 511 00b6 8DF80230 		strb	r3, [sp, #2]
 115:main.c        **** 		RxError = 1;
 512              		.loc 1 115 0
 513 00ba 9DF80330 		ldrb	r3, [sp, #3]	@ zero_extendqisi2
 514 00be 43F00403 		orr	r3, r3, #4
 515 00c2 8DF80330 		strb	r3, [sp, #3]
 116:main.c        ****     }
 516              		.loc 1 116 0
 517 00c6 0122     		movs	r2, #1
 518 00c8 074B     		ldr	r3, .L37
 519 00ca 83F86A20 		strb	r2, [r3, #106]
 520              	.L35:
 120:main.c        ****     inter=0;
 521              		.loc 1 120 0
 522 00ce 0423     		movs	r3, #4
 523 00d0 6A46     		mov	r2, sp
 524 00d2 4FF6FF71 		movw	r1, #65535
 525 00d6 0F20     		movs	r0, #15
 526 00d8 FFF7FEFF 		bl	DWM_WriteSPI_ext
 527              	.LVL47:
 121:main.c        **** }
 528              		.loc 1 121 0
 529 00dc 0022     		movs	r2, #0
 530 00de 024B     		ldr	r3, .L37
 531 00e0 1A70     		strb	r2, [r3]
 122:main.c        **** 
 532              		.loc 1 122 0
 533 00e2 02B0     		add	sp, sp, #8
 534              		.cfi_def_cfa_offset 8
 535              		@ sp needed
 536 00e4 10BD     		pop	{r4, pc}
 537              	.LVL48:
 538              	.L38:
 539 00e6 00BF     		.align	2
 540              	.L37:
 541 00e8 00000000 		.word	.LANCHOR0
 542 00ec 00902704 		.word	69701632
 543              		.cfi_endproc
 544              	.LFE71:
 545              		.size	interrupt_routine, .-interrupt_routine
 546              		.section	.text.state_machine_task,"ax",%progbits
 547              		.align	2
 548              		.thumb
 549              		.thumb_func
 550              		.type	state_machine_task, %function
 551              	state_machine_task:
 552              	.LFB76:
 187:main.c        **** }
 188:main.c        **** 
 189:main.c        **** int main(void){
 190:main.c        **** 	LED_1_Write(LIGHT_OFF);
 191:main.c        ****     LED_2_Write(LIGHT_OFF);
 192:main.c        ****     LED_3_Write(LIGHT_OFF);
ARM GAS  C:\Users\PIERRE~1\AppData\Local\Temp\ccT4SRTq.s 			page 15


 193:main.c        ****     LED_4_Write(LIGHT_OFF);
 194:main.c        ****     
 195:main.c        ****     //temp to accomodate smartphone's software
 196:main.c        ****     TxPhoneData[60]=1;
 197:main.c        ****     TxPhoneData[61]=2;
 198:main.c        ****     TxPhoneData[62]=3;
 199:main.c        ****     
 200:main.c        ****     CyGlobalIntEnable;
 201:main.c        ****     
 202:main.c        ****     USBP_Start(0, USBP_DWR_VDDD_OPERATION);
 203:main.c        ****     
 204:main.c        ****     freeRTOSInit();
 205:main.c        ****     Timer_1_Start();
 206:main.c        ****     
 207:main.c        ****     /* initialisation of the DecaWave */
 208:main.c        ****     SPIM_Start();
 209:main.c        **** 	CyDelay(10u); //time for the DW to go from Wakeup to init and then IDLE
 210:main.c        **** 	DWM_Init();
 211:main.c        ****     
 212:main.c        ****     /* Sets up the GPIO interrupt and enables it */
 213:main.c        ****     IRQ_StartEx(ISR);
 214:main.c        ****     IRQ_SetPriority(ISR_PRIORITY);
 215:main.c        ****     while(!USBP_bGetConfiguration());
 216:main.c        ****     //initialize tasks (one for each slave + usb_out, usb_in)
 217:main.c        ****     int slaveNummer = 1;
 218:main.c        ****     xTaskCreate(state_machine_task,"slave_1", 1024, (void*) slaveNummer, 1, &taskHandler1);
 219:main.c        ****     slaveNummer = 2;
 220:main.c        ****     xTaskCreate(state_machine_task,"slave_2", 1024, (void*) slaveNummer, 1, &taskHandler2);
 221:main.c        ****     slaveNummer = 3;
 222:main.c        ****     xTaskCreate(state_machine_task,"slave_3", 1024, (void*) slaveNummer, 1, &taskHandler3);
 223:main.c        ****     xTaskCreate(usb_out, "usb_out", 1024, NULL, usb_out_prio, &usbOutHandler);
 224:main.c        ****     xTaskCreate(usb_in, "usb_in", 1024, NULL, usb_in_prio, &usbInHandler);
 225:main.c        ****     semaphoreBuf1 = xSemaphoreCreateBinary();
 226:main.c        ****     vTaskStartScheduler();
 227:main.c        ****     for(;;){
 228:main.c        ****     }
 229:main.c        **** }
 230:main.c        ****     
 231:main.c        **** static void state_machine_task(void *arg){	
 553              		.loc 1 231 0
 554              		.cfi_startproc
 555              		@ args = 0, pretend = 0, frame = 304
 556              		@ frame_needed = 0, uses_anonymous_args = 0
 557              	.LVL49:
 558 0000 2DE9F04F 		push	{r4, r5, r6, r7, r8, r9, r10, fp, lr}
 559              		.cfi_def_cfa_offset 36
 560              		.cfi_offset 4, -36
 561              		.cfi_offset 5, -32
 562              		.cfi_offset 6, -28
 563              		.cfi_offset 7, -24
 564              		.cfi_offset 8, -20
 565              		.cfi_offset 9, -16
 566              		.cfi_offset 10, -12
 567              		.cfi_offset 11, -8
 568              		.cfi_offset 14, -4
 569 0004 CDB0     		sub	sp, sp, #308
 570              		.cfi_def_cfa_offset 344
ARM GAS  C:\Users\PIERRE~1\AppData\Local\Temp\ccT4SRTq.s 			page 16


 232:main.c        **** 	uint8_t slaveNummer = (uint8_t) arg;
 571              		.loc 1 232 0
 572 0006 C3B2     		uxtb	r3, r0
 573 0008 1A46     		mov	r2, r3
 574 000a 1993     		str	r3, [sp, #100]
 575              	.LVL50:
 233:main.c        ****     uint8_t master_first_message = 0x10 | slaveNummer;
 576              		.loc 1 233 0
 577 000c 43F01003 		orr	r3, r3, #16
 578              	.LVL51:
 579 0010 1793     		str	r3, [sp, #92]
 580              	.LVL52:
 234:main.c        ****     uint8_t master_second_message	= 0x20 | slaveNummer;
 581              		.loc 1 234 0
 582 0012 42F02003 		orr	r3, r2, #32
 583 0016 1893     		str	r3, [sp, #96]
 584              	.LVL53:
 585 0018 1A92     		str	r2, [sp, #104]
 235:main.c        ****     uint8_t slave_standard_message	= 0x0A | slaveNummer<<4;
 586              		.loc 1 235 0
 587 001a 0301     		lsls	r3, r0, #4
 588 001c 03F47F63 		and	r3, r3, #4080
 589 0020 43F00A03 		orr	r3, r3, #10
 590 0024 DBB2     		uxtb	r3, r3
 591 0026 1B93     		str	r3, [sp, #108]
 592              	.LVL54:
 593 0028 A246     		mov	r10, r4
 594 002a AB46     		mov	fp, r5
 595              	.LVL55:
 596              	.L68:
 236:main.c        ****     
 237:main.c        ****     uint8_t RxData[15];
 238:main.c        ****     uint8_t TxData[128];
 239:main.c        ****     uint64_t t1, t2, t3, t4, t5, t6;
 240:main.c        ****     uint8_t t1_8[5];
 241:main.c        ****     uint8_t t2_8[5];
 242:main.c        ****     uint8_t t3_8[5];
 243:main.c        ****     uint8_t t4_8[5];
 244:main.c        ****     uint8_t t5_8[5];
 245:main.c        ****     uint8_t t6_8[5];
 246:main.c        ****     uint64_t TroundMaster;
 247:main.c        ****     uint64_t TreplySlave;
 248:main.c        ****     uint64_t TroundSlave;
 249:main.c        ****     uint64_t TreplyMaster;
 250:main.c        ****     
 251:main.c        **** 	for(;;){
 252:main.c        ****         state = STATE_INIT;
 597              		.loc 1 252 0
 598 002c 0024     		movs	r4, #0
 599 002e 874B     		ldr	r3, .L70
 600 0030 1C70     		strb	r4, [r3]
 253:main.c        ****         Timer_1_Enable();
 601              		.loc 1 253 0
 602 0032 FFF7FEFF 		bl	Timer_1_Enable
 603              	.LVL56:
 254:main.c        ****         rst_in_Write(1u);   //reset timer
 604              		.loc 1 254 0
ARM GAS  C:\Users\PIERRE~1\AppData\Local\Temp\ccT4SRTq.s 			page 17


 605 0036 0120     		movs	r0, #1
 606 0038 FFF7FEFF 		bl	rst_in_Write
 607              	.LVL57:
 255:main.c        ****         CyDelay(1u);
 608              		.loc 1 255 0
 609 003c 0120     		movs	r0, #1
 610 003e FFF7FEFF 		bl	CyDelay
 611              	.LVL58:
 256:main.c        ****         rst_in_Write(0u);
 612              		.loc 1 256 0
 613 0042 2046     		mov	r0, r4
 614 0044 FFF7FEFF 		bl	rst_in_Write
 615              	.LVL59:
 616 0048 CDE91067 		strd	r6, [sp, #64]
 257:main.c        ****         while(Timer_1_ReadCounter()>0x001F){
 617              		.loc 1 257 0
 618 004c FFE1     		b	.L41
 619              	.LVL60:
 620              	.L67:
 258:main.c        ****             switch(state){
 621              		.loc 1 258 0
 622 004e 7F4B     		ldr	r3, .L70
 623 0050 1B78     		ldrb	r3, [r3]	@ zero_extendqisi2
 624 0052 062B     		cmp	r3, #6
 625 0054 00F2FB81 		bhi	.L41
 626 0058 DFE813F0 		tbh	[pc, r3, lsl #1]
 627              	.L43:
 628 005c 0700     		.2byte	(.L42-.L43)/2
 629 005e 1E00     		.2byte	(.L44-.L43)/2
 630 0060 3D00     		.2byte	(.L45-.L43)/2
 631 0062 7100     		.2byte	(.L46-.L43)/2
 632 0064 8000     		.2byte	(.L47-.L43)/2
 633 0066 A200     		.2byte	(.L48-.L43)/2
 634 0068 8E01     		.2byte	(.L49-.L43)/2
 635              		.p2align 1
 636              	.L42:
 259:main.c        ****     			case STATE_INIT :
 260:main.c        ****                         idle();
 637              		.loc 1 260 0
 638 006a FFF7FEFF 		bl	idle
 639              	.LVL61:
 261:main.c        ****     					RxError = 0;
 640              		.loc 1 261 0
 641 006e 784B     		ldr	r3, .L70+4
 642 0070 0022     		movs	r2, #0
 643 0072 83F86A20 		strb	r2, [r3, #106]
 262:main.c        ****     					TxOk = 0;
 644              		.loc 1 262 0
 645 0076 83F86820 		strb	r2, [r3, #104]
 263:main.c        ****     					RxOk = 0;
 646              		.loc 1 263 0
 647 007a 83F86920 		strb	r2, [r3, #105]
 264:main.c        ****                         TxData[0] = master_first_message;
 648              		.loc 1 264 0
 649 007e 4CA8     		add	r0, sp, #304
 650 0080 9DF85C30 		ldrb	r3, [sp, #92]	@ zero_extendqisi2
 651 0084 00F8903D 		strb	r3, [r0, #-144]!
ARM GAS  C:\Users\PIERRE~1\AppData\Local\Temp\ccT4SRTq.s 			page 18


 265:main.c        ****                         DWM_SendData(TxData,1,1);
 652              		.loc 1 265 0
 653 0088 0122     		movs	r2, #1
 654 008a 1146     		mov	r1, r2
 655 008c FFF7FEFF 		bl	DWM_SendData
 656              	.LVL62:
 266:main.c        ****     					state = STATE_WAIT_FIRST_SEND;
 657              		.loc 1 266 0
 658 0090 0122     		movs	r2, #1
 659 0092 6E4B     		ldr	r3, .L70
 660 0094 1A70     		strb	r2, [r3]
 267:main.c        ****     			break;
 661              		.loc 1 267 0
 662 0096 DAE1     		b	.L41
 663              	.L44:
 268:main.c        ****                         
 269:main.c        ****     			case STATE_WAIT_FIRST_SEND :
 270:main.c        ****                         if(inter==1){
 664              		.loc 1 270 0
 665 0098 6D4B     		ldr	r3, .L70+4
 666 009a 1B78     		ldrb	r3, [r3]	@ zero_extendqisi2
 667 009c 012B     		cmp	r3, #1
 668 009e 01D1     		bne	.L51
 271:main.c        ****                             interrupt_routine();
 669              		.loc 1 271 0
 670 00a0 FFF7FEFF 		bl	interrupt_routine
 671              	.LVL63:
 672              	.L51:
 272:main.c        ****                         }
 273:main.c        ****     					if (TxOk){
 673              		.loc 1 273 0
 674 00a4 6A4B     		ldr	r3, .L70+4
 675 00a6 93F86830 		ldrb	r3, [r3, #104]	@ zero_extendqisi2
 676 00aa 002B     		cmp	r3, #0
 677 00ac 00F0CF81 		beq	.L41
 274:main.c        ****     							DWM_ReadSPI_ext(TX_TIME, NO_SUB, t1_8, 5);//get tx time (T1)
 678              		.loc 1 274 0
 679 00b0 0523     		movs	r3, #5
 680 00b2 26AA     		add	r2, sp, #152
 681 00b4 4FF6FF71 		movw	r1, #65535
 682 00b8 1720     		movs	r0, #23
 683 00ba FFF7FEFF 		bl	DWM_ReadSPI_ext
 684              	.LVL64:
 275:main.c        ****     							TxOk = 0;
 685              		.loc 1 275 0
 686 00be 0022     		movs	r2, #0
 687 00c0 634B     		ldr	r3, .L70+4
 688 00c2 83F86820 		strb	r2, [r3, #104]
 276:main.c        ****                                 idle();
 689              		.loc 1 276 0
 690 00c6 FFF7FEFF 		bl	idle
 691              	.LVL65:
 277:main.c        ****                                 DWM_Enable_Rx();
 692              		.loc 1 277 0
 693 00ca FFF7FEFF 		bl	DWM_Enable_Rx
 694              	.LVL66:
 278:main.c        ****                                 state = STATE_WAIT_RESPONSE;
ARM GAS  C:\Users\PIERRE~1\AppData\Local\Temp\ccT4SRTq.s 			page 19


 695              		.loc 1 278 0
 696 00ce 0222     		movs	r2, #2
 697 00d0 5E4B     		ldr	r3, .L70
 698 00d2 1A70     		strb	r2, [r3]
 699 00d4 BBE1     		b	.L41
 700              	.L45:
 279:main.c        ****     						}
 280:main.c        ****     			break;
 281:main.c        ****                         
 282:main.c        ****     			case STATE_WAIT_RESPONSE:
 283:main.c        ****                         if(inter==1){
 701              		.loc 1 283 0
 702 00d6 5E4B     		ldr	r3, .L70+4
 703 00d8 1B78     		ldrb	r3, [r3]	@ zero_extendqisi2
 704 00da 012B     		cmp	r3, #1
 705 00dc 01D1     		bne	.L52
 284:main.c        ****                             interrupt_routine();
 706              		.loc 1 284 0
 707 00de FFF7FEFF 		bl	interrupt_routine
 708              	.LVL67:
 709              	.L52:
 285:main.c        ****                         }
 286:main.c        ****     					if (RxError){
 710              		.loc 1 286 0
 711 00e2 5B4B     		ldr	r3, .L70+4
 712 00e4 93F86A30 		ldrb	r3, [r3, #106]	@ zero_extendqisi2
 713 00e8 43B1     		cbz	r3, .L53
 287:main.c        ****     						RxError = 0;
 714              		.loc 1 287 0
 715 00ea 0024     		movs	r4, #0
 716 00ec 584B     		ldr	r3, .L70+4
 717 00ee 83F86A40 		strb	r4, [r3, #106]
 288:main.c        ****                             DWM_Reset_Rx();
 718              		.loc 1 288 0
 719 00f2 FFF7FEFF 		bl	DWM_Reset_Rx
 720              	.LVL68:
 289:main.c        ****     						state = STATE_INIT;
 721              		.loc 1 289 0
 722 00f6 554B     		ldr	r3, .L70
 723 00f8 1C70     		strb	r4, [r3]
 724 00fa A8E1     		b	.L41
 725              	.L53:
 290:main.c        ****     					}
 291:main.c        ****     					else if (RxOk){
 726              		.loc 1 291 0
 727 00fc 544B     		ldr	r3, .L70+4
 728 00fe 93F86930 		ldrb	r3, [r3, #105]	@ zero_extendqisi2
 729 0102 002B     		cmp	r3, #0
 730 0104 00F0A381 		beq	.L41
 292:main.c        ****                             
 293:main.c        ****     						DWM_ReceiveData(RxData); 	// Read Rx buffer
 731              		.loc 1 293 0
 732 0108 48A8     		add	r0, sp, #288
 733 010a FFF7FEFF 		bl	DWM_ReceiveData
 734              	.LVL69:
 294:main.c        ****     						if (RxData[0] == slave_standard_message){   // Check RxFrame
 735              		.loc 1 294 0
ARM GAS  C:\Users\PIERRE~1\AppData\Local\Temp\ccT4SRTq.s 			page 20


 736 010e 9DF82031 		ldrb	r3, [sp, #288]	@ zero_extendqisi2
 737 0112 1B9A     		ldr	r2, [sp, #108]
 738 0114 9A42     		cmp	r2, r3
 739 0116 0AD1     		bne	.L54
 295:main.c        ****                                 DWM_ReadSPI_ext(RX_TIME,NO_SUB, t4_8,5);// get T4
 740              		.loc 1 295 0
 741 0118 0523     		movs	r3, #5
 742 011a 20AA     		add	r2, sp, #128
 743 011c 4FF6FF71 		movw	r1, #65535
 744 0120 1520     		movs	r0, #21
 745 0122 FFF7FEFF 		bl	DWM_ReadSPI_ext
 746              	.LVL70:
 296:main.c        ****     							state = STATE_SECOND_SEND;
 747              		.loc 1 296 0
 748 0126 0322     		movs	r2, #3
 749 0128 484B     		ldr	r3, .L70
 750 012a 1A70     		strb	r2, [r3]
 751 012c 02E0     		b	.L55
 752              	.L54:
 297:main.c        ****     						}
 298:main.c        ****     						else state = STATE_INIT;
 753              		.loc 1 298 0
 754 012e 0022     		movs	r2, #0
 755 0130 464B     		ldr	r3, .L70
 756 0132 1A70     		strb	r2, [r3]
 757              	.L55:
 299:main.c        ****     						RxOk = 0;
 758              		.loc 1 299 0
 759 0134 0022     		movs	r2, #0
 760 0136 464B     		ldr	r3, .L70+4
 761 0138 83F86920 		strb	r2, [r3, #105]
 762 013c 87E1     		b	.L41
 763              	.L46:
 300:main.c        ****     					}
 301:main.c        ****     			break;
 302:main.c        ****                         
 303:main.c        ****     			case STATE_SECOND_SEND:	
 304:main.c        ****                         idle();
 764              		.loc 1 304 0
 765 013e FFF7FEFF 		bl	idle
 766              	.LVL71:
 305:main.c        ****         				TxData[0] = master_second_message;
 767              		.loc 1 305 0
 768 0142 4CA8     		add	r0, sp, #304
 769 0144 9DF86030 		ldrb	r3, [sp, #96]	@ zero_extendqisi2
 770 0148 00F8903D 		strb	r3, [r0, #-144]!
 306:main.c        ****         				DWM_SendData(TxData, 1, 1);
 771              		.loc 1 306 0
 772 014c 0122     		movs	r2, #1
 773 014e 1146     		mov	r1, r2
 774 0150 FFF7FEFF 		bl	DWM_SendData
 775              	.LVL72:
 307:main.c        ****         				state = STATE_WAIT_SECOND_SEND;
 776              		.loc 1 307 0
 777 0154 0422     		movs	r2, #4
 778 0156 3D4B     		ldr	r3, .L70
 779 0158 1A70     		strb	r2, [r3]
ARM GAS  C:\Users\PIERRE~1\AppData\Local\Temp\ccT4SRTq.s 			page 21


 308:main.c        ****     			break;
 780              		.loc 1 308 0
 781 015a 78E1     		b	.L41
 782              	.L47:
 309:main.c        ****                         
 310:main.c        ****     			case STATE_WAIT_SECOND_SEND:
 311:main.c        ****                         if(inter==1){
 783              		.loc 1 311 0
 784 015c 3C4B     		ldr	r3, .L70+4
 785 015e 1B78     		ldrb	r3, [r3]	@ zero_extendqisi2
 786 0160 012B     		cmp	r3, #1
 787 0162 01D1     		bne	.L56
 312:main.c        ****                             interrupt_routine();
 788              		.loc 1 312 0
 789 0164 FFF7FEFF 		bl	interrupt_routine
 790              	.LVL73:
 791              	.L56:
 313:main.c        ****                         }
 314:main.c        ****     					if (TxOk){
 792              		.loc 1 314 0
 793 0168 394B     		ldr	r3, .L70+4
 794 016a 93F86830 		ldrb	r3, [r3, #104]	@ zero_extendqisi2
 795 016e 002B     		cmp	r3, #0
 796 0170 00F06D81 		beq	.L41
 315:main.c        ****                                 LED_1_Write(LIGHT_ON);
 797              		.loc 1 315 0
 798 0174 0120     		movs	r0, #1
 799 0176 FFF7FEFF 		bl	LED_1_Write
 800              	.LVL74:
 316:main.c        ****     							DWM_ReadSPI_ext(TX_TIME, NO_SUB, t5_8, 5);	//get tx time (T5)
 801              		.loc 1 316 0
 802 017a 0523     		movs	r3, #5
 803 017c 1EAA     		add	r2, sp, #120
 804 017e 4FF6FF71 		movw	r1, #65535
 805 0182 1720     		movs	r0, #23
 806 0184 FFF7FEFF 		bl	DWM_ReadSPI_ext
 807              	.LVL75:
 317:main.c        ****     							state = STATE_GET_TIMES;
 808              		.loc 1 317 0
 809 0188 0522     		movs	r2, #5
 810 018a 304B     		ldr	r3, .L70
 811 018c 1A70     		strb	r2, [r3]
 318:main.c        ****                                 idle();
 812              		.loc 1 318 0
 813 018e FFF7FEFF 		bl	idle
 814              	.LVL76:
 319:main.c        ****                                 DWM_Enable_Rx();
 815              		.loc 1 319 0
 816 0192 FFF7FEFF 		bl	DWM_Enable_Rx
 817              	.LVL77:
 320:main.c        ****     							TxOk = 0;
 818              		.loc 1 320 0
 819 0196 0022     		movs	r2, #0
 820 0198 2D4B     		ldr	r3, .L70+4
 821 019a 83F86820 		strb	r2, [r3, #104]
 822 019e 56E1     		b	.L41
 823              	.L48:
ARM GAS  C:\Users\PIERRE~1\AppData\Local\Temp\ccT4SRTq.s 			page 22


 321:main.c        ****     					}
 322:main.c        ****     			break;
 323:main.c        ****                         
 324:main.c        ****     			case STATE_GET_TIMES :
 325:main.c        ****                         if(inter==1){
 824              		.loc 1 325 0
 825 01a0 2B4B     		ldr	r3, .L70+4
 826 01a2 1B78     		ldrb	r3, [r3]	@ zero_extendqisi2
 827 01a4 012B     		cmp	r3, #1
 828 01a6 01D1     		bne	.L57
 326:main.c        ****                             interrupt_routine();
 829              		.loc 1 326 0
 830 01a8 FFF7FEFF 		bl	interrupt_routine
 831              	.LVL78:
 832              	.L57:
 327:main.c        ****                         }
 328:main.c        ****     					if (RxError){
 833              		.loc 1 328 0
 834 01ac 284B     		ldr	r3, .L70+4
 835 01ae 93F86A30 		ldrb	r3, [r3, #106]	@ zero_extendqisi2
 836 01b2 43B1     		cbz	r3, .L58
 329:main.c        ****                             
 330:main.c        ****     						state = STATE_INIT;
 837              		.loc 1 330 0
 838 01b4 0024     		movs	r4, #0
 839 01b6 254B     		ldr	r3, .L70
 840 01b8 1C70     		strb	r4, [r3]
 331:main.c        ****                             DWM_Reset_Rx();
 841              		.loc 1 331 0
 842 01ba FFF7FEFF 		bl	DWM_Reset_Rx
 843              	.LVL79:
 332:main.c        ****     						RxError = 0;
 844              		.loc 1 332 0
 845 01be 244B     		ldr	r3, .L70+4
 846 01c0 83F86A40 		strb	r4, [r3, #106]
 847 01c4 43E1     		b	.L41
 848              	.L58:
 333:main.c        ****     					}
 334:main.c        ****     					else if (RxOk){
 849              		.loc 1 334 0
 850 01c6 224B     		ldr	r3, .L70+4
 851 01c8 93F86930 		ldrb	r3, [r3, #105]	@ zero_extendqisi2
 852 01cc 002B     		cmp	r3, #0
 853 01ce 00F03E81 		beq	.L41
 335:main.c        ****                             LED_1_Write(LIGHT_OFF);
 854              		.loc 1 335 0
 855 01d2 0020     		movs	r0, #0
 856 01d4 FFF7FEFF 		bl	LED_1_Write
 857              	.LVL80:
 336:main.c        ****                             LED_2_Write(LIGHT_ON);
 858              		.loc 1 336 0
 859 01d8 0120     		movs	r0, #1
 860 01da FFF7FEFF 		bl	LED_2_Write
 861              	.LVL81:
 337:main.c        ****                             LED_3_Write(LIGHT_OFF);
 862              		.loc 1 337 0
 863 01de 0020     		movs	r0, #0
ARM GAS  C:\Users\PIERRE~1\AppData\Local\Temp\ccT4SRTq.s 			page 23


 864 01e0 FFF7FEFF 		bl	LED_3_Write
 865              	.LVL82:
 338:main.c        ****                             LED_4_Write(LIGHT_OFF);
 866              		.loc 1 338 0
 867 01e4 0020     		movs	r0, #0
 868 01e6 FFF7FEFF 		bl	LED_4_Write
 869              	.LVL83:
 339:main.c        ****     
 340:main.c        ****     						DWM_ReceiveData(RxData);	//Read Rx Buffer
 870              		.loc 1 340 0
 871 01ea 48A8     		add	r0, sp, #288
 872 01ec FFF7FEFF 		bl	DWM_ReceiveData
 873              	.LVL84:
 874              	.LBB3:
 341:main.c        ****     						for (int i=0;i<5;i++){
 875              		.loc 1 341 0
 876 01f0 0023     		movs	r3, #0
 877 01f2 14E0     		b	.L59
 878              	.LVL85:
 879              	.L60:
 342:main.c        ****     							t2_8[i] = RxData[i];
 880              		.loc 1 342 0 discriminator 3
 881 01f4 4CAA     		add	r2, sp, #304
 882 01f6 1A44     		add	r2, r2, r3
 883 01f8 12F8101C 		ldrb	r1, [r2, #-16]	@ zero_extendqisi2
 884 01fc 02F8A01C 		strb	r1, [r2, #-160]
 343:main.c        ****     							t3_8[i] = RxData[i+5];
 885              		.loc 1 343 0 discriminator 3
 886 0200 591D     		adds	r1, r3, #5
 887 0202 4CA8     		add	r0, sp, #304
 888 0204 0144     		add	r1, r1, r0
 889 0206 11F8101C 		ldrb	r1, [r1, #-16]	@ zero_extendqisi2
 890 020a 02F8A81C 		strb	r1, [r2, #-168]
 344:main.c        ****     							t6_8[i] = RxData[i+10];
 891              		.loc 1 344 0 discriminator 3
 892 020e 03F10A01 		add	r1, r3, #10
 893 0212 0144     		add	r1, r1, r0
 894 0214 11F8101C 		ldrb	r1, [r1, #-16]	@ zero_extendqisi2
 895 0218 02F8C01C 		strb	r1, [r2, #-192]
 341:main.c        ****     							t2_8[i] = RxData[i];
 896              		.loc 1 341 0 discriminator 3
 897 021c 0133     		adds	r3, r3, #1
 898              	.LVL86:
 899              	.L59:
 341:main.c        ****     							t2_8[i] = RxData[i];
 900              		.loc 1 341 0 is_stmt 0 discriminator 1
 901 021e 042B     		cmp	r3, #4
 902 0220 E8DD     		ble	.L60
 903 0222 0022     		movs	r2, #0
 904 0224 4FF00008 		mov	r8, #0
 905              	.LVL87:
 906 0228 4FF00009 		mov	r9, #0
 907 022c CDE90C89 		strd	r8, [sp, #48]
 908              	.LVL88:
 909 0230 C246     		mov	r10, r8
 910              	.LVL89:
 911 0232 CB46     		mov	fp, r9
ARM GAS  C:\Users\PIERRE~1\AppData\Local\Temp\ccT4SRTq.s 			page 24


 912 0234 4646     		mov	r6, r8
 913 0236 4F46     		mov	r7, r9
 914 0238 4446     		mov	r4, r8
 915 023a 4D46     		mov	r5, r9
 916 023c 4046     		mov	r0, r8
 917 023e 4946     		mov	r1, r9
 918 0240 CDE90E01 		strd	r0, [sp, #56]
 919              	.LVL90:
 920 0244 CDE91045 		strd	r4, [sp, #64]
 921              	.LVL91:
 922 0248 75E0     		b	.L61
 923              	.L71:
 924 024a 00BF     		.align	2
 925              	.L70:
 926 024c 00000000 		.word	state
 927 0250 00000000 		.word	.LANCHOR0
 928              	.LVL92:
 929              	.L62:
 930              	.LBE3:
 931              	.LBB4:
 345:main.c        ****     						}
 346:main.c        ****                            
 347:main.c        ****     						// Cast all times to uint64
 348:main.c        ****     						t1 = t2 = t3 = t4 = t5 = t6 = 0;
 349:main.c        ****     						for (int i=0;i<5;i++){
 350:main.c        ****     							t1 = (t1 << 8) | t1_8[4-i];
 932              		.loc 1 350 0 is_stmt 1 discriminator 3
 933 0254 DDE90E45 		ldrd	r4, [sp, #56]
 934 0258 2B02     		lsls	r3, r5, #8
 935 025a 43EA1463 		orr	r3, r3, r4, lsr #24
 936 025e 0193     		str	r3, [sp, #4]
 937 0260 2302     		lsls	r3, r4, #8
 938 0262 0093     		str	r3, [sp]
 939 0264 C2F10403 		rsb	r3, r2, #4
 940 0268 4CA9     		add	r1, sp, #304
 941 026a 0B44     		add	r3, r3, r1
 942 026c 13F8980C 		ldrb	r0, [r3, #-152]	@ zero_extendqisi2
 943 0270 0021     		movs	r1, #0
 944 0272 DDE90045 		ldrd	r4, [sp]
 945 0276 0443     		orrs	r4, r4, r0
 946 0278 0D43     		orrs	r5, r5, r1
 947 027a CDE90E45 		strd	r4, [sp, #56]
 948              	.LVL93:
 351:main.c        ****     							t2 = (t2 << 8) | t2_8[4-i];
 949              		.loc 1 351 0 discriminator 3
 950 027e DDE91045 		ldrd	r4, [sp, #64]
 951              	.LVL94:
 952 0282 2902     		lsls	r1, r5, #8
 953 0284 41EA1461 		orr	r1, r1, r4, lsr #24
 954 0288 0391     		str	r1, [sp, #12]
 955 028a 2102     		lsls	r1, r4, #8
 956 028c 0291     		str	r1, [sp, #8]
 957 028e 13F8A04C 		ldrb	r4, [r3, #-160]	@ zero_extendqisi2
 958 0292 0025     		movs	r5, #0
 959 0294 DDE90201 		ldrd	r0, [sp, #8]
 960 0298 2043     		orrs	r0, r0, r4
 961 029a 2943     		orrs	r1, r1, r5
ARM GAS  C:\Users\PIERRE~1\AppData\Local\Temp\ccT4SRTq.s 			page 25


 962 029c CDE91001 		strd	r0, [sp, #64]
 963              	.LVL95:
 352:main.c        ****     							t3 = (t3 << 8) | t3_8[4-i];
 964              		.loc 1 352 0 discriminator 3
 965 02a0 3902     		lsls	r1, r7, #8
 966 02a2 41EA1661 		orr	r1, r1, r6, lsr #24
 967 02a6 0591     		str	r1, [sp, #20]
 968 02a8 3102     		lsls	r1, r6, #8
 969 02aa 0491     		str	r1, [sp, #16]
 970 02ac 13F8A86C 		ldrb	r6, [r3, #-168]	@ zero_extendqisi2
 971              	.LVL96:
 972 02b0 0027     		movs	r7, #0
 973 02b2 DDE90401 		ldrd	r0, [sp, #16]
 974              	.LVL97:
 975 02b6 3043     		orrs	r0, r0, r6
 976 02b8 3943     		orrs	r1, r1, r7
 977 02ba 0646     		mov	r6, r0
 978 02bc 0F46     		mov	r7, r1
 979              	.LVL98:
 353:main.c        ****     							t4 = (t4 << 8) | t4_8[4-i];
 980              		.loc 1 353 0 discriminator 3
 981 02be 4FEA0B21 		lsl	r1, fp, #8
 982 02c2 41EA1A61 		orr	r1, r1, r10, lsr #24
 983 02c6 0791     		str	r1, [sp, #28]
 984 02c8 4FEA0A21 		lsl	r1, r10, #8
 985 02cc 0691     		str	r1, [sp, #24]
 986 02ce 13F8B0AC 		ldrb	r10, [r3, #-176]	@ zero_extendqisi2
 987              	.LVL99:
 988 02d2 4FF0000B 		mov	fp, #0
 989 02d6 DDE90601 		ldrd	r0, [sp, #24]
 990 02da 40EA0A00 		orr	r0, r0, r10
 991 02de 41EA0B01 		orr	r1, r1, fp
 992 02e2 8246     		mov	r10, r0
 993 02e4 8B46     		mov	fp, r1
 994              	.LVL100:
 354:main.c        ****     							t5 = (t5 << 8) | t5_8[4-i];
 995              		.loc 1 354 0 discriminator 3
 996 02e6 DDE90C45 		ldrd	r4, [sp, #48]
 997 02ea 2902     		lsls	r1, r5, #8
 998 02ec 41EA1461 		orr	r1, r1, r4, lsr #24
 999 02f0 0991     		str	r1, [sp, #36]
 1000 02f2 2102     		lsls	r1, r4, #8
 1001 02f4 0891     		str	r1, [sp, #32]
 1002 02f6 13F8B80C 		ldrb	r0, [r3, #-184]	@ zero_extendqisi2
 1003 02fa 0021     		movs	r1, #0
 1004 02fc 0446     		mov	r4, r0
 1005 02fe 0D46     		mov	r5, r1
 1006 0300 DDE90801 		ldrd	r0, [sp, #32]
 1007 0304 2043     		orrs	r0, r0, r4
 1008 0306 2943     		orrs	r1, r1, r5
 1009 0308 CDE90C01 		strd	r0, [sp, #48]
 1010              	.LVL101:
 355:main.c        ****     							t6 = (t6 << 8) | t6_8[4-i];
 1011              		.loc 1 355 0 discriminator 3
 1012 030c 4FEA0921 		lsl	r1, r9, #8
 1013 0310 41EA1861 		orr	r1, r1, r8, lsr #24
 1014 0314 0B91     		str	r1, [sp, #44]
ARM GAS  C:\Users\PIERRE~1\AppData\Local\Temp\ccT4SRTq.s 			page 26


 1015 0316 4FEA0821 		lsl	r1, r8, #8
 1016 031a 0A91     		str	r1, [sp, #40]
 1017 031c 13F8C08C 		ldrb	r8, [r3, #-192]	@ zero_extendqisi2
 1018              	.LVL102:
 1019 0320 4FF00009 		mov	r9, #0
 1020 0324 DDE90A34 		ldrd	r3, [sp, #40]
 1021 0328 43EA0803 		orr	r3, r3, r8
 1022 032c 44EA0904 		orr	r4, r4, r9
 1023 0330 9846     		mov	r8, r3
 1024 0332 A146     		mov	r9, r4
 1025              	.LVL103:
 349:main.c        ****     							t1 = (t1 << 8) | t1_8[4-i];
 1026              		.loc 1 349 0 discriminator 3
 1027 0334 0132     		adds	r2, r2, #1
 1028              	.LVL104:
 1029              	.L61:
 349:main.c        ****     							t1 = (t1 << 8) | t1_8[4-i];
 1030              		.loc 1 349 0 is_stmt 0 discriminator 1
 1031 0336 042A     		cmp	r2, #4
 1032 0338 8CDD     		ble	.L62
 1033 033a DDE91045 		ldrd	r4, [sp, #64]
 1034 033e CDE91445 		strd	r4, [sp, #80]
 1035 0342 CDE91067 		strd	r6, [sp, #64]
 1036              	.LVL105:
 1037              	.LBE4:
 356:main.c        ****     						}
 357:main.c        ****     						if (t6 < t2 || t5 < t1){
 1038              		.loc 1 357 0 is_stmt 1
 1039 0346 2346     		mov	r3, r4
 1040 0348 A945     		cmp	r9, r5
 1041 034a 08BF     		it	eq
 1042 034c 9845     		cmpeq	r8, r3
 1043 034e 07D3     		bcc	.L63
 1044              		.loc 1 357 0 is_stmt 0 discriminator 1
 1045 0350 DDE90C12 		ldrd	r1, [sp, #48]
 1046 0354 DDE90E34 		ldrd	r3, [sp, #56]
 1047 0358 A242     		cmp	r2, r4
 1048 035a 08BF     		it	eq
 1049 035c 9942     		cmpeq	r1, r3
 1050 035e 03D2     		bcs	.L64
 1051              	.L63:
 358:main.c        ****     							state = STATE_INIT;
 1052              		.loc 1 358 0 is_stmt 1
 1053 0360 0022     		movs	r2, #0
 1054              	.LVL106:
 1055 0362 3F4B     		ldr	r3, .L72
 1056 0364 1A70     		strb	r2, [r3]
 1057 0366 72E0     		b	.L41
 1058              	.LVL107:
 1059              	.L64:
 359:main.c        ****     						}
 360:main.c        ****     						else{
 361:main.c        ****     							state = STATE_END;
 1060              		.loc 1 361 0
 1061 0368 0622     		movs	r2, #6
 1062              	.LVL108:
 1063 036a 3D4B     		ldr	r3, .L72
ARM GAS  C:\Users\PIERRE~1\AppData\Local\Temp\ccT4SRTq.s 			page 27


 1064              	.LVL109:
 1065 036c 1A70     		strb	r2, [r3]
 362:main.c        ****     							RxOk = 0;
 1066              		.loc 1 362 0
 1067 036e 0022     		movs	r2, #0
 1068 0370 3C4B     		ldr	r3, .L72+4
 1069 0372 83F86920 		strb	r2, [r3, #105]
 1070 0376 6AE0     		b	.L41
 1071              	.LVL110:
 1072              	.L49:
 363:main.c        ****     						}
 364:main.c        ****     					}
 365:main.c        ****     			break;
 366:main.c        ****     			
 367:main.c        ****     			case STATE_END :
 368:main.c        ****                         idle();
 1073              		.loc 1 368 0
 1074 0378 FFF7FEFF 		bl	idle
 1075              	.LVL111:
 369:main.c        ****                     TroundMaster = (t4-t1);         //Time calculation
 1076              		.loc 1 369 0
 1077 037c DDE90E01 		ldrd	r0, [sp, #56]
 1078 0380 BAEB0000 		subs	r0, r10, r0
 1079 0384 6BEB0101 		sbc	r1, fp, r1
 1080              	.LVL112:
 370:main.c        ****     				TreplySlave = (t3-t2);
 1081              		.loc 1 370 0
 1082 0388 DDE91434 		ldrd	r3, [sp, #80]
 1083 038c DDE91056 		ldrd	r5, [sp, #64]
 1084 0390 ED1A     		subs	r5, r5, r3
 1085 0392 66EB0406 		sbc	r6, r6, r4
 1086 0396 2B46     		mov	r3, r5
 1087 0398 3446     		mov	r4, r6
 1088 039a CDE91234 		strd	r3, [sp, #72]
 1089              	.LVL113:
 371:main.c        ****     				TroundSlave = (t6-t3);
 1090              		.loc 1 371 0
 1091 039e DDE91045 		ldrd	r4, [sp, #64]
 1092 03a2 B8EB0404 		subs	r4, r8, r4
 1093 03a6 69EB0505 		sbc	r5, r9, r5
 1094 03aa 2646     		mov	r6, r4
 1095 03ac 2F46     		mov	r7, r5
 1096              	.LVL114:
 372:main.c        ****     				TreplyMaster = (t5-t4);
 1097              		.loc 1 372 0
 1098 03ae DDE90C45 		ldrd	r4, [sp, #48]
 1099 03b2 B4EB0A04 		subs	r4, r4, r10
 1100 03b6 65EB0B05 		sbc	r5, r5, fp
 1101              	.LVL115:
 373:main.c        ****                     all_clock_time[4*found] = TroundMaster;
 1102              		.loc 1 373 0
 1103 03ba DFF8A8C0 		ldr	ip, .L72+4
 1104 03be 9CF86BE0 		ldrb	lr, [ip, #107]	@ zero_extendqisi2
 1105 03c2 4FEA8E02 		lsl	r2, lr, #2
 1106 03c6 0CEB4E13 		add	r3, ip, lr, lsl #5
 1107              	.LVL116:
 1108 03ca C3E90201 		strd	r0, [r3, #8]
ARM GAS  C:\Users\PIERRE~1\AppData\Local\Temp\ccT4SRTq.s 			page 28


 374:main.c        ****                     all_clock_time[4*found+1] = TroundSlave;
 1109              		.loc 1 374 0
 1110 03ce 511C     		adds	r1, r2, #1
 1111 03d0 0CEBC101 		add	r1, ip, r1, lsl #3
 1112 03d4 C1E90267 		strd	r6, [r1, #8]
 375:main.c        ****                     all_clock_time[4*found+2] = TreplyMaster;
 1113              		.loc 1 375 0
 1114 03d8 931C     		adds	r3, r2, #2
 1115 03da 0CEBC303 		add	r3, ip, r3, lsl #3
 1116 03de C3E90245 		strd	r4, [r3, #8]
 376:main.c        ****                     all_clock_time[4*found+3] = TreplySlave;
 1117              		.loc 1 376 0
 1118 03e2 D31C     		adds	r3, r2, #3
 1119 03e4 0CEBC303 		add	r3, ip, r3, lsl #3
 1120 03e8 DDE91212 		ldrd	r1, [sp, #72]
 1121 03ec C3E90212 		strd	r1, [r3, #8]
 377:main.c        ****                     found =found+1;
 1122              		.loc 1 377 0
 1123 03f0 0EF10103 		add	r3, lr, #1
 1124 03f4 DBB2     		uxtb	r3, r3
 1125 03f6 8CF86B30 		strb	r3, [ip, #107]
 378:main.c        ****                     state = STATE_INIT;
 1126              		.loc 1 378 0
 1127 03fa 0021     		movs	r1, #0
 1128 03fc 184A     		ldr	r2, .L72
 1129 03fe 1170     		strb	r1, [r2]
 379:main.c        ****                     
 380:main.c        ****                     if(found == 1){
 1130              		.loc 1 380 0
 1131 0400 012B     		cmp	r3, #1
 1132 0402 09D1     		bne	.L65
 381:main.c        ****                         TxPhoneData[60] = slaveNummer;
 1133              		.loc 1 381 0
 1134 0404 184B     		ldr	r3, .L72+8
 1135 0406 9DF86420 		ldrb	r2, [sp, #100]	@ zero_extendqisi2
 1136 040a 83F83C20 		strb	r2, [r3, #60]
 382:main.c        ****                         change_priorities(slaveNummer-1);
 1137              		.loc 1 382 0
 1138 040e 1A9B     		ldr	r3, [sp, #104]
 1139 0410 581E     		subs	r0, r3, #1
 1140              	.LVL117:
 1141 0412 FFF7FEFF 		bl	change_priorities
 1142              	.LVL118:
 1143 0416 1AE0     		b	.L41
 1144              	.LVL119:
 1145              	.L65:
 383:main.c        ****                     }else if(found == 2){
 1146              		.loc 1 383 0
 1147 0418 022B     		cmp	r3, #2
 1148 041a 09D1     		bne	.L66
 384:main.c        ****                         TxPhoneData[61] = slaveNummer;
 1149              		.loc 1 384 0
 1150 041c 124B     		ldr	r3, .L72+8
 1151 041e 9DF86420 		ldrb	r2, [sp, #100]	@ zero_extendqisi2
 1152 0422 83F83D20 		strb	r2, [r3, #61]
 385:main.c        ****                         change_priorities(slaveNummer-1);
 1153              		.loc 1 385 0
ARM GAS  C:\Users\PIERRE~1\AppData\Local\Temp\ccT4SRTq.s 			page 29


 1154 0426 1A9B     		ldr	r3, [sp, #104]
 1155 0428 581E     		subs	r0, r3, #1
 1156              	.LVL120:
 1157 042a FFF7FEFF 		bl	change_priorities
 1158              	.LVL121:
 1159 042e 0EE0     		b	.L41
 1160              	.LVL122:
 1161              	.L66:
 386:main.c        ****                     }else if(found == 3){
 1162              		.loc 1 386 0
 1163 0430 032B     		cmp	r3, #3
 1164 0432 0CD1     		bne	.L41
 387:main.c        ****                         found = 0;
 1165              		.loc 1 387 0
 1166 0434 0022     		movs	r2, #0
 1167 0436 0B4B     		ldr	r3, .L72+4
 1168 0438 83F86B20 		strb	r2, [r3, #107]
 388:main.c        ****                         TxPhoneData[62] = slaveNummer;
 1169              		.loc 1 388 0
 1170 043c 0A4B     		ldr	r3, .L72+8
 1171 043e 9DF86420 		ldrb	r2, [sp, #100]	@ zero_extendqisi2
 1172 0442 83F83E20 		strb	r2, [r3, #62]
 389:main.c        ****                         change_priorities(slaveNummer-1);
 1173              		.loc 1 389 0
 1174 0446 1A9B     		ldr	r3, [sp, #104]
 1175 0448 581E     		subs	r0, r3, #1
 1176              	.LVL123:
 1177 044a FFF7FEFF 		bl	change_priorities
 1178              	.LVL124:
 1179              	.L41:
 257:main.c        ****             switch(state){
 1180              		.loc 1 257 0
 1181 044e FFF7FEFF 		bl	Timer_1_ReadCounter
 1182              	.LVL125:
 1183 0452 1F28     		cmp	r0, #31
 1184 0454 3FF6FBAD 		bhi	.L67
 1185 0458 DDE91067 		ldrd	r6, [sp, #64]
 1186 045c E6E5     		b	.L68
 1187              	.L73:
 1188 045e 00BF     		.align	2
 1189              	.L72:
 1190 0460 00000000 		.word	state
 1191 0464 00000000 		.word	.LANCHOR0
 1192 0468 00000000 		.word	TxPhoneData
 1193              		.cfi_endproc
 1194              	.LFE76:
 1195              		.size	state_machine_task, .-state_machine_task
 1196              		.section	.text.main,"ax",%progbits
 1197              		.align	2
 1198              		.global	main
 1199              		.thumb
 1200              		.thumb_func
 1201              		.type	main, %function
 1202              	main:
 1203              	.LFB75:
 189:main.c        **** 	LED_1_Write(LIGHT_OFF);
 1204              		.loc 1 189 0
ARM GAS  C:\Users\PIERRE~1\AppData\Local\Temp\ccT4SRTq.s 			page 30


 1205              		.cfi_startproc
 1206              		@ args = 0, pretend = 0, frame = 0
 1207              		@ frame_needed = 0, uses_anonymous_args = 0
 1208 0000 30B5     		push	{r4, r5, lr}
 1209              		.cfi_def_cfa_offset 12
 1210              		.cfi_offset 4, -12
 1211              		.cfi_offset 5, -8
 1212              		.cfi_offset 14, -4
 1213 0002 83B0     		sub	sp, sp, #12
 1214              		.cfi_def_cfa_offset 24
 190:main.c        ****     LED_2_Write(LIGHT_OFF);
 1215              		.loc 1 190 0
 1216 0004 0020     		movs	r0, #0
 1217 0006 FFF7FEFF 		bl	LED_1_Write
 1218              	.LVL126:
 191:main.c        ****     LED_3_Write(LIGHT_OFF);
 1219              		.loc 1 191 0
 1220 000a 0020     		movs	r0, #0
 1221 000c FFF7FEFF 		bl	LED_2_Write
 1222              	.LVL127:
 192:main.c        ****     LED_4_Write(LIGHT_OFF);
 1223              		.loc 1 192 0
 1224 0010 0020     		movs	r0, #0
 1225 0012 FFF7FEFF 		bl	LED_3_Write
 1226              	.LVL128:
 193:main.c        ****     
 1227              		.loc 1 193 0
 1228 0016 0020     		movs	r0, #0
 1229 0018 FFF7FEFF 		bl	LED_4_Write
 1230              	.LVL129:
 196:main.c        ****     TxPhoneData[61]=2;
 1231              		.loc 1 196 0
 1232 001c 314B     		ldr	r3, .L78
 1233 001e 0122     		movs	r2, #1
 1234 0020 83F83C20 		strb	r2, [r3, #60]
 197:main.c        ****     TxPhoneData[62]=3;
 1235              		.loc 1 197 0
 1236 0024 0221     		movs	r1, #2
 1237 0026 83F83D10 		strb	r1, [r3, #61]
 198:main.c        ****     
 1238              		.loc 1 198 0
 1239 002a 0322     		movs	r2, #3
 1240 002c 83F83E20 		strb	r2, [r3, #62]
 200:main.c        ****     
 1241              		.loc 1 200 0
 1242              		.syntax unified
 1243              	@ 200 "main.c" 1
 1244 0030 62B6     		CPSIE   i
 1245              	@ 0 "" 2
 202:main.c        ****     
 1246              		.loc 1 202 0
 1247              		.thumb
 1248              		.syntax unified
 1249 0032 0020     		movs	r0, #0
 1250 0034 FFF7FEFF 		bl	USBP_Start
 1251              	.LVL130:
 204:main.c        ****     Timer_1_Start();
ARM GAS  C:\Users\PIERRE~1\AppData\Local\Temp\ccT4SRTq.s 			page 31


 1252              		.loc 1 204 0
 1253 0038 FFF7FEFF 		bl	freeRTOSInit
 1254              	.LVL131:
 205:main.c        ****     
 1255              		.loc 1 205 0
 1256 003c FFF7FEFF 		bl	Timer_1_Start
 1257              	.LVL132:
 208:main.c        **** 	CyDelay(10u); //time for the DW to go from Wakeup to init and then IDLE
 1258              		.loc 1 208 0
 1259 0040 FFF7FEFF 		bl	SPIM_Start
 1260              	.LVL133:
 209:main.c        **** 	DWM_Init();
 1261              		.loc 1 209 0
 1262 0044 0A20     		movs	r0, #10
 1263 0046 FFF7FEFF 		bl	CyDelay
 1264              	.LVL134:
 210:main.c        ****     
 1265              		.loc 1 210 0
 1266 004a FFF7FEFF 		bl	DWM_Init
 1267              	.LVL135:
 213:main.c        ****     IRQ_SetPriority(ISR_PRIORITY);
 1268              		.loc 1 213 0
 1269 004e 2648     		ldr	r0, .L78+4
 1270 0050 FFF7FEFF 		bl	IRQ_StartEx
 1271              	.LVL136:
 214:main.c        ****     while(!USBP_bGetConfiguration());
 1272              		.loc 1 214 0
 1273 0054 3220     		movs	r0, #50
 1274 0056 FFF7FEFF 		bl	IRQ_SetPriority
 1275              	.LVL137:
 1276              	.L75:
 215:main.c        ****     //initialize tasks (one for each slave + usb_out, usb_in)
 1277              		.loc 1 215 0 discriminator 1
 1278 005a FFF7FEFF 		bl	USBP_GetConfiguration
 1279              	.LVL138:
 1280 005e 0028     		cmp	r0, #0
 1281 0060 FBD0     		beq	.L75
 1282              	.LVL139:
 218:main.c        ****     slaveNummer = 2;
 1283              		.loc 1 218 0
 1284 0062 224D     		ldr	r5, .L78+8
 1285 0064 224B     		ldr	r3, .L78+12
 1286 0066 0193     		str	r3, [sp, #4]
 1287 0068 0124     		movs	r4, #1
 1288 006a 0094     		str	r4, [sp]
 1289 006c 2346     		mov	r3, r4
 1290 006e 4FF48062 		mov	r2, #1024
 1291 0072 2049     		ldr	r1, .L78+16
 1292 0074 2846     		mov	r0, r5
 1293 0076 FFF7FEFF 		bl	xTaskCreate
 1294              	.LVL140:
 220:main.c        ****     slaveNummer = 3;
 1295              		.loc 1 220 0
 1296 007a 1F4B     		ldr	r3, .L78+20
 1297 007c 0193     		str	r3, [sp, #4]
 1298 007e 0094     		str	r4, [sp]
 1299 0080 0223     		movs	r3, #2
ARM GAS  C:\Users\PIERRE~1\AppData\Local\Temp\ccT4SRTq.s 			page 32


 1300 0082 4FF48062 		mov	r2, #1024
 1301 0086 1D49     		ldr	r1, .L78+24
 1302 0088 2846     		mov	r0, r5
 1303 008a FFF7FEFF 		bl	xTaskCreate
 1304              	.LVL141:
 222:main.c        ****     xTaskCreate(usb_out, "usb_out", 1024, NULL, usb_out_prio, &usbOutHandler);
 1305              		.loc 1 222 0
 1306 008e 1C4B     		ldr	r3, .L78+28
 1307 0090 0193     		str	r3, [sp, #4]
 1308 0092 0094     		str	r4, [sp]
 1309 0094 0323     		movs	r3, #3
 1310 0096 4FF48062 		mov	r2, #1024
 1311 009a 1A49     		ldr	r1, .L78+32
 1312 009c 2846     		mov	r0, r5
 1313 009e FFF7FEFF 		bl	xTaskCreate
 1314              	.LVL142:
 223:main.c        ****     xTaskCreate(usb_in, "usb_in", 1024, NULL, usb_in_prio, &usbInHandler);
 1315              		.loc 1 223 0
 1316 00a2 194B     		ldr	r3, .L78+36
 1317 00a4 0193     		str	r3, [sp, #4]
 1318 00a6 194D     		ldr	r5, .L78+40
 1319 00a8 EB78     		ldrb	r3, [r5, #3]	@ zero_extendqisi2
 1320 00aa 0093     		str	r3, [sp]
 1321 00ac 0023     		movs	r3, #0
 1322 00ae 4FF48062 		mov	r2, #1024
 1323 00b2 1749     		ldr	r1, .L78+44
 1324 00b4 1748     		ldr	r0, .L78+48
 1325 00b6 FFF7FEFF 		bl	xTaskCreate
 1326              	.LVL143:
 224:main.c        ****     semaphoreBuf1 = xSemaphoreCreateBinary();
 1327              		.loc 1 224 0
 1328 00ba 174B     		ldr	r3, .L78+52
 1329 00bc 0193     		str	r3, [sp, #4]
 1330 00be 2B7D     		ldrb	r3, [r5, #20]	@ zero_extendqisi2
 1331 00c0 0093     		str	r3, [sp]
 1332 00c2 0023     		movs	r3, #0
 1333 00c4 4FF48062 		mov	r2, #1024
 1334 00c8 1449     		ldr	r1, .L78+56
 1335 00ca 1548     		ldr	r0, .L78+60
 1336 00cc FFF7FEFF 		bl	xTaskCreate
 1337              	.LVL144:
 225:main.c        ****     vTaskStartScheduler();
 1338              		.loc 1 225 0
 1339 00d0 0322     		movs	r2, #3
 1340 00d2 0021     		movs	r1, #0
 1341 00d4 2046     		mov	r0, r4
 1342 00d6 FFF7FEFF 		bl	xQueueGenericCreate
 1343              	.LVL145:
 1344 00da 124B     		ldr	r3, .L78+64
 1345 00dc 1860     		str	r0, [r3]
 226:main.c        ****     for(;;){
 1346              		.loc 1 226 0
 1347 00de FFF7FEFF 		bl	vTaskStartScheduler
 1348              	.LVL146:
 1349              	.L76:
 1350 00e2 FEE7     		b	.L76
 1351              	.L79:
ARM GAS  C:\Users\PIERRE~1\AppData\Local\Temp\ccT4SRTq.s 			page 33


 1352              		.align	2
 1353              	.L78:
 1354 00e4 00000000 		.word	TxPhoneData
 1355 00e8 00000000 		.word	ISR
 1356 00ec 00000000 		.word	state_machine_task
 1357 00f0 00000000 		.word	taskHandler1
 1358 00f4 00000000 		.word	.LC0
 1359 00f8 00000000 		.word	taskHandler2
 1360 00fc 08000000 		.word	.LC1
 1361 0100 00000000 		.word	taskHandler3
 1362 0104 10000000 		.word	.LC2
 1363 0108 00000000 		.word	usbOutHandler
 1364 010c 00000000 		.word	.LANCHOR1
 1365 0110 18000000 		.word	.LC3
 1366 0114 00000000 		.word	usb_out
 1367 0118 00000000 		.word	usbInHandler
 1368 011c 20000000 		.word	.LC4
 1369 0120 00000000 		.word	usb_in
 1370 0124 00000000 		.word	semaphoreBuf1
 1371              		.cfi_endproc
 1372              	.LFE75:
 1373              		.size	main, .-main
 1374              		.comm	semaphoreBuf1,4,4
 1375              		.comm	usbInHandler,4,4
 1376              		.comm	usbOutHandler,4,4
 1377              		.comm	taskHandler4,4,4
 1378              		.comm	taskHandler3,4,4
 1379              		.comm	taskHandler2,4,4
 1380              		.comm	taskHandler1,4,4
 1381              		.comm	state,1,1
 1382              		.global	inter
 1383              		.global	RxError
 1384              		.global	RxOk
 1385              		.global	TxOk
 1386              		.global	found
 1387              		.global	all_clock_time
 1388              		.comm	TxPhoneData,63,4
 1389              		.comm	RxPhoneData,8,4
 1390              		.global	number_bytes_receive
 1391              		.global	usb_in_prio
 1392              		.global	usb_out_prio
 1393              		.global	prio4
 1394              		.global	prio3
 1395              		.global	prio2
 1396              		.global	prio1
 1397              		.global	prio_matrice
 1398              		.data
 1399              		.align	2
 1400              		.set	.LANCHOR1,. + 0
 1401              		.type	prio1, %object
 1402              		.size	prio1, 1
 1403              	prio1:
 1404 0000 12       		.byte	18
 1405              		.type	prio2, %object
 1406              		.size	prio2, 1
 1407              	prio2:
 1408 0001 13       		.byte	19
ARM GAS  C:\Users\PIERRE~1\AppData\Local\Temp\ccT4SRTq.s 			page 34


 1409              		.type	prio3, %object
 1410              		.size	prio3, 1
 1411              	prio3:
 1412 0002 14       		.byte	20
 1413              		.type	usb_out_prio, %object
 1414              		.size	usb_out_prio, 1
 1415              	usb_out_prio:
 1416 0003 10       		.byte	16
 1417              		.type	prio_matrice, %object
 1418              		.size	prio_matrice, 16
 1419              	prio_matrice:
 1420 0004 0A       		.byte	10
 1421 0005 00       		.byte	0
 1422 0006 00       		.byte	0
 1423 0007 00       		.byte	0
 1424 0008 00       		.byte	0
 1425 0009 0A       		.byte	10
 1426 000a 00       		.byte	0
 1427 000b 00       		.byte	0
 1428 000c 00       		.byte	0
 1429 000d 00       		.byte	0
 1430 000e 0A       		.byte	10
 1431 000f 00       		.byte	0
 1432 0010 00       		.byte	0
 1433 0011 00       		.byte	0
 1434 0012 00       		.byte	0
 1435 0013 04       		.byte	4
 1436              		.type	usb_in_prio, %object
 1437              		.size	usb_in_prio, 1
 1438              	usb_in_prio:
 1439 0014 15       		.byte	21
 1440              		.type	prio4, %object
 1441              		.size	prio4, 1
 1442              	prio4:
 1443 0015 11       		.byte	17
 1444              		.section	.rodata.str1.4,"aMS",%progbits,1
 1445              		.align	2
 1446              	.LC0:
 1447 0000 736C6176 		.ascii	"slave_1\000"
 1447      655F3100 
 1448              	.LC1:
 1449 0008 736C6176 		.ascii	"slave_2\000"
 1449      655F3200 
 1450              	.LC2:
 1451 0010 736C6176 		.ascii	"slave_3\000"
 1451      655F3300 
 1452              	.LC3:
 1453 0018 7573625F 		.ascii	"usb_out\000"
 1453      6F757400 
 1454              	.LC4:
 1455 0020 7573625F 		.ascii	"usb_in\000"
 1455      696E00
 1456              		.bss
 1457              		.align	3
 1458              		.set	.LANCHOR0,. + 0
 1459              		.type	inter, %object
 1460              		.size	inter, 1
ARM GAS  C:\Users\PIERRE~1\AppData\Local\Temp\ccT4SRTq.s 			page 35


 1461              	inter:
 1462 0000 00       		.space	1
 1463 0001 00       		.space	1
 1464              		.type	number_bytes_receive, %object
 1465              		.size	number_bytes_receive, 2
 1466              	number_bytes_receive:
 1467 0002 0000     		.space	2
 1468 0004 00000000 		.space	4
 1469              		.type	all_clock_time, %object
 1470              		.size	all_clock_time, 96
 1471              	all_clock_time:
 1472 0008 00000000 		.space	96
 1472      00000000 
 1472      00000000 
 1472      00000000 
 1472      00000000 
 1473              		.type	TxOk, %object
 1474              		.size	TxOk, 1
 1475              	TxOk:
 1476 0068 00       		.space	1
 1477              		.type	RxOk, %object
 1478              		.size	RxOk, 1
 1479              	RxOk:
 1480 0069 00       		.space	1
 1481              		.type	RxError, %object
 1482              		.size	RxError, 1
 1483              	RxError:
 1484 006a 00       		.space	1
 1485              		.type	found, %object
 1486              		.size	found, 1
 1487              	found:
 1488 006b 00       		.space	1
 1489              		.text
 1490              	.Letext0:
 1491              		.file 2 "c:\\program files (x86)\\cypress\\psoc creator\\4.3\\psoc creator\\import\\gnu\\arm\\5.4.
 1492              		.file 3 "c:\\program files (x86)\\cypress\\psoc creator\\4.3\\psoc creator\\import\\gnu\\arm\\5.4.
 1493              		.file 4 "Generated_Source\\PSoC5/cytypes.h"
 1494              		.file 5 ".\\FreeRTOS\\include/portmacro.h"
 1495              		.file 6 ".\\FreeRTOS\\include/task.h"
 1496              		.file 7 ".\\FreeRTOS\\include/queue.h"
 1497              		.file 8 ".\\FreeRTOS\\include/semphr.h"
 1498              		.file 9 "Generated_Source\\PSoC5/core_cm3.h"
 1499              		.file 10 "Generated_Source\\PSoC5/IRQ.h"
 1500              		.file 11 "Generated_Source\\PSoC5/pin_1.h"
 1501              		.file 12 "Generated_Source\\PSoC5/USBP.h"
 1502              		.file 13 "dwm1000.h"
 1503              		.file 14 "Generated_Source\\PSoC5/Timer_1.h"
 1504              		.file 15 "Generated_Source\\PSoC5/rst_in.h"
 1505              		.file 16 "Generated_Source\\PSoC5/CyLib.h"
 1506              		.file 17 "Generated_Source\\PSoC5/LED_1.h"
 1507              		.file 18 "Generated_Source\\PSoC5/LED_2.h"
 1508              		.file 19 "Generated_Source\\PSoC5/LED_3.h"
 1509              		.file 20 "Generated_Source\\PSoC5/LED_4.h"
 1510              		.file 21 "Generated_Source\\PSoC5/SPIM.h"
 1511              		.file 22 "main.h"