ARM GAS  C:\Users\PIERRE~1\AppData\Local\Temp\ccqD7qlI.s 			page 1


   1              		.syntax unified
   2              		.cpu cortex-m3
   3              		.fpu softvfp
   4              		.eabi_attribute 20, 1
   5              		.eabi_attribute 21, 1
   6              		.eabi_attribute 23, 3
   7              		.eabi_attribute 24, 1
   8              		.eabi_attribute 25, 1
   9              		.eabi_attribute 26, 1
  10              		.eabi_attribute 30, 1
  11              		.eabi_attribute 34, 1
  12              		.eabi_attribute 18, 4
  13              		.thumb
  14              		.syntax unified
  15              		.file	"dwm1000.c"
  16              		.text
  17              	.Ltext0:
  18              		.cfi_sections	.debug_frame
  19              		.section	.text.CHANNEL_ValidPreambleCode,"ax",%progbits
  20              		.align	2
  21              		.thumb
  22              		.thumb_func
  23              		.type	CHANNEL_ValidPreambleCode, %function
  24              	CHANNEL_ValidPreambleCode:
  25              	.LFB63:
  26              		.file 1 "dwm1000.c"
   1:dwm1000.c     **** /* ========================================
   2:dwm1000.c     ****  *
   3:dwm1000.c     ****  * Copyright YOUR COMPANY, THE YEAR
   4:dwm1000.c     ****  * All Rights Reserved
   5:dwm1000.c     ****  * UNPUBLISHED, LICENSED SOFTWARE.
   6:dwm1000.c     ****  *
   7:dwm1000.c     ****  * CONFIDENTIAL AND PROPRIETARY INFORMATION
   8:dwm1000.c     ****  * WHICH IS THE PROPERTY OF your company.
   9:dwm1000.c     ****  *
  10:dwm1000.c     ****  * ========================================
  11:dwm1000.c     **** */
  12:dwm1000.c     **** 
  13:dwm1000.c     **** #include <inttypes.h>
  14:dwm1000.c     **** #include <string.h>
  15:dwm1000.c     **** #include <math.h>
  16:dwm1000.c     **** #include <project.h>
  17:dwm1000.c     **** 
  18:dwm1000.c     **** #include "main.h"
  19:dwm1000.c     **** 
  20:dwm1000.c     **** #include "dwm1000.h"
  21:dwm1000.c     **** 
  22:dwm1000.c     **** /* ----------------------------------------------------------------------- */
  23:dwm1000.c     **** 
  24:dwm1000.c     **** //SPI_HandleTypeDef* _deviceHandle;
  25:dwm1000.c     **** static struct Config config;
  26:dwm1000.c     **** 
  27:dwm1000.c     **** static void DWM_Reset(void);
  28:dwm1000.c     **** 
  29:dwm1000.c     **** 
  30:dwm1000.c     **** struct Channel {
  31:dwm1000.c     **** 	enum CHANNEL channel;
ARM GAS  C:\Users\PIERRE~1\AppData\Local\Temp\ccqD7qlI.s 			page 2


  32:dwm1000.c     **** 	uint8_t preambleCode;
  33:dwm1000.c     **** 	enum PE preambleSize;
  34:dwm1000.c     **** 	enum BITRATE bitRate;
  35:dwm1000.c     **** 	enum PRF prf;
  36:dwm1000.c     **** };
  37:dwm1000.c     **** 
  38:dwm1000.c     **** struct Transmitter {
  39:dwm1000.c     **** 	struct Channel channel;
  40:dwm1000.c     **** };
  41:dwm1000.c     **** 
  42:dwm1000.c     **** struct Receiver {
  43:dwm1000.c     **** 	struct Channel channel;
  44:dwm1000.c     **** 	uint16_t frameTimeoutDelay;
  45:dwm1000.c     **** 	uint16_t pac;
  46:dwm1000.c     **** 	uint16_t sfd;
  47:dwm1000.c     **** };
  48:dwm1000.c     **** 
  49:dwm1000.c     **** struct Config {
  50:dwm1000.c     **** 	struct Transmitter transmitter;
  51:dwm1000.c     **** 	struct Receiver receiver;
  52:dwm1000.c     **** 	enum CHANNEL channel;
  53:dwm1000.c     **** };
  54:dwm1000.c     **** 
  55:dwm1000.c     **** static uint8_t CHANNEL_ValidPreambleCode(struct Channel* channel, uint8_t preambleCode) {
  27              		.loc 1 55 0
  28              		.cfi_startproc
  29              		@ args = 0, pretend = 0, frame = 0
  30              		@ frame_needed = 0, uses_anonymous_args = 0
  31              		@ link register save eliminated.
  32              	.LVL0:
  56:dwm1000.c     **** 	switch (channel->prf) {
  33              		.loc 1 56 0
  34 0000 0379     		ldrb	r3, [r0, #4]	@ zero_extendqisi2
  35 0002 012B     		cmp	r3, #1
  36 0004 02D0     		beq	.L3
  37 0006 022B     		cmp	r3, #2
  38 0008 1ED0     		beq	.L4
  39 000a 3EE0     		b	.L2
  40              	.L3:
  57:dwm1000.c     **** 	case _16MHZ:
  58:dwm1000.c     **** 		switch (channel->channel) {
  41              		.loc 1 58 0
  42 000c 0378     		ldrb	r3, [r0]	@ zero_extendqisi2
  43 000e 013B     		subs	r3, r3, #1
  44 0010 062B     		cmp	r3, #6
  45 0012 3AD8     		bhi	.L2
  46 0014 DFE803F0 		tbb	[pc, r3]
  47              	.L6:
  48 0018 04       		.byte	(.L5-.L6)/2
  49 0019 09       		.byte	(.L7-.L6)/2
  50 001a 0E       		.byte	(.L8-.L6)/2
  51 001b 13       		.byte	(.L9-.L6)/2
  52 001c 09       		.byte	(.L7-.L6)/2
  53 001d 39       		.byte	(.L2-.L6)/2
  54 001e 13       		.byte	(.L9-.L6)/2
  55 001f 00       		.p2align 1
  56              	.L5:
ARM GAS  C:\Users\PIERRE~1\AppData\Local\Temp\ccqD7qlI.s 			page 3


  59:dwm1000.c     **** 		case _1:
  60:dwm1000.c     **** 			if (preambleCode != 1U && preambleCode != 2U) {
  57              		.loc 1 60 0
  58 0020 4B1E     		subs	r3, r1, #1
  59 0022 DBB2     		uxtb	r3, r3
  60 0024 012B     		cmp	r3, #1
  61 0026 25D8     		bhi	.L13
  62 0028 2FE0     		b	.L2
  63              	.L7:
  61:dwm1000.c     **** 				preambleCode = 1U;
  62:dwm1000.c     **** 			}
  63:dwm1000.c     **** 			break;
  64:dwm1000.c     **** 		case _2: case _5:
  65:dwm1000.c     **** 			if (preambleCode != 3U && preambleCode != 4U) {
  64              		.loc 1 65 0
  65 002a CB1E     		subs	r3, r1, #3
  66 002c DBB2     		uxtb	r3, r3
  67 002e 012B     		cmp	r3, #1
  68 0030 22D8     		bhi	.L14
  69 0032 2AE0     		b	.L2
  70              	.L8:
  66:dwm1000.c     **** 				preambleCode = 3U;
  67:dwm1000.c     **** 			}
  68:dwm1000.c     **** 			break;
  69:dwm1000.c     **** 		case _3:
  70:dwm1000.c     **** 			if (preambleCode != 5U && preambleCode != 6U) {
  71              		.loc 1 70 0
  72 0034 4B1F     		subs	r3, r1, #5
  73 0036 DBB2     		uxtb	r3, r3
  74 0038 012B     		cmp	r3, #1
  75 003a 1FD8     		bhi	.L15
  76 003c 25E0     		b	.L2
  77              	.L9:
  71:dwm1000.c     **** 				preambleCode = 5U;
  72:dwm1000.c     **** 			}
  73:dwm1000.c     **** 			break;
  74:dwm1000.c     **** 		case _4: case _7:
  75:dwm1000.c     **** 			if (preambleCode != 7U && preambleCode != 8U) {
  78              		.loc 1 75 0
  79 003e CB1F     		subs	r3, r1, #7
  80 0040 DBB2     		uxtb	r3, r3
  81 0042 012B     		cmp	r3, #1
  82 0044 1CD8     		bhi	.L16
  83 0046 20E0     		b	.L2
  84              	.L4:
  76:dwm1000.c     **** 				preambleCode = 7U;
  77:dwm1000.c     **** 			}
  78:dwm1000.c     **** 			break;
  79:dwm1000.c     **** 		}
  80:dwm1000.c     **** 		break;
  81:dwm1000.c     **** 	case _64MHZ:
  82:dwm1000.c     **** 		switch (channel->channel) {
  85              		.loc 1 82 0
  86 0048 0378     		ldrb	r3, [r0]	@ zero_extendqisi2
  87 004a 013B     		subs	r3, r3, #1
  88 004c 062B     		cmp	r3, #6
  89 004e 1CD8     		bhi	.L2
ARM GAS  C:\Users\PIERRE~1\AppData\Local\Temp\ccqD7qlI.s 			page 4


  90 0050 DFE803F0 		tbb	[pc, r3]
  91              	.L11:
  92 0054 04       		.byte	(.L10-.L11)/2
  93 0055 04       		.byte	(.L10-.L11)/2
  94 0056 04       		.byte	(.L10-.L11)/2
  95 0057 0A       		.byte	(.L12-.L11)/2
  96 0058 04       		.byte	(.L10-.L11)/2
  97 0059 1B       		.byte	(.L2-.L11)/2
  98 005a 0A       		.byte	(.L12-.L11)/2
  99 005b 00       		.p2align 1
 100              	.L10:
  83:dwm1000.c     **** 		case _1: case _2: case _3: case _5:
  84:dwm1000.c     **** 			if (preambleCode < 9U || preambleCode >  12U) {
 101              		.loc 1 84 0
 102 005c A1F10903 		sub	r3, r1, #9
 103 0060 DBB2     		uxtb	r3, r3
 104 0062 032B     		cmp	r3, #3
 105 0064 0ED8     		bhi	.L17
 106 0066 10E0     		b	.L2
 107              	.L12:
  85:dwm1000.c     **** 				preambleCode = 9U;
  86:dwm1000.c     **** 			}
  87:dwm1000.c     **** 			break;
  88:dwm1000.c     **** 		case _4: case _7:
  89:dwm1000.c     **** 			if (preambleCode < 17U || preambleCode >  20U) {
 108              		.loc 1 89 0
 109 0068 A1F11103 		sub	r3, r1, #17
 110 006c DBB2     		uxtb	r3, r3
 111 006e 032B     		cmp	r3, #3
 112 0070 0AD8     		bhi	.L18
 113 0072 0AE0     		b	.L2
 114              	.L13:
  61:dwm1000.c     **** 			}
 115              		.loc 1 61 0
 116 0074 0121     		movs	r1, #1
 117              	.LVL1:
 118 0076 08E0     		b	.L2
 119              	.LVL2:
 120              	.L14:
  66:dwm1000.c     **** 			}
 121              		.loc 1 66 0
 122 0078 0321     		movs	r1, #3
 123              	.LVL3:
 124 007a 06E0     		b	.L2
 125              	.LVL4:
 126              	.L15:
  71:dwm1000.c     **** 			}
 127              		.loc 1 71 0
 128 007c 0521     		movs	r1, #5
 129              	.LVL5:
 130 007e 04E0     		b	.L2
 131              	.LVL6:
 132              	.L16:
  76:dwm1000.c     **** 			}
 133              		.loc 1 76 0
 134 0080 0721     		movs	r1, #7
 135              	.LVL7:
ARM GAS  C:\Users\PIERRE~1\AppData\Local\Temp\ccqD7qlI.s 			page 5


 136 0082 02E0     		b	.L2
 137              	.LVL8:
 138              	.L17:
  85:dwm1000.c     **** 			}
 139              		.loc 1 85 0
 140 0084 0921     		movs	r1, #9
 141              	.LVL9:
 142 0086 00E0     		b	.L2
 143              	.LVL10:
 144              	.L18:
  90:dwm1000.c     **** 				preambleCode = 17U;
 145              		.loc 1 90 0
 146 0088 1121     		movs	r1, #17
 147              	.LVL11:
 148              	.L2:
  91:dwm1000.c     **** 			}
  92:dwm1000.c     **** 			break;
  93:dwm1000.c     **** 		}
  94:dwm1000.c     **** 		break;
  95:dwm1000.c     **** 	}
  96:dwm1000.c     **** 	return preambleCode;
  97:dwm1000.c     **** }
 149              		.loc 1 97 0
 150 008a 0846     		mov	r0, r1
 151              	.LVL12:
 152 008c 7047     		bx	lr
 153              		.cfi_endproc
 154              	.LFE63:
 155              		.size	CHANNEL_ValidPreambleCode, .-CHANNEL_ValidPreambleCode
 156 008e 00BF     		.section	.text.CHANNEL_IsValidPreambleCode,"ax",%progbits
 157              		.align	2
 158              		.thumb
 159              		.thumb_func
 160              		.type	CHANNEL_IsValidPreambleCode, %function
 161              	CHANNEL_IsValidPreambleCode:
 162              	.LFB64:
  98:dwm1000.c     **** 
  99:dwm1000.c     **** static int CHANNEL_IsValidPreambleCode(struct Channel* channel,  uint8_t preambleCode) {
 163              		.loc 1 99 0
 164              		.cfi_startproc
 165              		@ args = 0, pretend = 0, frame = 0
 166              		@ frame_needed = 0, uses_anonymous_args = 0
 167              	.LVL13:
 168 0000 10B5     		push	{r4, lr}
 169              		.cfi_def_cfa_offset 8
 170              		.cfi_offset 4, -8
 171              		.cfi_offset 14, -4
 172 0002 0C46     		mov	r4, r1
 100:dwm1000.c     **** 	return CHANNEL_ValidPreambleCode(channel, preambleCode) == preambleCode;
 173              		.loc 1 100 0
 174 0004 FFF7FEFF 		bl	CHANNEL_ValidPreambleCode
 175              	.LVL14:
 101:dwm1000.c     **** }
 176              		.loc 1 101 0
 177 0008 8442     		cmp	r4, r0
 178 000a 14BF     		ite	ne
 179 000c 0020     		movne	r0, #0
ARM GAS  C:\Users\PIERRE~1\AppData\Local\Temp\ccqD7qlI.s 			page 6


 180 000e 0120     		moveq	r0, #1
 181 0010 10BD     		pop	{r4, pc}
 182              		.cfi_endproc
 183              	.LFE64:
 184              		.size	CHANNEL_IsValidPreambleCode, .-CHANNEL_IsValidPreambleCode
 185 0012 00BF     		.section	.text.CHANNEL_ValidPreambleSize,"ax",%progbits
 186              		.align	2
 187              		.thumb
 188              		.thumb_func
 189              		.type	CHANNEL_ValidPreambleSize, %function
 190              	CHANNEL_ValidPreambleSize:
 191              	.LFB65:
 102:dwm1000.c     **** 
 103:dwm1000.c     **** static enum PE CHANNEL_ValidPreambleSize(struct Channel* channel, enum PE preambleSize) {
 192              		.loc 1 103 0
 193              		.cfi_startproc
 194              		@ args = 0, pretend = 0, frame = 0
 195              		@ frame_needed = 0, uses_anonymous_args = 0
 196              		@ link register save eliminated.
 197              	.LVL15:
 104:dwm1000.c     **** 	switch (preambleSize) {
 198              		.loc 1 104 0
 199 0000 4B1E     		subs	r3, r1, #1
 200 0002 0C2B     		cmp	r3, #12
 201 0004 1AD8     		bhi	.L22
 202 0006 DFE803F0 		tbb	[pc, r3]
 203              	.L24:
 204 000a 0D       		.byte	(.L23-.L24)/2
 205 000b 0A       		.byte	(.L25-.L24)/2
 206 000c 07       		.byte	(.L26-.L24)/2
 207 000d 19       		.byte	(.L22-.L24)/2
 208 000e 0A       		.byte	(.L25-.L24)/2
 209 000f 07       		.byte	(.L26-.L24)/2
 210 0010 19       		.byte	(.L22-.L24)/2
 211 0011 19       		.byte	(.L22-.L24)/2
 212 0012 0A       		.byte	(.L25-.L24)/2
 213 0013 07       		.byte	(.L26-.L24)/2
 214 0014 19       		.byte	(.L22-.L24)/2
 215 0015 19       		.byte	(.L22-.L24)/2
 216 0016 0A       		.byte	(.L25-.L24)/2
 217 0017 00       		.p2align 1
 218              	.L26:
 105:dwm1000.c     **** 	case _1536: case _2048: case _4096:
 106:dwm1000.c     **** 		if (channel->bitRate != _110KBPS) {
 219              		.loc 1 106 0
 220 0018 C378     		ldrb	r3, [r0, #3]	@ zero_extendqisi2
 221 001a 53B9     		cbnz	r3, .L29
 222 001c 0EE0     		b	.L22
 223              	.L25:
 107:dwm1000.c     **** 			preambleSize = _1024;
 108:dwm1000.c     **** 		}
 109:dwm1000.c     **** 		break;
 110:dwm1000.c     **** 	case _128: case _256: case _512: case _1024:
 111:dwm1000.c     **** 		if (channel->bitRate == _110KBPS) {
 224              		.loc 1 111 0
 225 001e C378     		ldrb	r3, [r0, #3]	@ zero_extendqisi2
 226 0020 4BB1     		cbz	r3, .L30
ARM GAS  C:\Users\PIERRE~1\AppData\Local\Temp\ccqD7qlI.s 			page 7


 227 0022 0BE0     		b	.L22
 228              	.L23:
 112:dwm1000.c     **** 			preambleSize = _1536;
 113:dwm1000.c     **** 		}
 114:dwm1000.c     **** 		break;
 115:dwm1000.c     **** 	case _64:
 116:dwm1000.c     **** 		switch (channel->bitRate) {
 229              		.loc 1 116 0
 230 0024 C378     		ldrb	r3, [r0, #3]	@ zero_extendqisi2
 231 0026 13B1     		cbz	r3, .L28
 232 0028 012B     		cmp	r3, #1
 233 002a 06D0     		beq	.L31
 234 002c 06E0     		b	.L22
 235              	.L28:
 236              	.LVL16:
 117:dwm1000.c     **** 		case _850KBPS:
 118:dwm1000.c     **** 			preambleSize = _128;
 119:dwm1000.c     **** 			break;
 120:dwm1000.c     **** 		case _110KBPS:
 121:dwm1000.c     **** 			preambleSize = _1536;
 237              		.loc 1 121 0
 238 002e 0621     		movs	r1, #6
 122:dwm1000.c     **** 			break;
 239              		.loc 1 122 0
 240 0030 04E0     		b	.L22
 241              	.LVL17:
 242              	.L29:
 107:dwm1000.c     **** 		}
 243              		.loc 1 107 0
 244 0032 0221     		movs	r1, #2
 245              	.LVL18:
 246 0034 02E0     		b	.L22
 247              	.LVL19:
 248              	.L30:
 112:dwm1000.c     **** 		}
 249              		.loc 1 112 0
 250 0036 0621     		movs	r1, #6
 251              	.LVL20:
 252 0038 00E0     		b	.L22
 253              	.LVL21:
 254              	.L31:
 118:dwm1000.c     **** 			break;
 255              		.loc 1 118 0
 256 003a 0521     		movs	r1, #5
 257              	.LVL22:
 258              	.L22:
 123:dwm1000.c     **** 		case _6800KBPS:
 124:dwm1000.c     **** 			break;
 125:dwm1000.c     **** 		}
 126:dwm1000.c     **** 		break;
 127:dwm1000.c     **** 	}
 128:dwm1000.c     **** 	return preambleSize;
 129:dwm1000.c     **** }
 259              		.loc 1 129 0
 260 003c 0846     		mov	r0, r1
 261              	.LVL23:
 262 003e 7047     		bx	lr
ARM GAS  C:\Users\PIERRE~1\AppData\Local\Temp\ccqD7qlI.s 			page 8


 263              		.cfi_endproc
 264              	.LFE65:
 265              		.size	CHANNEL_ValidPreambleSize, .-CHANNEL_ValidPreambleSize
 266              		.section	.text.CHANNEL_IsValidPreambleSize,"ax",%progbits
 267              		.align	2
 268              		.thumb
 269              		.thumb_func
 270              		.type	CHANNEL_IsValidPreambleSize, %function
 271              	CHANNEL_IsValidPreambleSize:
 272              	.LFB66:
 130:dwm1000.c     **** 
 131:dwm1000.c     **** static int CHANNEL_IsValidPreambleSize(struct Channel* channel, enum PE preambleSize) {
 273              		.loc 1 131 0
 274              		.cfi_startproc
 275              		@ args = 0, pretend = 0, frame = 0
 276              		@ frame_needed = 0, uses_anonymous_args = 0
 277              	.LVL24:
 278 0000 10B5     		push	{r4, lr}
 279              		.cfi_def_cfa_offset 8
 280              		.cfi_offset 4, -8
 281              		.cfi_offset 14, -4
 282 0002 0C46     		mov	r4, r1
 132:dwm1000.c     **** 	return CHANNEL_ValidPreambleSize(channel, preambleSize) == preambleSize;
 283              		.loc 1 132 0
 284 0004 FFF7FEFF 		bl	CHANNEL_ValidPreambleSize
 285              	.LVL25:
 133:dwm1000.c     **** }
 286              		.loc 1 133 0
 287 0008 8442     		cmp	r4, r0
 288 000a 14BF     		ite	ne
 289 000c 0020     		movne	r0, #0
 290 000e 0120     		moveq	r0, #1
 291 0010 10BD     		pop	{r4, pc}
 292              		.cfi_endproc
 293              	.LFE66:
 294              		.size	CHANNEL_IsValidPreambleSize, .-CHANNEL_IsValidPreambleSize
 295 0012 00BF     		.section	.text.CHANNEL_Init,"ax",%progbits
 296              		.align	2
 297              		.thumb
 298              		.thumb_func
 299              		.type	CHANNEL_Init, %function
 300              	CHANNEL_Init:
 301              	.LFB68:
 134:dwm1000.c     **** 
 135:dwm1000.c     **** static void DWM_UpdateChannel(void){
 136:dwm1000.c     **** 	uint8_t chan[] = {((config.channel << 4)|config.channel)};
 137:dwm1000.c     **** 	DWM_WriteSPI_ext(CHAN_CTRL, NO_SUB, chan, 1);
 138:dwm1000.c     **** 	uint8_t pllTune[1];
 139:dwm1000.c     **** 	uint8_t pllCfg[4];
 140:dwm1000.c     **** 	switch (config.channel) {
 141:dwm1000.c     **** 		case _1:
 142:dwm1000.c     **** 			int2Bytes(0x09000407U, pllCfg);
 143:dwm1000.c     **** 			pllTune[0] = 0x1EU;
 144:dwm1000.c     **** 			break;
 145:dwm1000.c     **** 		case _2: case _4:
 146:dwm1000.c     **** 			int2Bytes(0x08400508U, pllCfg);
 147:dwm1000.c     **** 			pllTune[0] = 0x26U;
ARM GAS  C:\Users\PIERRE~1\AppData\Local\Temp\ccqD7qlI.s 			page 9


 148:dwm1000.c     **** 			break;
 149:dwm1000.c     **** 		case _3:
 150:dwm1000.c     **** 			int2Bytes(0x08401009U, pllCfg);
 151:dwm1000.c     **** 			pllTune[0] = 0x56U;
 152:dwm1000.c     **** 			break;
 153:dwm1000.c     **** 		case _5: case _7:
 154:dwm1000.c     **** 			int2Bytes(0x0800041DU, pllCfg);
 155:dwm1000.c     **** 			pllTune[0] = 0xBEU;
 156:dwm1000.c     **** 			break;
 157:dwm1000.c     **** 	}
 158:dwm1000.c     **** 	DWM_WriteSPI_ext(FS_CTRL, 0x07, pllCfg, 4);
 159:dwm1000.c     **** 	DWM_WriteSPI_ext(FS_CTRL, 0x0B, pllTune, 1);
 160:dwm1000.c     **** }
 161:dwm1000.c     **** 
 162:dwm1000.c     **** static void CHANNEL_Init(struct Channel* channel) {
 302              		.loc 1 162 0
 303              		.cfi_startproc
 304              		@ args = 0, pretend = 0, frame = 0
 305              		@ frame_needed = 0, uses_anonymous_args = 0
 306              	.LVL26:
 307 0000 38B5     		push	{r3, r4, r5, lr}
 308              		.cfi_def_cfa_offset 16
 309              		.cfi_offset 3, -16
 310              		.cfi_offset 4, -12
 311              		.cfi_offset 5, -8
 312              		.cfi_offset 14, -4
 313 0002 0446     		mov	r4, r0
 163:dwm1000.c     **** 	channel->channel = _5;
 314              		.loc 1 163 0
 315 0004 0525     		movs	r5, #5
 316 0006 0570     		strb	r5, [r0]
 164:dwm1000.c     **** 	channel->prf = _16MHZ;
 317              		.loc 1 164 0
 318 0008 0123     		movs	r3, #1
 319 000a 0371     		strb	r3, [r0, #4]
 165:dwm1000.c     **** 	channel->bitRate = _6800KBPS; //6800
 320              		.loc 1 165 0
 321 000c 0223     		movs	r3, #2
 322 000e C370     		strb	r3, [r0, #3]
 166:dwm1000.c     **** 	channel->preambleCode = CHANNEL_ValidPreambleCode(channel, 4U);
 323              		.loc 1 166 0
 324 0010 0421     		movs	r1, #4
 325 0012 FFF7FEFF 		bl	CHANNEL_ValidPreambleCode
 326              	.LVL27:
 327 0016 6070     		strb	r0, [r4, #1]
 167:dwm1000.c     **** 	channel->preambleSize = CHANNEL_ValidPreambleSize(channel, _128);//128
 328              		.loc 1 167 0
 329 0018 2946     		mov	r1, r5
 330 001a 2046     		mov	r0, r4
 331 001c FFF7FEFF 		bl	CHANNEL_ValidPreambleSize
 332              	.LVL28:
 333 0020 A070     		strb	r0, [r4, #2]
 334 0022 38BD     		pop	{r3, r4, r5, pc}
 335              		.cfi_endproc
 336              	.LFE68:
 337              		.size	CHANNEL_Init, .-CHANNEL_Init
 338              		.section	.text.setBit,"ax",%progbits
ARM GAS  C:\Users\PIERRE~1\AppData\Local\Temp\ccqD7qlI.s 			page 10


 339              		.align	2
 340              		.global	setBit
 341              		.thumb
 342              		.thumb_func
 343              		.type	setBit, %function
 344              	setBit:
 345              	.LFB103:
 168:dwm1000.c     **** }
 169:dwm1000.c     **** 
 170:dwm1000.c     **** static void TRANSMITTER_UpdateTxPower() {
 171:dwm1000.c     **** 	uint8_t txPower[4];
 172:dwm1000.c     **** 	switch (config.transmitter.channel.bitRate) {
 173:dwm1000.c     **** 	case _6800KBPS:
 174:dwm1000.c     **** 		switch (config.transmitter.channel.prf) {
 175:dwm1000.c     **** 		case _16MHZ:
 176:dwm1000.c     **** 			switch (config.transmitter.channel.channel) {
 177:dwm1000.c     **** 			case _1: case _2:
 178:dwm1000.c     **** 				int2Bytes(0x15355575U, txPower);
 179:dwm1000.c     **** 				break;
 180:dwm1000.c     **** 			case _3:
 181:dwm1000.c     **** 				int2Bytes(0x0F2F4F6FU, txPower);
 182:dwm1000.c     **** 				break;
 183:dwm1000.c     **** 			case _4:
 184:dwm1000.c     **** 				int2Bytes(0x1F1F3F5FU, txPower);
 185:dwm1000.c     **** 				break;
 186:dwm1000.c     **** 			case _5:
 187:dwm1000.c     **** 				int2Bytes(0x0E082848U, txPower);
 188:dwm1000.c     **** 				break;
 189:dwm1000.c     **** 			case _7:
 190:dwm1000.c     **** 				int2Bytes(0x32527292U, txPower);
 191:dwm1000.c     **** 				break;
 192:dwm1000.c     **** 			}
 193:dwm1000.c     **** 			break;
 194:dwm1000.c     **** 		case _64MHZ:
 195:dwm1000.c     **** 			switch (config.transmitter.channel.channel) {
 196:dwm1000.c     **** 			case _1: case _2:
 197:dwm1000.c     **** 				int2Bytes(0x07274767U, txPower);
 198:dwm1000.c     **** 				break;
 199:dwm1000.c     **** 			case _3:
 200:dwm1000.c     **** 				int2Bytes(0x2B4B6B8BU, txPower);
 201:dwm1000.c     **** 				break;
 202:dwm1000.c     **** 			case _4:
 203:dwm1000.c     **** 				int2Bytes(0x3A5A7A9AU, txPower);
 204:dwm1000.c     **** 				break;
 205:dwm1000.c     **** 			case _5:
 206:dwm1000.c     **** 				int2Bytes(0x25456585U, txPower);
 207:dwm1000.c     **** 				break;
 208:dwm1000.c     **** 			case _7:
 209:dwm1000.c     **** 				int2Bytes(0x5171B1D1U, txPower);
 210:dwm1000.c     **** 				break;
 211:dwm1000.c     **** 			}
 212:dwm1000.c     **** 			break;
 213:dwm1000.c     **** 		}
 214:dwm1000.c     **** 		break;
 215:dwm1000.c     **** 	default:
 216:dwm1000.c     **** 		switch (config.transmitter.channel.prf) {
 217:dwm1000.c     **** 		case _16MHZ:
ARM GAS  C:\Users\PIERRE~1\AppData\Local\Temp\ccqD7qlI.s 			page 11


 218:dwm1000.c     **** 			switch (config.transmitter.channel.channel) {
 219:dwm1000.c     **** 			case _1: case _2:
 220:dwm1000.c     **** 				int2Bytes(0x75757575U, txPower);
 221:dwm1000.c     **** 				break;
 222:dwm1000.c     **** 			case _3:
 223:dwm1000.c     **** 				int2Bytes(0x6F6F6F6FU, txPower);
 224:dwm1000.c     **** 				break;
 225:dwm1000.c     **** 			case _4:
 226:dwm1000.c     **** 				int2Bytes(0x5F5F5F5FU, txPower);
 227:dwm1000.c     **** 				break;
 228:dwm1000.c     **** 			case _5:
 229:dwm1000.c     **** 				int2Bytes(0x48484848U, txPower);
 230:dwm1000.c     **** 				break;
 231:dwm1000.c     **** 			case _7:
 232:dwm1000.c     **** 				int2Bytes(0x92929292U, txPower);
 233:dwm1000.c     **** 				break;
 234:dwm1000.c     **** 			}
 235:dwm1000.c     **** 			break;
 236:dwm1000.c     **** 		case _64MHZ:
 237:dwm1000.c     **** 			switch (config.transmitter.channel.channel) {
 238:dwm1000.c     **** 			case _1: case _2:
 239:dwm1000.c     **** 				int2Bytes(0x67676767U, txPower);
 240:dwm1000.c     **** 				break;
 241:dwm1000.c     **** 			case _3:
 242:dwm1000.c     **** 				int2Bytes(0x8B8B8B8BU, txPower);
 243:dwm1000.c     **** 				break;
 244:dwm1000.c     **** 			case _4:
 245:dwm1000.c     **** 				int2Bytes(0x9A9A9A9AU, txPower);
 246:dwm1000.c     **** 				break;
 247:dwm1000.c     **** 			case _5:
 248:dwm1000.c     **** 				int2Bytes(0x85858585U, txPower);
 249:dwm1000.c     **** 				break;
 250:dwm1000.c     **** 			case _7:
 251:dwm1000.c     **** 				int2Bytes(0xD1D1D1D1U, txPower);
 252:dwm1000.c     **** 				break;
 253:dwm1000.c     **** 			}
 254:dwm1000.c     **** 			break;
 255:dwm1000.c     **** 		}
 256:dwm1000.c     **** 		break;
 257:dwm1000.c     **** 	}
 258:dwm1000.c     **** 	DWM_WriteSPI_ext(TX_POWER, NO_SUB, txPower, 4);
 259:dwm1000.c     **** }
 260:dwm1000.c     **** 
 261:dwm1000.c     **** static void TRANSMITTER_UpdateChannel() {
 262:dwm1000.c     **** 	uint8_t tc[1];
 263:dwm1000.c     **** 	uint8_t txctrl[4];
 264:dwm1000.c     **** 	switch (config.transmitter.channel.channel) {
 265:dwm1000.c     **** 		case _1:
 266:dwm1000.c     **** 			int2Bytes(0x00005C40U, txctrl);
 267:dwm1000.c     **** 			tc[0] =  0xC9U;
 268:dwm1000.c     **** 			break;
 269:dwm1000.c     **** 		case _2:
 270:dwm1000.c     **** 			int2Bytes(0x00045CA0U, txctrl);
 271:dwm1000.c     **** 			tc[0] =  0xC2U;
 272:dwm1000.c     **** 			break;
 273:dwm1000.c     **** 		case _3:
 274:dwm1000.c     **** 			int2Bytes(0x00086CC0U, txctrl);
ARM GAS  C:\Users\PIERRE~1\AppData\Local\Temp\ccqD7qlI.s 			page 12


 275:dwm1000.c     **** 			tc[0] =  0xC5U;
 276:dwm1000.c     **** 			break;
 277:dwm1000.c     **** 		case _4:
 278:dwm1000.c     **** 			int2Bytes(0x00045C80U, txctrl);
 279:dwm1000.c     **** 			tc[0] =  0x95U;
 280:dwm1000.c     **** 			break;
 281:dwm1000.c     **** 		case _5:
 282:dwm1000.c     **** 			int2Bytes(0x001E3FE0U, txctrl);
 283:dwm1000.c     **** 			tc[0] =  0xC0U;
 284:dwm1000.c     **** 			break;
 285:dwm1000.c     **** 		case _7:
 286:dwm1000.c     **** 			int2Bytes(0x001E7DE0U, txctrl);
 287:dwm1000.c     **** 			tc[0] =  0x93U;
 288:dwm1000.c     **** 			break;
 289:dwm1000.c     **** 	}
 290:dwm1000.c     **** 	DWM_WriteSPI_ext(RF_CONF,  0x0C, txctrl,  3);
 291:dwm1000.c     **** 	DWM_WriteSPI_ext(TX_CAL,  0x0B, tc,  1);
 292:dwm1000.c     **** 	TRANSMITTER_UpdateTxPower();
 293:dwm1000.c     **** }
 294:dwm1000.c     **** 
 295:dwm1000.c     **** static void TRANSMITTER_UpdateBitrate(){
 296:dwm1000.c     **** 	DWM_WriteSPI_ext(TX_FCTRL,  1, (uint8_t[]){((config.transmitter.channel.bitRate << 5) | (1<<7))}, 
 297:dwm1000.c     **** 	TRANSMITTER_UpdateTxPower();
 298:dwm1000.c     **** }
 299:dwm1000.c     **** 
 300:dwm1000.c     **** static void TRANSMITTER_UpdatePreambleCode(){
 301:dwm1000.c     **** 	uint8_t chan[2];
 302:dwm1000.c     **** 	DWM_ReadSPI_ext(CHAN_CTRL, 2, chan, 2);
 303:dwm1000.c     **** 	uint8_t preambleCode = config.transmitter.channel.preambleCode;
 304:dwm1000.c     **** 	chan[0] &= 0x3F;
 305:dwm1000.c     **** 	chan[1] &= 0xF8;
 306:dwm1000.c     **** 	chan[0] |= preambleCode << 6;
 307:dwm1000.c     **** 	chan[1] |= preambleCode >> 2;
 308:dwm1000.c     **** 	DWM_WriteSPI_ext(CHAN_CTRL, 2, chan, 2);
 309:dwm1000.c     **** }
 310:dwm1000.c     **** 
 311:dwm1000.c     **** static void TRANSMITTER_UpdatePreambleSize(){
 312:dwm1000.c     **** 	DWM_WriteSPI_ext(TX_FCTRL, 2,(uint8_t[]){(config.transmitter.channel.prf |
 313:dwm1000.c     **** 			(config.transmitter.channel.preambleSize << 2))}, 1);
 314:dwm1000.c     **** }
 315:dwm1000.c     **** 
 316:dwm1000.c     **** static void TRANSMITTER_UpdatePrf(){
 317:dwm1000.c     **** 	DWM_WriteSPI_ext(TX_FCTRL, 2, (uint8_t[]){(config.transmitter.channel.prf |
 318:dwm1000.c     **** 			(config.transmitter.channel.preambleSize << 2))}, 1);
 319:dwm1000.c     **** 	TRANSMITTER_UpdateTxPower();
 320:dwm1000.c     **** }
 321:dwm1000.c     **** 
 322:dwm1000.c     **** void TRANSMITTER_SetPreambleCode(uint8_t preambleCode) {
 323:dwm1000.c     **** 	config.transmitter.channel.preambleCode = CHANNEL_ValidPreambleCode(&(config.transmitter.channel),
 324:dwm1000.c     **** 	TRANSMITTER_UpdatePreambleCode();
 325:dwm1000.c     **** }
 326:dwm1000.c     **** 
 327:dwm1000.c     **** void TRANSMITTER_SetPreambleSize(enum PE preambleSize) {
 328:dwm1000.c     **** 	config.transmitter.channel.preambleSize = CHANNEL_ValidPreambleSize(&(config.transmitter.channel),
 329:dwm1000.c     **** 	TRANSMITTER_UpdatePreambleSize();
 330:dwm1000.c     **** }
 331:dwm1000.c     **** 
ARM GAS  C:\Users\PIERRE~1\AppData\Local\Temp\ccqD7qlI.s 			page 13


 332:dwm1000.c     **** void TRANSMITTER_SetChannel(enum CHANNEL channel) {
 333:dwm1000.c     **** 	config.transmitter.channel.channel = channel;
 334:dwm1000.c     **** 	if (!CHANNEL_IsValidPreambleCode(&(config.transmitter.channel), config.transmitter.channel.preambl
 335:dwm1000.c     **** 		TRANSMITTER_SetPreambleCode(config.transmitter.channel.preambleCode);
 336:dwm1000.c     **** 	}
 337:dwm1000.c     **** 	TRANSMITTER_UpdateChannel();
 338:dwm1000.c     **** }
 339:dwm1000.c     **** 
 340:dwm1000.c     **** void TRANSMITTER_SetBitRate(enum BITRATE bitRate) {
 341:dwm1000.c     **** 	config.transmitter.channel.bitRate = bitRate;
 342:dwm1000.c     **** 	if (!CHANNEL_IsValidPreambleSize(&(config.transmitter.channel), config.transmitter.channel.preambl
 343:dwm1000.c     **** 		TRANSMITTER_SetPreambleSize(config.transmitter.channel.preambleSize);
 344:dwm1000.c     **** 	}
 345:dwm1000.c     **** 	TRANSMITTER_UpdateBitrate();
 346:dwm1000.c     **** }
 347:dwm1000.c     **** 
 348:dwm1000.c     **** void TRANSMITTER_SetPrf(enum PRF prf) {
 349:dwm1000.c     **** 	config.transmitter.channel.prf = prf;
 350:dwm1000.c     **** 	if (!CHANNEL_IsValidPreambleCode(&(config.transmitter.channel), config.transmitter.channel.preambl
 351:dwm1000.c     **** 		TRANSMITTER_SetPreambleCode(config.transmitter.channel.preambleCode);
 352:dwm1000.c     **** 	}
 353:dwm1000.c     **** 	TRANSMITTER_UpdatePrf();
 354:dwm1000.c     **** }
 355:dwm1000.c     **** 
 356:dwm1000.c     **** static void TRANSMITTER_Init(void) {
 357:dwm1000.c     **** 	CHANNEL_Init(&(config.transmitter.channel));
 358:dwm1000.c     **** 	TRANSMITTER_UpdateChannel();
 359:dwm1000.c     **** 	TRANSMITTER_UpdateBitrate();
 360:dwm1000.c     **** 	TRANSMITTER_UpdatePrf();
 361:dwm1000.c     **** 	TRANSMITTER_UpdatePreambleCode();
 362:dwm1000.c     **** 	TRANSMITTER_UpdatePreambleSize();
 363:dwm1000.c     **** }
 364:dwm1000.c     **** 
 365:dwm1000.c     **** static void RECEIVER_UpdateSFDTimeout() {
 366:dwm1000.c     **** 	uint16_t preambleSize = 4096;
 367:dwm1000.c     **** 	uint8_t timeout[2];
 368:dwm1000.c     **** 	switch(config.receiver.channel.preambleSize) {
 369:dwm1000.c     **** 		case _64:
 370:dwm1000.c     **** 			preambleSize = 64;
 371:dwm1000.c     **** 			break;
 372:dwm1000.c     **** 		case _128:
 373:dwm1000.c     **** 			preambleSize = 128;
 374:dwm1000.c     **** 			break;
 375:dwm1000.c     **** 		case _256:
 376:dwm1000.c     **** 			preambleSize = 256;
 377:dwm1000.c     **** 			break;
 378:dwm1000.c     **** 		case _512:
 379:dwm1000.c     **** 			preambleSize = 512;
 380:dwm1000.c     **** 			break;
 381:dwm1000.c     **** 		case _1024:
 382:dwm1000.c     **** 			preambleSize = 1024;
 383:dwm1000.c     **** 			break;
 384:dwm1000.c     **** 		case _1536:
 385:dwm1000.c     **** 			preambleSize = 1536;
 386:dwm1000.c     **** 			break;
 387:dwm1000.c     **** 		case _2048:
 388:dwm1000.c     **** 			preambleSize = 2048;
ARM GAS  C:\Users\PIERRE~1\AppData\Local\Temp\ccqD7qlI.s 			page 14


 389:dwm1000.c     **** 			break;
 390:dwm1000.c     **** 		case _4096:
 391:dwm1000.c     **** 			preambleSize = 4096;
 392:dwm1000.c     **** 			break;
 393:dwm1000.c     **** 	}
 394:dwm1000.c     **** 		short2Bytes(preambleSize + config.receiver.sfd + 1 - config.receiver.pac, timeout);
 395:dwm1000.c     ****         DWM_WriteSPI_ext(DRX_CONF, 0x20, timeout, 2);
 396:dwm1000.c     ****         //uint8 TimeOutPreambule[2]={0x00,0x00};
 397:dwm1000.c     ****         //DWM_WriteSPI_ext(DRX_CONF, 0x24, TimeOutPreambule, 2);
 398:dwm1000.c     **** }
 399:dwm1000.c     **** 
 400:dwm1000.c     **** static void RECEIVER_UpdatePacSize() {
 401:dwm1000.c     **** 	uint8_t drxTune2[4];
 402:dwm1000.c     **** 	switch (config.receiver.channel.prf) {
 403:dwm1000.c     **** 	case _16MHZ:
 404:dwm1000.c     **** 		switch (config.receiver.channel.preambleSize) {
 405:dwm1000.c     **** 		case _64: case _128:
 406:dwm1000.c     **** 			int2Bytes(0x311A002DU, drxTune2);
 407:dwm1000.c     **** 			config.receiver.pac = 8;
 408:dwm1000.c     **** 			break;
 409:dwm1000.c     **** 		case _256: case _512:
 410:dwm1000.c     **** 			int2Bytes(0x331A0052U, drxTune2);
 411:dwm1000.c     **** 			config.receiver.pac = 16;
 412:dwm1000.c     **** 			break;
 413:dwm1000.c     **** 		case _1024:
 414:dwm1000.c     **** 			int2Bytes(0x351A009AU, drxTune2);
 415:dwm1000.c     **** 			config.receiver.pac = 32;
 416:dwm1000.c     **** 			break;
 417:dwm1000.c     **** 		case _1536: case _2048: case _4096:
 418:dwm1000.c     **** 			int2Bytes(0x371A011DU, drxTune2);
 419:dwm1000.c     **** 			config.receiver.pac = 64;
 420:dwm1000.c     **** 			break;
 421:dwm1000.c     **** 		}
 422:dwm1000.c     **** 		break;
 423:dwm1000.c     **** 	case _64MHZ:
 424:dwm1000.c     **** 		switch (config.receiver.channel.preambleSize) {
 425:dwm1000.c     **** 		case _64: case _128:
 426:dwm1000.c     **** 			int2Bytes(0x313B006BU, drxTune2);
 427:dwm1000.c     **** 			config.receiver.pac = 8;
 428:dwm1000.c     **** 			break;
 429:dwm1000.c     **** 		case _256: case _512:
 430:dwm1000.c     **** 			int2Bytes(0x333B00BEU, drxTune2);
 431:dwm1000.c     **** 			config.receiver.pac = 16;
 432:dwm1000.c     **** 			break;
 433:dwm1000.c     **** 		case _1024:
 434:dwm1000.c     **** 			int2Bytes(0x353B015EU, drxTune2);
 435:dwm1000.c     **** 			config.receiver.pac = 32;
 436:dwm1000.c     **** 			break;
 437:dwm1000.c     **** 		case _1536: case _2048: case _4096:
 438:dwm1000.c     **** 			int2Bytes(0x373B0296U, drxTune2);
 439:dwm1000.c     **** 			config.receiver.pac = 64;
 440:dwm1000.c     **** 			break;
 441:dwm1000.c     **** 		}
 442:dwm1000.c     **** 		break;
 443:dwm1000.c     **** 	}
 444:dwm1000.c     **** 	DWM_WriteSPI_ext(DRX_CONF, 0x08, drxTune2, 4);
 445:dwm1000.c     **** }
ARM GAS  C:\Users\PIERRE~1\AppData\Local\Temp\ccqD7qlI.s 			page 15


 446:dwm1000.c     **** 
 447:dwm1000.c     **** static void RECEIVER_UpdateFrameTimeoutDelay() {
 448:dwm1000.c     **** 	uint8_t sysCfg[1];
 449:dwm1000.c     **** 	DWM_ReadSPI_ext(SYS_CFG, 0x03, sysCfg, 0x01);
 450:dwm1000.c     **** 	sysCfg[0] |= (1 << 4);
 451:dwm1000.c     **** 	uint8_t rxfwto[2];
 452:dwm1000.c     **** 	short2Bytes(config.receiver.frameTimeoutDelay, rxfwto);
 453:dwm1000.c     **** 	if (config.receiver.frameTimeoutDelay == 0) {
 454:dwm1000.c     **** 		sysCfg[0] &= ~(1 << 4);
 455:dwm1000.c     **** 	}
 456:dwm1000.c     **** 
 457:dwm1000.c     **** 	DWM_WriteSPI_ext(RX_FWTO, NO_SUB, rxfwto, 0x02);
 458:dwm1000.c     **** 	DWM_WriteSPI_ext(SYS_CFG, 0x03, sysCfg, 0x01);
 459:dwm1000.c     **** }
 460:dwm1000.c     **** 
 461:dwm1000.c     **** static void RECEIVER_UpdateChannel() {
 462:dwm1000.c     **** 	uint8_t rxCtrl[1];
 463:dwm1000.c     **** 	switch (config.receiver.channel.channel) {
 464:dwm1000.c     **** 	case _1: case _2: case _3: case _5:
 465:dwm1000.c     **** 		rxCtrl[0] = 0xD8;
 466:dwm1000.c     **** 		break;
 467:dwm1000.c     **** 	case _4: case _7:
 468:dwm1000.c     **** 		rxCtrl[0] = 0xBC;
 469:dwm1000.c     **** 		break;
 470:dwm1000.c     **** 	}
 471:dwm1000.c     **** 	DWM_WriteSPI_ext(RF_CONF, 0x0B, rxCtrl, 1);
 472:dwm1000.c     **** }
 473:dwm1000.c     **** 
 474:dwm1000.c     **** static void RECEIVER_UpdateBitrate() {
 475:dwm1000.c     **** 	uint8_t sys[1] = {0};
 476:dwm1000.c     **** 	uint8_t drxTune0b[2];
 477:dwm1000.c     **** 	switch (config.receiver.channel.bitRate) {
 478:dwm1000.c     **** 	case _110KBPS:
 479:dwm1000.c     **** 		short2Bytes(0x000AU, drxTune0b);
 480:dwm1000.c     **** 		sys[0] = 1 << 6;
 481:dwm1000.c     **** 		config.receiver.sfd = 64;
 482:dwm1000.c     **** 		break;
 483:dwm1000.c     **** 	case _850KBPS: case _6800KBPS:
 484:dwm1000.c     **** 		short2Bytes(0x0001U, drxTune0b);
 485:dwm1000.c     **** 		config.receiver.sfd = 8;
 486:dwm1000.c     **** 		break;
 487:dwm1000.c     **** 	}
 488:dwm1000.c     **** 	DWM_WriteSPI_ext(SYS_CFG, 2, sys, 1);
 489:dwm1000.c     **** 	DWM_WriteSPI_ext(DRX_CONF, 0x02, drxTune0b, 2);
 490:dwm1000.c     **** 	RECEIVER_UpdateSFDTimeout();
 491:dwm1000.c     **** }
 492:dwm1000.c     **** 
 493:dwm1000.c     **** static void RECEIVER_UpdatePreambleCode() {
 494:dwm1000.c     **** 	uint8_t chan[1];
 495:dwm1000.c     **** 	DWM_ReadSPI_ext(CHAN_CTRL, 3, chan, 1);
 496:dwm1000.c     **** 	uint8_t preambleCode = config.receiver.channel.preambleCode;
 497:dwm1000.c     **** 	chan[0] &= 0x07;
 498:dwm1000.c     **** 	chan[0] |= preambleCode << 3;
 499:dwm1000.c     **** 	DWM_WriteSPI_ext(CHAN_CTRL, 3, chan, 1);
 500:dwm1000.c     **** }
 501:dwm1000.c     **** 
 502:dwm1000.c     **** static void RECEIVER_UpdatePreambleSize() {
ARM GAS  C:\Users\PIERRE~1\AppData\Local\Temp\ccqD7qlI.s 			page 16


 503:dwm1000.c     **** 	uint8_t drx_tune1b[2] = {0};
 504:dwm1000.c     **** 	uint8_t drx_tune4h[2] = {0};
 505:dwm1000.c     **** 	switch (config.receiver.channel.preambleSize) {
 506:dwm1000.c     **** 	case _64:
 507:dwm1000.c     **** 		short2Bytes(0x0010, drx_tune1b);	// for 6800 kbps
 508:dwm1000.c     **** 		short2Bytes(0x0010, drx_tune4h);
 509:dwm1000.c     **** 		break;
 510:dwm1000.c     **** 	case _128: case _256: case _512: case _1024:	// for 850 kbps & 6800 kbps
 511:dwm1000.c     **** 		short2Bytes(0x0020, drx_tune1b);
 512:dwm1000.c     **** 		short2Bytes(0x0028, drx_tune4h);
 513:dwm1000.c     **** 		break;
 514:dwm1000.c     **** 	case _1536: case _2048: case _4096:			// for 110 kbps
 515:dwm1000.c     **** 		short2Bytes(0x0064, drx_tune1b);
 516:dwm1000.c     **** 		short2Bytes(0x0028, drx_tune4h);
 517:dwm1000.c     **** 		break;
 518:dwm1000.c     **** 	}
 519:dwm1000.c     **** 	DWM_WriteSPI_ext(DRX_CONF, 0x06, drx_tune1b, 2);
 520:dwm1000.c     **** 	DWM_WriteSPI_ext(DRX_CONF, 0x26, drx_tune4h, 2);
 521:dwm1000.c     **** 	RECEIVER_UpdatePacSize();
 522:dwm1000.c     **** 	RECEIVER_UpdateSFDTimeout();
 523:dwm1000.c     **** }
 524:dwm1000.c     **** 
 525:dwm1000.c     **** static void RECEIVER_UpdatePrf() {
 526:dwm1000.c     **** 	uint8_t prf[1];
 527:dwm1000.c     **** 	DWM_ReadSPI_ext(CHAN_CTRL, 2, prf, 1);
 528:dwm1000.c     **** 	prf[0] &= 0xF3;
 529:dwm1000.c     **** 	prf[0] |= config.receiver.channel.prf << 2;
 530:dwm1000.c     **** 	DWM_WriteSPI_ext(CHAN_CTRL, 2, prf, 1);
 531:dwm1000.c     **** 	uint8_t drxTune1a[2];
 532:dwm1000.c     **** 	uint8_t agcTune1[2];
 533:dwm1000.c     **** 	uint8_t ldeCfg2[2];
 534:dwm1000.c     **** 	switch (config.receiver.channel.prf) {
 535:dwm1000.c     **** 	case _16MHZ:
 536:dwm1000.c     **** 		short2Bytes(0x0087U, drxTune1a);
 537:dwm1000.c     **** 		short2Bytes(0x8870U, agcTune1);
 538:dwm1000.c     **** 		short2Bytes(0x1607U, ldeCfg2);
 539:dwm1000.c     **** 		break;
 540:dwm1000.c     **** 	case _64MHZ:
 541:dwm1000.c     **** 		short2Bytes(0x008DU, drxTune1a);
 542:dwm1000.c     **** 		short2Bytes(0x889BU, agcTune1);
 543:dwm1000.c     **** 		short2Bytes(0x0607U, ldeCfg2);
 544:dwm1000.c     **** 		break;
 545:dwm1000.c     **** 	}
 546:dwm1000.c     **** 	DWM_WriteSPI_ext(DRX_CONF, 0x04, drxTune1a, 2);
 547:dwm1000.c     **** 	DWM_WriteSPI_ext(AGC_CTRL, 0x04, agcTune1, 2);
 548:dwm1000.c     **** 	DWM_WriteSPI_ext(LDE_CTRL, 0x1806, ldeCfg2, 2);
 549:dwm1000.c     **** 	RECEIVER_UpdatePacSize();
 550:dwm1000.c     **** }
 551:dwm1000.c     **** 
 552:dwm1000.c     **** void RECEIVER_SetPreambleCode(uint8_t preambleCode) {
 553:dwm1000.c     **** 	config.receiver.channel.preambleCode = CHANNEL_ValidPreambleCode(&(config.receiver.channel), pream
 554:dwm1000.c     **** 	RECEIVER_UpdatePreambleCode();
 555:dwm1000.c     **** }
 556:dwm1000.c     **** 
 557:dwm1000.c     **** void RECEIVER_SetPreambleSize(enum PE preambleSize) {
 558:dwm1000.c     **** 	config.receiver.channel.preambleSize = CHANNEL_ValidPreambleSize(&(config.receiver.channel), pream
 559:dwm1000.c     **** 	RECEIVER_UpdatePreambleSize();
ARM GAS  C:\Users\PIERRE~1\AppData\Local\Temp\ccqD7qlI.s 			page 17


 560:dwm1000.c     **** }
 561:dwm1000.c     **** 
 562:dwm1000.c     **** void RECEIVER_SetChannel(enum CHANNEL channel) {
 563:dwm1000.c     **** 	config.receiver.channel.channel = channel;
 564:dwm1000.c     **** 	if (!CHANNEL_IsValidPreambleCode(&(config.receiver.channel), config.receiver.channel.preambleCode)
 565:dwm1000.c     **** 		RECEIVER_SetPreambleCode(config.receiver.channel.preambleCode);
 566:dwm1000.c     **** 	}
 567:dwm1000.c     **** 
 568:dwm1000.c     **** 	RECEIVER_UpdateChannel();
 569:dwm1000.c     **** }
 570:dwm1000.c     **** 
 571:dwm1000.c     **** void RECEIVER_SetBitRate(enum BITRATE bitRate) {
 572:dwm1000.c     **** 	config.receiver.channel.bitRate = bitRate;
 573:dwm1000.c     **** 	if (!CHANNEL_IsValidPreambleSize(&(config.receiver.channel), config.receiver.channel.preambleSize)
 574:dwm1000.c     **** 		RECEIVER_SetPreambleSize(config.receiver.channel.preambleSize);
 575:dwm1000.c     **** 	}
 576:dwm1000.c     **** 	RECEIVER_UpdateBitrate();
 577:dwm1000.c     **** }
 578:dwm1000.c     **** 
 579:dwm1000.c     **** void RECEIVER_SetPrf(enum PRF prf) {
 580:dwm1000.c     **** 	config.receiver.channel.prf = prf;
 581:dwm1000.c     **** 	if (!CHANNEL_IsValidPreambleCode(&(config.receiver.channel), config.receiver.channel.preambleCode)
 582:dwm1000.c     **** 		RECEIVER_SetPreambleCode(config.receiver.channel.preambleCode);
 583:dwm1000.c     **** 	}
 584:dwm1000.c     **** 	RECEIVER_UpdatePrf();
 585:dwm1000.c     **** }
 586:dwm1000.c     **** 
 587:dwm1000.c     **** void RECEIVER_SetRrameTimeoutDelay(uint16_t timeoutDelay) {
 588:dwm1000.c     **** 	config.receiver.frameTimeoutDelay = timeoutDelay;
 589:dwm1000.c     **** 	RECEIVER_UpdateFrameTimeoutDelay();
 590:dwm1000.c     **** 
 591:dwm1000.c     **** }
 592:dwm1000.c     **** 
 593:dwm1000.c     **** static void RECEIVER_Init(void) {
 594:dwm1000.c     **** 	CHANNEL_Init(&(config.receiver.channel));
 595:dwm1000.c     **** 	config.receiver.frameTimeoutDelay = 0;
 596:dwm1000.c     **** 	RECEIVER_UpdateChannel();
 597:dwm1000.c     **** 	RECEIVER_UpdateBitrate();
 598:dwm1000.c     **** 	RECEIVER_UpdatePrf();
 599:dwm1000.c     **** 	RECEIVER_UpdatePreambleCode();
 600:dwm1000.c     **** 	RECEIVER_UpdatePreambleSize();
 601:dwm1000.c     **** 	RECEIVER_UpdateFrameTimeoutDelay();
 602:dwm1000.c     **** }
 603:dwm1000.c     **** 
 604:dwm1000.c     **** void DWM_SetChannel(enum CHANNEL channel) {
 605:dwm1000.c     **** 	config.channel = channel;
 606:dwm1000.c     **** 	TRANSMITTER_SetChannel(channel);
 607:dwm1000.c     **** 	RECEIVER_SetChannel(channel);
 608:dwm1000.c     **** 	DWM_UpdateChannel();
 609:dwm1000.c     **** }
 610:dwm1000.c     **** 
 611:dwm1000.c     **** static void CONFIG_Init(void) {
 612:dwm1000.c     **** 	DWM_Reset();
 613:dwm1000.c     **** 	TRANSMITTER_Init();
 614:dwm1000.c     **** 	RECEIVER_Init();
 615:dwm1000.c     **** 	config.channel = _5;
 616:dwm1000.c     **** 	DWM_UpdateChannel();
ARM GAS  C:\Users\PIERRE~1\AppData\Local\Temp\ccqD7qlI.s 			page 18


 617:dwm1000.c     **** 
 618:dwm1000.c     **** }
 619:dwm1000.c     **** 
 620:dwm1000.c     **** 
 621:dwm1000.c     **** /* ---------------------- Functions -------------------------------------- */
 622:dwm1000.c     **** 
 623:dwm1000.c     **** /* ------------------------------------- */
 624:dwm1000.c     **** /* STATE MANAGEMENT FUNCTION             */
 625:dwm1000.c     **** /* ------------------------------------- */
 626:dwm1000.c     **** 
 627:dwm1000.c     **** void DWM_Init(void){
 628:dwm1000.c     ****     CONFIG_Init();
 629:dwm1000.c     **** 	uint8_t SPIRxBuffer8[4];
 630:dwm1000.c     **** 
 631:dwm1000.c     ****     // Check DW ID
 632:dwm1000.c     **** 	DWM_ReadSPI_ext(DEV_ID, NO_SUB, SPIRxBuffer8, DEV_ID_LEN);
 633:dwm1000.c     **** 	uint32_t deviceID =(SPIRxBuffer8[3] << 24) | (SPIRxBuffer8[2] << 16) | (SPIRxBuffer8[1] << 8) | SP
 634:dwm1000.c     ****     if (deviceID != 0xDECA0130){
 635:dwm1000.c     **** 		//printf("Wrong DW ID \n");
 636:dwm1000.c     **** 		//printf("%" PRIx32 "\n", deviceID);
 637:dwm1000.c     **** 		// infinite loop
 638:dwm1000.c     **** 		while (1){
 639:dwm1000.c     **** 			CyDelay(100u);
 640:dwm1000.c     **** 		}
 641:dwm1000.c     **** 	}
 642:dwm1000.c     **** 	
 643:dwm1000.c     **** 	/****************************************************************************************
 644:dwm1000.c     **** 	 * *************************************************************************************/
 645:dwm1000.c     **** 	// DEFAULT CONFIGURATION THAT SOULD BE MODIFIED (SECTION 2.5.5 OF USER MANUAL)
 646:dwm1000.c     **** 
 647:dwm1000.c     **** 	//AGC_TUNE2
 648:dwm1000.c     **** 	uint8_t agc_tune2[] = {0x07, 0xA9, 0x02, 0x25};
 649:dwm1000.c     **** 	DWM_WriteSPI_ext(AGC_CTRL, 0x0C, agc_tune2, 4);
 650:dwm1000.c     **** 
 651:dwm1000.c     ****     // LDE_CFG1: NTM
 652:dwm1000.c     ****     uint8_t lde_cfg1[] = {0x6d};	// LOS CONFIGURATION
 653:dwm1000.c     **** 	//uint8_t lde_cfg1[] = {0x07};	// NLOS CONFIGURATION
 654:dwm1000.c     ****     DWM_WriteSPI_ext(LDE_CTRL, 0x0806, lde_cfg1, 1);
 655:dwm1000.c     **** 
 656:dwm1000.c     ****         // LDE_CFG2
 657:dwm1000.c     ****         //uint8_t lde_cfg2[] = {0x07, 0x16};
 658:dwm1000.c     ****         // NLOS CONFIGURATION
 659:dwm1000.c     ****         //uint8_t lde_cfg2[] = {0x03, 0x00};
 660:dwm1000.c     ****         //DWM_WriteSPI_ext(LDE_CTRL, 0x1806, lde_cfg2, 2);
 661:dwm1000.c     **** 		
 662:dwm1000.c     **** 	/****************************************************************************************
 663:dwm1000.c     **** 	 * *************************************************************************************/
 664:dwm1000.c     **** 	// setup of the irq
 665:dwm1000.c     **** 	uint8_t sysMask[SYS_MASK_LEN]={0};
 666:dwm1000.c     **** 	DWM_ReadSPI_ext(SYS_MASK, NO_SUB, sysMask, SYS_MASK_LEN);
 667:dwm1000.c     **** 	setBit(sysMask,SYS_MASK_LEN,7,1);// TX OK
 668:dwm1000.c     **** 	//setBit(sysMask,SYS_MASK_LEN,10,1);// RX OK
 669:dwm1000.c     **** 	setBit(sysMask,SYS_MASK_LEN,13,1);// RX OK
 670:dwm1000.c     **** 	//setBit(sysMask,SYS_MASK_LEN,14,1);// RX OK
 671:dwm1000.c     **** 	setBit(sysMask,SYS_MASK_LEN,12,1);// RX ERROR
 672:dwm1000.c     **** 	setBit(sysMask,SYS_MASK_LEN,15,1);// RX ERROR
 673:dwm1000.c     **** 	setBit(sysMask,SYS_MASK_LEN,16,1);// RX ERROR
ARM GAS  C:\Users\PIERRE~1\AppData\Local\Temp\ccqD7qlI.s 			page 19


 674:dwm1000.c     **** 	setBit(sysMask,SYS_MASK_LEN,17,1);// RX TIMEOUT
 675:dwm1000.c     **** 	setBit(sysMask,SYS_MASK_LEN,18,1);// RX ERROR
 676:dwm1000.c     **** 	setBit(sysMask,SYS_MASK_LEN,21,1);// RX ERROR
 677:dwm1000.c     **** 	setBit(sysMask,SYS_MASK_LEN,26,1);// RX ERROR
 678:dwm1000.c     **** 	DWM_WriteSPI_ext(SYS_MASK, NO_SUB, sysMask, SYS_MASK_LEN);
 679:dwm1000.c     ****     
 680:dwm1000.c     ****     
 681:dwm1000.c     **** 	// antenna delay
 682:dwm1000.c     **** 	uint8_t delayuint8[2];
 683:dwm1000.c     ****     uint16_t antennaDelay = ANTENNA_DELAY >> 1;
 684:dwm1000.c     ****     delayuint8[1] = (antennaDelay & 0xFF00) >>8;
 685:dwm1000.c     ****     delayuint8[0] = (antennaDelay & 0xFF);
 686:dwm1000.c     ****     DWM_WriteSPI_ext(TX_ANTD, NO_SUB, delayuint8, 2);
 687:dwm1000.c     ****     DWM_WriteSPI_ext(LDE_CTRL, 0x1804, delayuint8, 2);
 688:dwm1000.c     **** 	
 689:dwm1000.c     **** 	CyDelay(100u);
 690:dwm1000.c     **** 	DWM_ReadSPI_ext(DEV_ID, NO_SUB, SPIRxBuffer8, DEV_ID_LEN);
 691:dwm1000.c     **** 	deviceID =(SPIRxBuffer8[3] << 24) | (SPIRxBuffer8[2] << 16) | (SPIRxBuffer8[1] << 8) | SPIRxBuffer
 692:dwm1000.c     **** 
 693:dwm1000.c     **** 	if (deviceID != 0xDECA0130){
 694:dwm1000.c     **** 		//printf("Wrong DW ID \n");
 695:dwm1000.c     **** 		//printf("%" PRIx32 "\n", deviceID);
 696:dwm1000.c     **** 		// infinite loop
 697:dwm1000.c     **** 		while (1){
 698:dwm1000.c     **** 			CyDelay(100u);
 699:dwm1000.c     **** 		}
 700:dwm1000.c     **** 	}
 701:dwm1000.c     ****     
 702:dwm1000.c     **** }
 703:dwm1000.c     **** 	
 704:dwm1000.c     **** 
 705:dwm1000.c     **** void idle() {
 706:dwm1000.c     **** 	// Set the device in IDLE mode
 707:dwm1000.c     **** 	uint8_t sysCtrl[4] = {1 << TRXOFF_BIT};
 708:dwm1000.c     **** 	uint8_t ack[4] = {0};
 709:dwm1000.c     **** 	// Update the DWM1000 module
 710:dwm1000.c     **** 	uint8_t prim = IRQ_GetState();
 711:dwm1000.c     **** 	IRQ_Disable();
 712:dwm1000.c     **** 	DWM_WriteSPI_ext(SYS_CTRL, NO_SUB, sysCtrl, 4);
 713:dwm1000.c     **** 
 714:dwm1000.c     **** 	setBit(ack, 4, TX_OK_BIT, 1);
 715:dwm1000.c     **** 	uint32_t Rx_mask = RX_FINISHED_MASK | RX_ERROR_MASK;
 716:dwm1000.c     **** 	ack[0] |= Rx_mask;
 717:dwm1000.c     **** 	ack[1] |= Rx_mask >> 8;
 718:dwm1000.c     **** 	ack[2] |= Rx_mask >> 16;
 719:dwm1000.c     **** 	ack[3] |= Rx_mask >> 24;
 720:dwm1000.c     **** 	// clear IRQ flags on DW
 721:dwm1000.c     **** 	DWM_WriteSPI_ext(SYS_STATUS, NO_SUB, ack, 4);
 722:dwm1000.c     **** 	if(prim){IRQ_Enable();}
 723:dwm1000.c     **** }
 724:dwm1000.c     **** 
 725:dwm1000.c     **** 
 726:dwm1000.c     **** static void DWM_Reset(void){
 727:dwm1000.c     **** 	uint8_t pmscCtrl0[2];
 728:dwm1000.c     **** 
 729:dwm1000.c     **** 	// Set SYSCLKS bits to 01
 730:dwm1000.c     **** 	pmscCtrl0[0] = 0x01;
ARM GAS  C:\Users\PIERRE~1\AppData\Local\Temp\ccqD7qlI.s 			page 20


 731:dwm1000.c     **** 	DWM_WriteSPI_ext(PMSC, PMSC_CTRL0, pmscCtrl0, 1);
 732:dwm1000.c     **** 	CyDelay(1u);
 733:dwm1000.c     **** 
 734:dwm1000.c     **** 	// Clear SOFTRESET bits
 735:dwm1000.c     **** 	pmscCtrl0[0] = 0x00;
 736:dwm1000.c     **** 	DWM_WriteSPI_ext(PMSC, 0x03, pmscCtrl0, 1),
 737:dwm1000.c     **** 	CyDelay(1u);
 738:dwm1000.c     **** 
 739:dwm1000.c     **** 	// Set SOFTRESET bits
 740:dwm1000.c     **** 	pmscCtrl0[0] = 0xF0;
 741:dwm1000.c     **** 	DWM_WriteSPI_ext(PMSC, 0x03, pmscCtrl0, 1);
 742:dwm1000.c     **** 	CyDelay(5u);
 743:dwm1000.c     **** 
 744:dwm1000.c     ****     // Load the LDE algorithm microcode into LDE RAM or disable LDE execution (clear LDERUNE)
 745:dwm1000.c     **** 	pmscCtrl0[0] = 0x01;
 746:dwm1000.c     **** 	pmscCtrl0[1] = 0x03;
 747:dwm1000.c     **** 	DWM_WriteSPI_ext(PMSC, PMSC_CTRL0, pmscCtrl0, 2);
 748:dwm1000.c     **** 	CyDelay(1u);
 749:dwm1000.c     **** 
 750:dwm1000.c     **** 	uint8_t opt_ctrl[2];
 751:dwm1000.c     **** 	opt_ctrl[0] = 0x00;
 752:dwm1000.c     **** 	opt_ctrl[1] = 0x80;
 753:dwm1000.c     **** 	DWM_WriteSPI_ext(OTP_IF, 0x06, opt_ctrl, 2);
 754:dwm1000.c     **** 	CyDelay(1u);
 755:dwm1000.c     **** 
 756:dwm1000.c     **** 	pmscCtrl0[0] = 0x00;
 757:dwm1000.c     **** 	pmscCtrl0[1] = 0x02;
 758:dwm1000.c     **** 	DWM_WriteSPI_ext(PMSC, PMSC_CTRL0, pmscCtrl0, 2);
 759:dwm1000.c     **** }
 760:dwm1000.c     **** 
 761:dwm1000.c     **** void DWM_Reset_Rx(){
 762:dwm1000.c     **** 	uint8_t pmscCtrl0[] = {0xE0};
 763:dwm1000.c     **** 	DWM_WriteSPI_ext(PMSC, 0x03, pmscCtrl0, 1);
 764:dwm1000.c     **** 
 765:dwm1000.c     **** 	pmscCtrl0[0] = 0xF0;
 766:dwm1000.c     **** 	DWM_WriteSPI_ext(PMSC, 0x03, pmscCtrl0, 1);
 767:dwm1000.c     **** }
 768:dwm1000.c     **** 
 769:dwm1000.c     **** void DWM_Enable_Rx(void){
 770:dwm1000.c     **** 	uint8_t TxBuf8[4] = {0};
 771:dwm1000.c     **** 	setBit(TxBuf8,4,8,1);
 772:dwm1000.c     **** 	DWM_WriteSPI_ext(SYS_CTRL, NO_SUB, TxBuf8, 4);
 773:dwm1000.c     **** }
 774:dwm1000.c     **** 
 775:dwm1000.c     **** /* ------------------------------------- */
 776:dwm1000.c     **** /*  BITs AND BYTEs  FUNCTIONS            */
 777:dwm1000.c     **** /* ------------------------------------- */
 778:dwm1000.c     **** 
 779:dwm1000.c     **** void setBit(uint8_t *data, uint16_t len, uint8_t bit, uint8_t val) {
 346              		.loc 1 779 0
 347              		.cfi_startproc
 348              		@ args = 0, pretend = 0, frame = 0
 349              		@ frame_needed = 0, uses_anonymous_args = 0
 350              		@ link register save eliminated.
 351              	.LVL29:
 352 0000 30B4     		push	{r4, r5}
 353              		.cfi_def_cfa_offset 8
ARM GAS  C:\Users\PIERRE~1\AppData\Local\Temp\ccqD7qlI.s 			page 21


 354              		.cfi_offset 4, -8
 355              		.cfi_offset 5, -4
 780:dwm1000.c     **** 	uint16_t idx;
 781:dwm1000.c     **** 	uint8_t shift;
 782:dwm1000.c     **** 	
 783:dwm1000.c     **** 	idx = bit>>3;
 356              		.loc 1 783 0
 357 0002 D408     		lsrs	r4, r2, #3
 358 0004 A5B2     		uxth	r5, r4
 359              	.LVL30:
 784:dwm1000.c     **** 	if (idx >= len) return;
 360              		.loc 1 784 0
 361 0006 8D42     		cmp	r5, r1
 362 0008 10D2     		bcs	.L36
 363              	.LVL31:
 785:dwm1000.c     **** 	
 786:dwm1000.c     **** 	uint8_t* targetByte = &data[idx];
 787:dwm1000.c     **** 	shift = bit%8;
 364              		.loc 1 787 0
 365 000a 02F00702 		and	r2, r2, #7
 366              	.LVL32:
 788:dwm1000.c     **** 	if (val) {
 367              		.loc 1 788 0
 368 000e 33B1     		cbz	r3, .L38
 789:dwm1000.c     **** 		Bitset(*targetByte, shift);
 369              		.loc 1 789 0
 370 0010 0123     		movs	r3, #1
 371              	.LVL33:
 372 0012 03FA02F2 		lsl	r2, r3, r2
 373              	.LVL34:
 374 0016 035D     		ldrb	r3, [r0, r4]	@ zero_extendqisi2
 375 0018 1A43     		orrs	r2, r2, r3
 376 001a 0255     		strb	r2, [r0, r4]
 377 001c 06E0     		b	.L36
 378              	.LVL35:
 379              	.L38:
 790:dwm1000.c     **** 	} else {
 791:dwm1000.c     **** 		Bitclear(*targetByte, shift);
 380              		.loc 1 791 0
 381 001e 0123     		movs	r3, #1
 382              	.LVL36:
 383 0020 03FA02F2 		lsl	r2, r3, r2
 384              	.LVL37:
 385 0024 035D     		ldrb	r3, [r0, r4]	@ zero_extendqisi2
 386 0026 23EA0202 		bic	r2, r3, r2
 387 002a 0255     		strb	r2, [r0, r4]
 388              	.LVL38:
 389              	.L36:
 792:dwm1000.c     **** 	}
 793:dwm1000.c     **** }
 390              		.loc 1 793 0
 391 002c 30BC     		pop	{r4, r5}
 392              		.cfi_restore 5
 393              		.cfi_restore 4
 394              		.cfi_def_cfa_offset 0
 395              	.LVL39:
 396 002e 7047     		bx	lr
ARM GAS  C:\Users\PIERRE~1\AppData\Local\Temp\ccqD7qlI.s 			page 22


 397              		.cfi_endproc
 398              	.LFE103:
 399              		.size	setBit, .-setBit
 400              		.section	.text.int2Bytes,"ax",%progbits
 401              		.align	2
 402              		.global	int2Bytes
 403              		.thumb
 404              		.thumb_func
 405              		.type	int2Bytes, %function
 406              	int2Bytes:
 407              	.LFB104:
 794:dwm1000.c     **** 
 795:dwm1000.c     **** void int2Bytes(const uint32_t dataInt, uint8_t data[4]) {
 408              		.loc 1 795 0
 409              		.cfi_startproc
 410              		@ args = 0, pretend = 0, frame = 0
 411              		@ frame_needed = 0, uses_anonymous_args = 0
 412              		@ link register save eliminated.
 413              	.LVL40:
 796:dwm1000.c     **** 	data[0] = dataInt;
 414              		.loc 1 796 0
 415 0000 0870     		strb	r0, [r1]
 797:dwm1000.c     **** 	data[1] = dataInt >> 8;
 416              		.loc 1 797 0
 417 0002 030A     		lsrs	r3, r0, #8
 418 0004 4B70     		strb	r3, [r1, #1]
 798:dwm1000.c     **** 	data[2] = dataInt >> 16;
 419              		.loc 1 798 0
 420 0006 030C     		lsrs	r3, r0, #16
 421 0008 8B70     		strb	r3, [r1, #2]
 799:dwm1000.c     **** 	data[3] = dataInt >> 24;
 422              		.loc 1 799 0
 423 000a 000E     		lsrs	r0, r0, #24
 424              	.LVL41:
 425 000c C870     		strb	r0, [r1, #3]
 426 000e 7047     		bx	lr
 427              		.cfi_endproc
 428              	.LFE104:
 429              		.size	int2Bytes, .-int2Bytes
 430              		.section	.text.short2Bytes,"ax",%progbits
 431              		.align	2
 432              		.global	short2Bytes
 433              		.thumb
 434              		.thumb_func
 435              		.type	short2Bytes, %function
 436              	short2Bytes:
 437              	.LFB105:
 800:dwm1000.c     **** }
 801:dwm1000.c     **** 
 802:dwm1000.c     **** void short2Bytes(const uint16_t	dataShort, uint8_t data[2]) {
 438              		.loc 1 802 0
 439              		.cfi_startproc
 440              		@ args = 0, pretend = 0, frame = 0
 441              		@ frame_needed = 0, uses_anonymous_args = 0
 442              		@ link register save eliminated.
 443              	.LVL42:
 803:dwm1000.c     **** 	data[0] = dataShort;
ARM GAS  C:\Users\PIERRE~1\AppData\Local\Temp\ccqD7qlI.s 			page 23


 444              		.loc 1 803 0
 445 0000 0870     		strb	r0, [r1]
 804:dwm1000.c     **** 	data[1] = dataShort >> 8;
 446              		.loc 1 804 0
 447 0002 000A     		lsrs	r0, r0, #8
 448              	.LVL43:
 449 0004 4870     		strb	r0, [r1, #1]
 450 0006 7047     		bx	lr
 451              		.cfi_endproc
 452              	.LFE105:
 453              		.size	short2Bytes, .-short2Bytes
 454              		.section	.text.DWM_ReadSPI_ext,"ax",%progbits
 455              		.align	2
 456              		.global	DWM_ReadSPI_ext
 457              		.thumb
 458              		.thumb_func
 459              		.type	DWM_ReadSPI_ext, %function
 460              	DWM_ReadSPI_ext:
 461              	.LFB106:
 805:dwm1000.c     **** }
 806:dwm1000.c     **** 
 807:dwm1000.c     **** /* ------------------------------------- */
 808:dwm1000.c     **** /*  RAW READ-WRITE FUNCTIONS             */
 809:dwm1000.c     **** /* ------------------------------------- */
 810:dwm1000.c     **** 
 811:dwm1000.c     **** void DWM_ReadSPI_ext(uint8_t address, uint16_t offset, uint8_t *data, uint16_t len) {
 462              		.loc 1 811 0
 463              		.cfi_startproc
 464              		@ args = 0, pretend = 0, frame = 8
 465              		@ frame_needed = 0, uses_anonymous_args = 0
 466              	.LVL44:
 467 0000 2DE9F043 		push	{r4, r5, r6, r7, r8, r9, lr}
 468              		.cfi_def_cfa_offset 28
 469              		.cfi_offset 4, -28
 470              		.cfi_offset 5, -24
 471              		.cfi_offset 6, -20
 472              		.cfi_offset 7, -16
 473              		.cfi_offset 8, -12
 474              		.cfi_offset 9, -8
 475              		.cfi_offset 14, -4
 476 0004 83B0     		sub	sp, sp, #12
 477              		.cfi_def_cfa_offset 40
 478 0006 1646     		mov	r6, r2
 479 0008 1D46     		mov	r5, r3
 812:dwm1000.c     **** 	uint8_t header[3] = {0};
 480              		.loc 1 812 0
 481 000a 0023     		movs	r3, #0
 482              	.LVL45:
 483 000c ADF80430 		strh	r3, [sp, #4]	@ movhi
 484 0010 8DF80630 		strb	r3, [sp, #6]
 485              	.LVL46:
 813:dwm1000.c     **** 	uint16_t i = 0;
 814:dwm1000.c     **** 	uint8_t headerLen = 1;
 815:dwm1000.c     ****     if (offset == NO_SUB) {
 486              		.loc 1 815 0
 487 0014 4FF6FF73 		movw	r3, #65535
 488 0018 9942     		cmp	r1, r3
ARM GAS  C:\Users\PIERRE~1\AppData\Local\Temp\ccqD7qlI.s 			page 24


 489 001a 04D1     		bne	.L43
 816:dwm1000.c     **** 		header[0] = address | READ;
 490              		.loc 1 816 0
 491 001c 8DF80400 		strb	r0, [sp, #4]
 814:dwm1000.c     ****     if (offset == NO_SUB) {
 492              		.loc 1 814 0
 493 0020 4FF00109 		mov	r9, #1
 494 0024 14E0     		b	.L44
 495              	.L43:
 817:dwm1000.c     **** 	} else {
 818:dwm1000.c     **** 		header[0] = address | READ_SUB;
 496              		.loc 1 818 0
 497 0026 40F04000 		orr	r0, r0, #64
 498              	.LVL47:
 499 002a 8DF80400 		strb	r0, [sp, #4]
 819:dwm1000.c     **** 		if(offset < 128) {
 500              		.loc 1 819 0
 501 002e 7F29     		cmp	r1, #127
 502 0030 04D8     		bhi	.L45
 820:dwm1000.c     **** 			header[1] = (uint8_t)offset;
 503              		.loc 1 820 0
 504 0032 8DF80510 		strb	r1, [sp, #5]
 505              	.LVL48:
 821:dwm1000.c     **** 			headerLen++;
 506              		.loc 1 821 0
 507 0036 4FF00209 		mov	r9, #2
 508 003a 09E0     		b	.L44
 509              	.LVL49:
 510              	.L45:
 822:dwm1000.c     **** 		} else {
 823:dwm1000.c     **** 			header[1] = (uint8_t)offset | RW_SUB_EXT;
 511              		.loc 1 823 0
 512 003c 61F07F03 		orn	r3, r1, #127
 513 0040 8DF80530 		strb	r3, [sp, #5]
 824:dwm1000.c     **** 			header[2] = (uint8_t)(offset >> 7);
 514              		.loc 1 824 0
 515 0044 C1F3C711 		ubfx	r1, r1, #7, #8
 516              	.LVL50:
 517 0048 8DF80610 		strb	r1, [sp, #6]
 518              	.LVL51:
 825:dwm1000.c     **** 			headerLen += 2;
 519              		.loc 1 825 0
 520 004c 4FF00309 		mov	r9, #3
 521              	.LVL52:
 522              	.L44:
 826:dwm1000.c     **** 		}
 827:dwm1000.c     **** 	}
 828:dwm1000.c     **** 	uint8_t prim = IRQ_GetState();
 523              		.loc 1 828 0
 524 0050 FFF7FEFF 		bl	IRQ_GetState
 525              	.LVL53:
 526 0054 0746     		mov	r7, r0
 527              	.LVL54:
 829:dwm1000.c     **** 	IRQ_Disable();
 528              		.loc 1 829 0
 529 0056 FFF7FEFF 		bl	IRQ_Disable
 530              	.LVL55:
ARM GAS  C:\Users\PIERRE~1\AppData\Local\Temp\ccqD7qlI.s 			page 25


 830:dwm1000.c     **** 	// Hack write byte by byte to avoid hardfault on HAL_SPI_Transmit with non 2 bytes aligned data
 831:dwm1000.c     ****     for(i=0;i<headerLen;i++){
 531              		.loc 1 831 0
 532 005a 0024     		movs	r4, #0
 533 005c 07E0     		b	.L46
 534              	.LVL56:
 535              	.L47:
 832:dwm1000.c     ****         SPIM_WriteTxData(header[i]); //demande
 536              		.loc 1 832 0 discriminator 3
 537 005e 02AB     		add	r3, sp, #8
 538 0060 2344     		add	r3, r3, r4
 539 0062 13F8040C 		ldrb	r0, [r3, #-4]	@ zero_extendqisi2
 540 0066 FFF7FEFF 		bl	SPIM_WriteTxData
 541              	.LVL57:
 831:dwm1000.c     ****         SPIM_WriteTxData(header[i]); //demande
 542              		.loc 1 831 0 discriminator 3
 543 006a 0134     		adds	r4, r4, #1
 544              	.LVL58:
 545 006c A4B2     		uxth	r4, r4
 546              	.LVL59:
 547              	.L46:
 831:dwm1000.c     ****         SPIM_WriteTxData(header[i]); //demande
 548              		.loc 1 831 0 is_stmt 0 discriminator 1
 549 006e 1FFA89F8 		uxth	r8, r9
 550 0072 4445     		cmp	r4, r8
 551 0074 F3D3     		bcc	.L47
 552 0076 0024     		movs	r4, #0
 553              	.LVL60:
 554 0078 04E0     		b	.L48
 555              	.LVL61:
 556              	.L49:
 833:dwm1000.c     ****     }
 834:dwm1000.c     ****     for(i=0;i<len;i++){    
 835:dwm1000.c     ****         SPIM_WriteTxData(0x00u);
 557              		.loc 1 835 0 is_stmt 1 discriminator 3
 558 007a 0020     		movs	r0, #0
 559 007c FFF7FEFF 		bl	SPIM_WriteTxData
 560              	.LVL62:
 834:dwm1000.c     ****         SPIM_WriteTxData(0x00u);
 561              		.loc 1 834 0 discriminator 3
 562 0080 0134     		adds	r4, r4, #1
 563              	.LVL63:
 564 0082 A4B2     		uxth	r4, r4
 565              	.LVL64:
 566              	.L48:
 834:dwm1000.c     ****         SPIM_WriteTxData(0x00u);
 567              		.loc 1 834 0 is_stmt 0 discriminator 1
 568 0084 AC42     		cmp	r4, r5
 569 0086 F8D3     		bcc	.L49
 570              	.L50:
 836:dwm1000.c     ****     }
 837:dwm1000.c     ****     while(!(SPIM_ReadTxStatus() & SPIM_STS_SPI_DONE));  
 571              		.loc 1 837 0 is_stmt 1 discriminator 1
 572 0088 FFF7FEFF 		bl	SPIM_ReadTxStatus
 573              	.LVL65:
 574 008c 10F0010F 		tst	r0, #1
 575 0090 FAD0     		beq	.L50
ARM GAS  C:\Users\PIERRE~1\AppData\Local\Temp\ccqD7qlI.s 			page 26


 576 0092 0024     		movs	r4, #0
 577              	.LVL66:
 578 0094 03E0     		b	.L51
 579              	.LVL67:
 580              	.L52:
 838:dwm1000.c     ****     for(i=0;i<headerLen;i++){    
 839:dwm1000.c     ****         SPIM_ReadRxData();
 581              		.loc 1 839 0 discriminator 3
 582 0096 FFF7FEFF 		bl	SPIM_ReadRxData
 583              	.LVL68:
 838:dwm1000.c     ****     for(i=0;i<headerLen;i++){    
 584              		.loc 1 838 0 discriminator 3
 585 009a 0134     		adds	r4, r4, #1
 586              	.LVL69:
 587 009c A4B2     		uxth	r4, r4
 588              	.LVL70:
 589              	.L51:
 838:dwm1000.c     ****     for(i=0;i<headerLen;i++){    
 590              		.loc 1 838 0 is_stmt 0 discriminator 1
 591 009e 4445     		cmp	r4, r8
 592 00a0 F9D3     		bcc	.L52
 593 00a2 0024     		movs	r4, #0
 594              	.LVL71:
 595 00a4 04E0     		b	.L53
 596              	.LVL72:
 597              	.L54:
 840:dwm1000.c     ****     }
 841:dwm1000.c     ****     for (i=0; i<len; i++) {
 842:dwm1000.c     **** 		data[i] = SPIM_ReadRxData();
 598              		.loc 1 842 0 is_stmt 1 discriminator 3
 599 00a6 FFF7FEFF 		bl	SPIM_ReadRxData
 600              	.LVL73:
 601 00aa 3055     		strb	r0, [r6, r4]
 841:dwm1000.c     **** 		data[i] = SPIM_ReadRxData();
 602              		.loc 1 841 0 discriminator 3
 603 00ac 0134     		adds	r4, r4, #1
 604              	.LVL74:
 605 00ae A4B2     		uxth	r4, r4
 606              	.LVL75:
 607              	.L53:
 841:dwm1000.c     **** 		data[i] = SPIM_ReadRxData();
 608              		.loc 1 841 0 is_stmt 0 discriminator 1
 609 00b0 AC42     		cmp	r4, r5
 610 00b2 F8D3     		bcc	.L54
 843:dwm1000.c     **** 	}
 844:dwm1000.c     **** 	if(prim){IRQ_Enable();}
 611              		.loc 1 844 0 is_stmt 1
 612 00b4 0FB1     		cbz	r7, .L42
 613              		.loc 1 844 0 is_stmt 0 discriminator 1
 614 00b6 FFF7FEFF 		bl	IRQ_Enable
 615              	.LVL76:
 616              	.L42:
 845:dwm1000.c     **** }
 617              		.loc 1 845 0 is_stmt 1
 618 00ba 03B0     		add	sp, sp, #12
 619              		.cfi_def_cfa_offset 28
 620              		@ sp needed
ARM GAS  C:\Users\PIERRE~1\AppData\Local\Temp\ccqD7qlI.s 			page 27


 621 00bc BDE8F083 		pop	{r4, r5, r6, r7, r8, r9, pc}
 622              		.cfi_endproc
 623              	.LFE106:
 624              		.size	DWM_ReadSPI_ext, .-DWM_ReadSPI_ext
 625              		.section	.text.DWM_WriteSPI_ext,"ax",%progbits
 626              		.align	2
 627              		.global	DWM_WriteSPI_ext
 628              		.thumb
 629              		.thumb_func
 630              		.type	DWM_WriteSPI_ext, %function
 631              	DWM_WriteSPI_ext:
 632              	.LFB107:
 846:dwm1000.c     **** 
 847:dwm1000.c     **** void DWM_WriteSPI_ext(uint8_t address, uint16_t offset, uint8_t *data, uint16_t len) {
 633              		.loc 1 847 0
 634              		.cfi_startproc
 635              		@ args = 0, pretend = 0, frame = 8
 636              		@ frame_needed = 0, uses_anonymous_args = 0
 637              	.LVL77:
 638 0000 2DE9F041 		push	{r4, r5, r6, r7, r8, lr}
 639              		.cfi_def_cfa_offset 24
 640              		.cfi_offset 4, -24
 641              		.cfi_offset 5, -20
 642              		.cfi_offset 6, -16
 643              		.cfi_offset 7, -12
 644              		.cfi_offset 8, -8
 645              		.cfi_offset 14, -4
 646 0004 82B0     		sub	sp, sp, #8
 647              		.cfi_def_cfa_offset 32
 648 0006 9046     		mov	r8, r2
 649 0008 1D46     		mov	r5, r3
 650              	.LVL78:
 848:dwm1000.c     **** 	uint8_t header[3];
 849:dwm1000.c     **** 	uint8_t headerLen = 1;
 850:dwm1000.c     **** 	uint16_t i = 0;
 851:dwm1000.c     **** 	if (offset == NO_SUB) {
 651              		.loc 1 851 0
 652 000a 4FF6FF73 		movw	r3, #65535
 653              	.LVL79:
 654 000e 9942     		cmp	r1, r3
 655 0010 05D1     		bne	.L58
 852:dwm1000.c     **** 		header[0] = address | WRITE;
 656              		.loc 1 852 0
 657 0012 60F07F00 		orn	r0, r0, #127
 658              	.LVL80:
 659 0016 8DF80400 		strb	r0, [sp, #4]
 849:dwm1000.c     **** 	uint16_t i = 0;
 660              		.loc 1 849 0
 661 001a 0126     		movs	r6, #1
 662 001c 12E0     		b	.L59
 663              	.LVL81:
 664              	.L58:
 853:dwm1000.c     **** 	} else {
 854:dwm1000.c     **** 		header[0] = address | WRITE_SUB;
 665              		.loc 1 854 0
 666 001e 60F03F00 		orn	r0, r0, #63
 667              	.LVL82:
ARM GAS  C:\Users\PIERRE~1\AppData\Local\Temp\ccqD7qlI.s 			page 28


 668 0022 8DF80400 		strb	r0, [sp, #4]
 855:dwm1000.c     **** 		if(offset < 128) {
 669              		.loc 1 855 0
 670 0026 7F29     		cmp	r1, #127
 671 0028 03D8     		bhi	.L60
 856:dwm1000.c     **** 			header[1] = (uint8_t)offset;
 672              		.loc 1 856 0
 673 002a 8DF80510 		strb	r1, [sp, #5]
 674              	.LVL83:
 857:dwm1000.c     **** 			headerLen++;
 675              		.loc 1 857 0
 676 002e 0226     		movs	r6, #2
 677 0030 08E0     		b	.L59
 678              	.LVL84:
 679              	.L60:
 858:dwm1000.c     **** 		} else {
 859:dwm1000.c     **** 			header[1] = (uint8_t)offset | RW_SUB_EXT;
 680              		.loc 1 859 0
 681 0032 61F07F03 		orn	r3, r1, #127
 682 0036 8DF80530 		strb	r3, [sp, #5]
 860:dwm1000.c     **** 			header[2] = (uint8_t)(offset >> 7);
 683              		.loc 1 860 0
 684 003a C1F3C711 		ubfx	r1, r1, #7, #8
 685              	.LVL85:
 686 003e 8DF80610 		strb	r1, [sp, #6]
 687              	.LVL86:
 861:dwm1000.c     **** 			headerLen += 2;
 688              		.loc 1 861 0
 689 0042 0326     		movs	r6, #3
 690              	.LVL87:
 691              	.L59:
 862:dwm1000.c     **** 		}
 863:dwm1000.c     **** 	}
 864:dwm1000.c     **** 	uint8_t prim = IRQ_GetState();
 692              		.loc 1 864 0
 693 0044 FFF7FEFF 		bl	IRQ_GetState
 694              	.LVL88:
 695 0048 0746     		mov	r7, r0
 696              	.LVL89:
 865:dwm1000.c     **** 	IRQ_Disable();
 697              		.loc 1 865 0
 698 004a FFF7FEFF 		bl	IRQ_Disable
 699              	.LVL90:
 866:dwm1000.c     **** 	// Hack write byte by byte to avoid hardfault on HAL_SPI_Transmit with non 2 bytes aligned data
 867:dwm1000.c     **** 	for (i=0; i < headerLen; i++) {
 700              		.loc 1 867 0
 701 004e 0024     		movs	r4, #0
 702 0050 07E0     		b	.L61
 703              	.LVL91:
 704              	.L62:
 868:dwm1000.c     **** 		SPIM_WriteTxData(header[i]);
 705              		.loc 1 868 0 discriminator 3
 706 0052 02AB     		add	r3, sp, #8
 707 0054 2344     		add	r3, r3, r4
 708 0056 13F8040C 		ldrb	r0, [r3, #-4]	@ zero_extendqisi2
 709 005a FFF7FEFF 		bl	SPIM_WriteTxData
 710              	.LVL92:
ARM GAS  C:\Users\PIERRE~1\AppData\Local\Temp\ccqD7qlI.s 			page 29


 867:dwm1000.c     **** 		SPIM_WriteTxData(header[i]);
 711              		.loc 1 867 0 discriminator 3
 712 005e 0134     		adds	r4, r4, #1
 713              	.LVL93:
 714 0060 A4B2     		uxth	r4, r4
 715              	.LVL94:
 716              	.L61:
 867:dwm1000.c     **** 		SPIM_WriteTxData(header[i]);
 717              		.loc 1 867 0 is_stmt 0 discriminator 1
 718 0062 B3B2     		uxth	r3, r6
 719 0064 9C42     		cmp	r4, r3
 720 0066 F4D3     		bcc	.L62
 721 0068 0024     		movs	r4, #0
 722              	.LVL95:
 723 006a 05E0     		b	.L63
 724              	.LVL96:
 725              	.L64:
 869:dwm1000.c     **** 	}
 870:dwm1000.c     **** 	for (i=0; i < len; i++) {
 871:dwm1000.c     **** 		SPIM_WriteTxData(data[i]);
 726              		.loc 1 871 0 is_stmt 1 discriminator 3
 727 006c 18F80400 		ldrb	r0, [r8, r4]	@ zero_extendqisi2
 728 0070 FFF7FEFF 		bl	SPIM_WriteTxData
 729              	.LVL97:
 870:dwm1000.c     **** 		SPIM_WriteTxData(data[i]);
 730              		.loc 1 870 0 discriminator 3
 731 0074 0134     		adds	r4, r4, #1
 732              	.LVL98:
 733 0076 A4B2     		uxth	r4, r4
 734              	.LVL99:
 735              	.L63:
 870:dwm1000.c     **** 		SPIM_WriteTxData(data[i]);
 736              		.loc 1 870 0 is_stmt 0 discriminator 1
 737 0078 AC42     		cmp	r4, r5
 738 007a F7D3     		bcc	.L64
 739              	.L65:
 872:dwm1000.c     **** 	}
 873:dwm1000.c     ****     while(!(SPIM_ReadTxStatus() & SPIM_STS_SPI_DONE));  
 740              		.loc 1 873 0 is_stmt 1 discriminator 1
 741 007c FFF7FEFF 		bl	SPIM_ReadTxStatus
 742              	.LVL100:
 743 0080 10F0010F 		tst	r0, #1
 744 0084 FAD0     		beq	.L65
 745 0086 0024     		movs	r4, #0
 746              	.LVL101:
 747 0088 03E0     		b	.L66
 748              	.LVL102:
 749              	.L67:
 874:dwm1000.c     ****     for(i=0;i<(headerLen+len);i++){    
 875:dwm1000.c     ****         SPIM_ReadRxData();
 750              		.loc 1 875 0 discriminator 3
 751 008a FFF7FEFF 		bl	SPIM_ReadRxData
 752              	.LVL103:
 874:dwm1000.c     ****     for(i=0;i<(headerLen+len);i++){    
 753              		.loc 1 874 0 discriminator 3
 754 008e 0134     		adds	r4, r4, #1
 755              	.LVL104:
ARM GAS  C:\Users\PIERRE~1\AppData\Local\Temp\ccqD7qlI.s 			page 30


 756 0090 A4B2     		uxth	r4, r4
 757              	.LVL105:
 758              	.L66:
 874:dwm1000.c     ****     for(i=0;i<(headerLen+len);i++){    
 759              		.loc 1 874 0 is_stmt 0 discriminator 1
 760 0092 7319     		adds	r3, r6, r5
 761 0094 9C42     		cmp	r4, r3
 762 0096 F8DB     		blt	.L67
 876:dwm1000.c     ****     }
 877:dwm1000.c     **** 	if(prim){IRQ_Enable();}
 763              		.loc 1 877 0 is_stmt 1
 764 0098 0FB1     		cbz	r7, .L57
 765              		.loc 1 877 0 is_stmt 0 discriminator 1
 766 009a FFF7FEFF 		bl	IRQ_Enable
 767              	.LVL106:
 768              	.L57:
 878:dwm1000.c     **** }
 769              		.loc 1 878 0 is_stmt 1
 770 009e 02B0     		add	sp, sp, #8
 771              		.cfi_def_cfa_offset 24
 772              		@ sp needed
 773 00a0 BDE8F081 		pop	{r4, r5, r6, r7, r8, pc}
 774              		.cfi_endproc
 775              	.LFE107:
 776              		.size	DWM_WriteSPI_ext, .-DWM_WriteSPI_ext
 777              		.section	.text.TRANSMITTER_UpdatePreambleCode,"ax",%progbits
 778              		.align	2
 779              		.thumb
 780              		.thumb_func
 781              		.type	TRANSMITTER_UpdatePreambleCode, %function
 782              	TRANSMITTER_UpdatePreambleCode:
 783              	.LFB72:
 300:dwm1000.c     **** 	uint8_t chan[2];
 784              		.loc 1 300 0
 785              		.cfi_startproc
 786              		@ args = 0, pretend = 0, frame = 8
 787              		@ frame_needed = 0, uses_anonymous_args = 0
 788 0000 00B5     		push	{lr}
 789              		.cfi_def_cfa_offset 4
 790              		.cfi_offset 14, -4
 791 0002 83B0     		sub	sp, sp, #12
 792              		.cfi_def_cfa_offset 16
 302:dwm1000.c     **** 	uint8_t preambleCode = config.transmitter.channel.preambleCode;
 793              		.loc 1 302 0
 794 0004 0223     		movs	r3, #2
 795 0006 01AA     		add	r2, sp, #4
 796 0008 1946     		mov	r1, r3
 797 000a 1F20     		movs	r0, #31
 798 000c FFF7FEFF 		bl	DWM_ReadSPI_ext
 799              	.LVL107:
 303:dwm1000.c     **** 	chan[0] &= 0x3F;
 800              		.loc 1 303 0
 801 0010 0D4B     		ldr	r3, .L72
 802 0012 5978     		ldrb	r1, [r3, #1]	@ zero_extendqisi2
 803              	.LVL108:
 304:dwm1000.c     **** 	chan[1] &= 0xF8;
 804              		.loc 1 304 0
ARM GAS  C:\Users\PIERRE~1\AppData\Local\Temp\ccqD7qlI.s 			page 31


 805 0014 9DF80420 		ldrb	r2, [sp, #4]	@ zero_extendqisi2
 806 0018 02F03F02 		and	r2, r2, #63
 305:dwm1000.c     **** 	chan[0] |= preambleCode << 6;
 807              		.loc 1 305 0
 808 001c 9DF80530 		ldrb	r3, [sp, #5]	@ zero_extendqisi2
 809 0020 03F0F803 		and	r3, r3, #248
 306:dwm1000.c     **** 	chan[1] |= preambleCode >> 2;
 810              		.loc 1 306 0
 811 0024 42EA8112 		orr	r2, r2, r1, lsl #6
 812 0028 8DF80420 		strb	r2, [sp, #4]
 307:dwm1000.c     **** 	DWM_WriteSPI_ext(CHAN_CTRL, 2, chan, 2);
 813              		.loc 1 307 0
 814 002c 43EA9103 		orr	r3, r3, r1, lsr #2
 815 0030 8DF80530 		strb	r3, [sp, #5]
 308:dwm1000.c     **** }
 816              		.loc 1 308 0
 817 0034 0223     		movs	r3, #2
 818 0036 01AA     		add	r2, sp, #4
 819 0038 1946     		mov	r1, r3
 820              	.LVL109:
 821 003a 1F20     		movs	r0, #31
 822 003c FFF7FEFF 		bl	DWM_WriteSPI_ext
 823              	.LVL110:
 309:dwm1000.c     **** 
 824              		.loc 1 309 0
 825 0040 03B0     		add	sp, sp, #12
 826              		.cfi_def_cfa_offset 4
 827              		@ sp needed
 828 0042 5DF804FB 		ldr	pc, [sp], #4
 829              	.L73:
 830 0046 00BF     		.align	2
 831              	.L72:
 832 0048 00000000 		.word	.LANCHOR0
 833              		.cfi_endproc
 834              	.LFE72:
 835              		.size	TRANSMITTER_UpdatePreambleCode, .-TRANSMITTER_UpdatePreambleCode
 836              		.section	.text.TRANSMITTER_SetPreambleCode,"ax",%progbits
 837              		.align	2
 838              		.global	TRANSMITTER_SetPreambleCode
 839              		.thumb
 840              		.thumb_func
 841              		.type	TRANSMITTER_SetPreambleCode, %function
 842              	TRANSMITTER_SetPreambleCode:
 843              	.LFB75:
 322:dwm1000.c     **** 	config.transmitter.channel.preambleCode = CHANNEL_ValidPreambleCode(&(config.transmitter.channel),
 844              		.loc 1 322 0
 845              		.cfi_startproc
 846              		@ args = 0, pretend = 0, frame = 0
 847              		@ frame_needed = 0, uses_anonymous_args = 0
 848              	.LVL111:
 849 0000 10B5     		push	{r4, lr}
 850              		.cfi_def_cfa_offset 8
 851              		.cfi_offset 4, -8
 852              		.cfi_offset 14, -4
 323:dwm1000.c     **** 	TRANSMITTER_UpdatePreambleCode();
 853              		.loc 1 323 0
 854 0002 044C     		ldr	r4, .L76
ARM GAS  C:\Users\PIERRE~1\AppData\Local\Temp\ccqD7qlI.s 			page 32


 855 0004 0146     		mov	r1, r0
 856 0006 2046     		mov	r0, r4
 857              	.LVL112:
 858 0008 FFF7FEFF 		bl	CHANNEL_ValidPreambleCode
 859              	.LVL113:
 860 000c 6070     		strb	r0, [r4, #1]
 324:dwm1000.c     **** }
 861              		.loc 1 324 0
 862 000e FFF7FEFF 		bl	TRANSMITTER_UpdatePreambleCode
 863              	.LVL114:
 864 0012 10BD     		pop	{r4, pc}
 865              	.L77:
 866              		.align	2
 867              	.L76:
 868 0014 00000000 		.word	.LANCHOR0
 869              		.cfi_endproc
 870              	.LFE75:
 871              		.size	TRANSMITTER_SetPreambleCode, .-TRANSMITTER_SetPreambleCode
 872              		.section	.text.TRANSMITTER_UpdatePreambleSize,"ax",%progbits
 873              		.align	2
 874              		.thumb
 875              		.thumb_func
 876              		.type	TRANSMITTER_UpdatePreambleSize, %function
 877              	TRANSMITTER_UpdatePreambleSize:
 878              	.LFB73:
 311:dwm1000.c     **** 	DWM_WriteSPI_ext(TX_FCTRL, 2,(uint8_t[]){(config.transmitter.channel.prf |
 879              		.loc 1 311 0
 880              		.cfi_startproc
 881              		@ args = 0, pretend = 0, frame = 8
 882              		@ frame_needed = 0, uses_anonymous_args = 0
 883 0000 00B5     		push	{lr}
 884              		.cfi_def_cfa_offset 4
 885              		.cfi_offset 14, -4
 886 0002 83B0     		sub	sp, sp, #12
 887              		.cfi_def_cfa_offset 16
 312:dwm1000.c     **** 			(config.transmitter.channel.preambleSize << 2))}, 1);
 888              		.loc 1 312 0
 889 0004 074A     		ldr	r2, .L80
 890 0006 1379     		ldrb	r3, [r2, #4]	@ zero_extendqisi2
 313:dwm1000.c     **** }
 891              		.loc 1 313 0
 892 0008 9278     		ldrb	r2, [r2, #2]	@ zero_extendqisi2
 312:dwm1000.c     **** 			(config.transmitter.channel.preambleSize << 2))}, 1);
 893              		.loc 1 312 0
 894 000a 43EA8203 		orr	r3, r3, r2, lsl #2
 895 000e 02AA     		add	r2, sp, #8
 896 0010 02F8043D 		strb	r3, [r2, #-4]!
 897 0014 0123     		movs	r3, #1
 898 0016 0221     		movs	r1, #2
 899 0018 0820     		movs	r0, #8
 900 001a FFF7FEFF 		bl	DWM_WriteSPI_ext
 901              	.LVL115:
 314:dwm1000.c     **** 
 902              		.loc 1 314 0
 903 001e 03B0     		add	sp, sp, #12
 904              		.cfi_def_cfa_offset 4
 905              		@ sp needed
ARM GAS  C:\Users\PIERRE~1\AppData\Local\Temp\ccqD7qlI.s 			page 33


 906 0020 5DF804FB 		ldr	pc, [sp], #4
 907              	.L81:
 908              		.align	2
 909              	.L80:
 910 0024 00000000 		.word	.LANCHOR0
 911              		.cfi_endproc
 912              	.LFE73:
 913              		.size	TRANSMITTER_UpdatePreambleSize, .-TRANSMITTER_UpdatePreambleSize
 914              		.section	.text.TRANSMITTER_SetPreambleSize,"ax",%progbits
 915              		.align	2
 916              		.global	TRANSMITTER_SetPreambleSize
 917              		.thumb
 918              		.thumb_func
 919              		.type	TRANSMITTER_SetPreambleSize, %function
 920              	TRANSMITTER_SetPreambleSize:
 921              	.LFB76:
 327:dwm1000.c     **** 	config.transmitter.channel.preambleSize = CHANNEL_ValidPreambleSize(&(config.transmitter.channel),
 922              		.loc 1 327 0
 923              		.cfi_startproc
 924              		@ args = 0, pretend = 0, frame = 0
 925              		@ frame_needed = 0, uses_anonymous_args = 0
 926              	.LVL116:
 927 0000 10B5     		push	{r4, lr}
 928              		.cfi_def_cfa_offset 8
 929              		.cfi_offset 4, -8
 930              		.cfi_offset 14, -4
 328:dwm1000.c     **** 	TRANSMITTER_UpdatePreambleSize();
 931              		.loc 1 328 0
 932 0002 044C     		ldr	r4, .L84
 933 0004 0146     		mov	r1, r0
 934 0006 2046     		mov	r0, r4
 935              	.LVL117:
 936 0008 FFF7FEFF 		bl	CHANNEL_ValidPreambleSize
 937              	.LVL118:
 938 000c A070     		strb	r0, [r4, #2]
 329:dwm1000.c     **** }
 939              		.loc 1 329 0
 940 000e FFF7FEFF 		bl	TRANSMITTER_UpdatePreambleSize
 941              	.LVL119:
 942 0012 10BD     		pop	{r4, pc}
 943              	.L85:
 944              		.align	2
 945              	.L84:
 946 0014 00000000 		.word	.LANCHOR0
 947              		.cfi_endproc
 948              	.LFE76:
 949              		.size	TRANSMITTER_SetPreambleSize, .-TRANSMITTER_SetPreambleSize
 950              		.section	.text.TRANSMITTER_UpdateTxPower,"ax",%progbits
 951              		.align	2
 952              		.thumb
 953              		.thumb_func
 954              		.type	TRANSMITTER_UpdateTxPower, %function
 955              	TRANSMITTER_UpdateTxPower:
 956              	.LFB69:
 170:dwm1000.c     **** 	uint8_t txPower[4];
 957              		.loc 1 170 0
 958              		.cfi_startproc
ARM GAS  C:\Users\PIERRE~1\AppData\Local\Temp\ccqD7qlI.s 			page 34


 959              		@ args = 0, pretend = 0, frame = 8
 960              		@ frame_needed = 0, uses_anonymous_args = 0
 961 0000 00B5     		push	{lr}
 962              		.cfi_def_cfa_offset 4
 963              		.cfi_offset 14, -4
 964 0002 83B0     		sub	sp, sp, #12
 965              		.cfi_def_cfa_offset 16
 172:dwm1000.c     **** 	case _6800KBPS:
 966              		.loc 1 172 0
 967 0004 5B4B     		ldr	r3, .L120
 968 0006 DB78     		ldrb	r3, [r3, #3]	@ zero_extendqisi2
 969 0008 022B     		cmp	r3, #2
 970 000a 4FD1     		bne	.L118
 174:dwm1000.c     **** 		case _16MHZ:
 971              		.loc 1 174 0
 972 000c 594B     		ldr	r3, .L120
 973 000e 1B79     		ldrb	r3, [r3, #4]	@ zero_extendqisi2
 974 0010 012B     		cmp	r3, #1
 975 0012 02D0     		beq	.L90
 976 0014 022B     		cmp	r3, #2
 977 0016 25D0     		beq	.L91
 978 0018 A0E0     		b	.L89
 979              	.L90:
 176:dwm1000.c     **** 			case _1: case _2:
 980              		.loc 1 176 0
 981 001a 564B     		ldr	r3, .L120
 982 001c 1B78     		ldrb	r3, [r3]	@ zero_extendqisi2
 983 001e 013B     		subs	r3, r3, #1
 984 0020 062B     		cmp	r3, #6
 985 0022 00F29B80 		bhi	.L89
 986 0026 DFE803F0 		tbb	[pc, r3]
 987              	.L93:
 988 002a 04       		.byte	(.L92-.L93)/2
 989 002b 04       		.byte	(.L92-.L93)/2
 990 002c 09       		.byte	(.L94-.L93)/2
 991 002d 0E       		.byte	(.L95-.L93)/2
 992 002e 13       		.byte	(.L96-.L93)/2
 993 002f 99       		.byte	(.L89-.L93)/2
 994 0030 18       		.byte	(.L97-.L93)/2
 995 0031 00       		.p2align 1
 996              	.L92:
 178:dwm1000.c     **** 				break;
 997              		.loc 1 178 0
 998 0032 01A9     		add	r1, sp, #4
 999 0034 5048     		ldr	r0, .L120+4
 1000 0036 FFF7FEFF 		bl	int2Bytes
 1001              	.LVL120:
 179:dwm1000.c     **** 			case _3:
 1002              		.loc 1 179 0
 1003 003a 8FE0     		b	.L89
 1004              	.L94:
 181:dwm1000.c     **** 				break;
 1005              		.loc 1 181 0
 1006 003c 01A9     		add	r1, sp, #4
 1007 003e 4F48     		ldr	r0, .L120+8
 1008 0040 FFF7FEFF 		bl	int2Bytes
 1009              	.LVL121:
ARM GAS  C:\Users\PIERRE~1\AppData\Local\Temp\ccqD7qlI.s 			page 35


 182:dwm1000.c     **** 			case _4:
 1010              		.loc 1 182 0
 1011 0044 8AE0     		b	.L89
 1012              	.L95:
 184:dwm1000.c     **** 				break;
 1013              		.loc 1 184 0
 1014 0046 01A9     		add	r1, sp, #4
 1015 0048 4D48     		ldr	r0, .L120+12
 1016 004a FFF7FEFF 		bl	int2Bytes
 1017              	.LVL122:
 185:dwm1000.c     **** 			case _5:
 1018              		.loc 1 185 0
 1019 004e 85E0     		b	.L89
 1020              	.L96:
 187:dwm1000.c     **** 				break;
 1021              		.loc 1 187 0
 1022 0050 01A9     		add	r1, sp, #4
 1023 0052 4C48     		ldr	r0, .L120+16
 1024 0054 FFF7FEFF 		bl	int2Bytes
 1025              	.LVL123:
 188:dwm1000.c     **** 			case _7:
 1026              		.loc 1 188 0
 1027 0058 80E0     		b	.L89
 1028              	.L97:
 190:dwm1000.c     **** 				break;
 1029              		.loc 1 190 0
 1030 005a 01A9     		add	r1, sp, #4
 1031 005c 4A48     		ldr	r0, .L120+20
 1032 005e FFF7FEFF 		bl	int2Bytes
 1033              	.LVL124:
 191:dwm1000.c     **** 			}
 1034              		.loc 1 191 0
 1035 0062 7BE0     		b	.L89
 1036              	.L91:
 195:dwm1000.c     **** 			case _1: case _2:
 1037              		.loc 1 195 0
 1038 0064 434B     		ldr	r3, .L120
 1039 0066 1B78     		ldrb	r3, [r3]	@ zero_extendqisi2
 1040 0068 013B     		subs	r3, r3, #1
 1041 006a 062B     		cmp	r3, #6
 1042 006c 76D8     		bhi	.L89
 1043 006e DFE803F0 		tbb	[pc, r3]
 1044              	.L99:
 1045 0072 04       		.byte	(.L98-.L99)/2
 1046 0073 04       		.byte	(.L98-.L99)/2
 1047 0074 09       		.byte	(.L100-.L99)/2
 1048 0075 0E       		.byte	(.L101-.L99)/2
 1049 0076 13       		.byte	(.L102-.L99)/2
 1050 0077 75       		.byte	(.L89-.L99)/2
 1051 0078 18       		.byte	(.L103-.L99)/2
 1052 0079 00       		.p2align 1
 1053              	.L98:
 197:dwm1000.c     **** 				break;
 1054              		.loc 1 197 0
 1055 007a 01A9     		add	r1, sp, #4
 1056 007c 4348     		ldr	r0, .L120+24
 1057 007e FFF7FEFF 		bl	int2Bytes
ARM GAS  C:\Users\PIERRE~1\AppData\Local\Temp\ccqD7qlI.s 			page 36


 1058              	.LVL125:
 198:dwm1000.c     **** 			case _3:
 1059              		.loc 1 198 0
 1060 0082 6BE0     		b	.L89
 1061              	.L100:
 200:dwm1000.c     **** 				break;
 1062              		.loc 1 200 0
 1063 0084 01A9     		add	r1, sp, #4
 1064 0086 4248     		ldr	r0, .L120+28
 1065 0088 FFF7FEFF 		bl	int2Bytes
 1066              	.LVL126:
 201:dwm1000.c     **** 			case _4:
 1067              		.loc 1 201 0
 1068 008c 66E0     		b	.L89
 1069              	.L101:
 203:dwm1000.c     **** 				break;
 1070              		.loc 1 203 0
 1071 008e 01A9     		add	r1, sp, #4
 1072 0090 4048     		ldr	r0, .L120+32
 1073 0092 FFF7FEFF 		bl	int2Bytes
 1074              	.LVL127:
 204:dwm1000.c     **** 			case _5:
 1075              		.loc 1 204 0
 1076 0096 61E0     		b	.L89
 1077              	.L102:
 206:dwm1000.c     **** 				break;
 1078              		.loc 1 206 0
 1079 0098 01A9     		add	r1, sp, #4
 1080 009a 3F48     		ldr	r0, .L120+36
 1081 009c FFF7FEFF 		bl	int2Bytes
 1082              	.LVL128:
 207:dwm1000.c     **** 			case _7:
 1083              		.loc 1 207 0
 1084 00a0 5CE0     		b	.L89
 1085              	.L103:
 209:dwm1000.c     **** 				break;
 1086              		.loc 1 209 0
 1087 00a2 01A9     		add	r1, sp, #4
 1088 00a4 3D48     		ldr	r0, .L120+40
 1089 00a6 FFF7FEFF 		bl	int2Bytes
 1090              	.LVL129:
 210:dwm1000.c     **** 			}
 1091              		.loc 1 210 0
 1092 00aa 57E0     		b	.L89
 1093              	.L118:
 216:dwm1000.c     **** 		case _16MHZ:
 1094              		.loc 1 216 0
 1095 00ac 314B     		ldr	r3, .L120
 1096 00ae 1B79     		ldrb	r3, [r3, #4]	@ zero_extendqisi2
 1097 00b0 012B     		cmp	r3, #1
 1098 00b2 02D0     		beq	.L104
 1099 00b4 022B     		cmp	r3, #2
 1100 00b6 29D0     		beq	.L105
 1101 00b8 50E0     		b	.L89
 1102              	.L104:
 218:dwm1000.c     **** 			case _1: case _2:
 1103              		.loc 1 218 0
ARM GAS  C:\Users\PIERRE~1\AppData\Local\Temp\ccqD7qlI.s 			page 37


 1104 00ba 2E4B     		ldr	r3, .L120
 1105 00bc 1B78     		ldrb	r3, [r3]	@ zero_extendqisi2
 1106 00be 013B     		subs	r3, r3, #1
 1107 00c0 062B     		cmp	r3, #6
 1108 00c2 4BD8     		bhi	.L89
 1109 00c4 DFE803F0 		tbb	[pc, r3]
 1110              	.L107:
 1111 00c8 04       		.byte	(.L106-.L107)/2
 1112 00c9 04       		.byte	(.L106-.L107)/2
 1113 00ca 0A       		.byte	(.L108-.L107)/2
 1114 00cb 10       		.byte	(.L109-.L107)/2
 1115 00cc 16       		.byte	(.L110-.L107)/2
 1116 00cd 4A       		.byte	(.L89-.L107)/2
 1117 00ce 1C       		.byte	(.L111-.L107)/2
 1118 00cf 00       		.p2align 1
 1119              	.L106:
 220:dwm1000.c     **** 				break;
 1120              		.loc 1 220 0
 1121 00d0 01A9     		add	r1, sp, #4
 1122 00d2 4FF07530 		mov	r0, #1970632053
 1123 00d6 FFF7FEFF 		bl	int2Bytes
 1124              	.LVL130:
 221:dwm1000.c     **** 			case _3:
 1125              		.loc 1 221 0
 1126 00da 3FE0     		b	.L89
 1127              	.L108:
 223:dwm1000.c     **** 				break;
 1128              		.loc 1 223 0
 1129 00dc 01A9     		add	r1, sp, #4
 1130 00de 4FF06F30 		mov	r0, #1869573999
 1131 00e2 FFF7FEFF 		bl	int2Bytes
 1132              	.LVL131:
 224:dwm1000.c     **** 			case _4:
 1133              		.loc 1 224 0
 1134 00e6 39E0     		b	.L89
 1135              	.L109:
 226:dwm1000.c     **** 				break;
 1136              		.loc 1 226 0
 1137 00e8 01A9     		add	r1, sp, #4
 1138 00ea 4FF05F30 		mov	r0, #1600085855
 1139 00ee FFF7FEFF 		bl	int2Bytes
 1140              	.LVL132:
 227:dwm1000.c     **** 			case _5:
 1141              		.loc 1 227 0
 1142 00f2 33E0     		b	.L89
 1143              	.L110:
 229:dwm1000.c     **** 				break;
 1144              		.loc 1 229 0
 1145 00f4 01A9     		add	r1, sp, #4
 1146 00f6 4FF04830 		mov	r0, #1212696648
 1147 00fa FFF7FEFF 		bl	int2Bytes
 1148              	.LVL133:
 230:dwm1000.c     **** 			case _7:
 1149              		.loc 1 230 0
 1150 00fe 2DE0     		b	.L89
 1151              	.L111:
 232:dwm1000.c     **** 				break;
ARM GAS  C:\Users\PIERRE~1\AppData\Local\Temp\ccqD7qlI.s 			page 38


 1152              		.loc 1 232 0
 1153 0100 01A9     		add	r1, sp, #4
 1154 0102 4FF09230 		mov	r0, #-1835887982
 1155 0106 FFF7FEFF 		bl	int2Bytes
 1156              	.LVL134:
 233:dwm1000.c     **** 			}
 1157              		.loc 1 233 0
 1158 010a 27E0     		b	.L89
 1159              	.L105:
 237:dwm1000.c     **** 			case _1: case _2:
 1160              		.loc 1 237 0
 1161 010c 194B     		ldr	r3, .L120
 1162 010e 1B78     		ldrb	r3, [r3]	@ zero_extendqisi2
 1163 0110 013B     		subs	r3, r3, #1
 1164 0112 062B     		cmp	r3, #6
 1165 0114 22D8     		bhi	.L89
 1166 0116 DFE803F0 		tbb	[pc, r3]
 1167              	.L113:
 1168 011a 04       		.byte	(.L112-.L113)/2
 1169 011b 04       		.byte	(.L112-.L113)/2
 1170 011c 0A       		.byte	(.L114-.L113)/2
 1171 011d 10       		.byte	(.L115-.L113)/2
 1172 011e 16       		.byte	(.L116-.L113)/2
 1173 011f 21       		.byte	(.L89-.L113)/2
 1174 0120 1C       		.byte	(.L117-.L113)/2
 1175 0121 00       		.p2align 1
 1176              	.L112:
 239:dwm1000.c     **** 				break;
 1177              		.loc 1 239 0
 1178 0122 01A9     		add	r1, sp, #4
 1179 0124 4FF06730 		mov	r0, #1734829927
 1180 0128 FFF7FEFF 		bl	int2Bytes
 1181              	.LVL135:
 240:dwm1000.c     **** 			case _3:
 1182              		.loc 1 240 0
 1183 012c 16E0     		b	.L89
 1184              	.L114:
 242:dwm1000.c     **** 				break;
 1185              		.loc 1 242 0
 1186 012e 01A9     		add	r1, sp, #4
 1187 0130 4FF08B30 		mov	r0, #-1953789045
 1188 0134 FFF7FEFF 		bl	int2Bytes
 1189              	.LVL136:
 243:dwm1000.c     **** 			case _4:
 1190              		.loc 1 243 0
 1191 0138 10E0     		b	.L89
 1192              	.L115:
 245:dwm1000.c     **** 				break;
 1193              		.loc 1 245 0
 1194 013a 01A9     		add	r1, sp, #4
 1195 013c 4FF09A30 		mov	r0, #-1701143910
 1196 0140 FFF7FEFF 		bl	int2Bytes
 1197              	.LVL137:
 246:dwm1000.c     **** 			case _5:
 1198              		.loc 1 246 0
 1199 0144 0AE0     		b	.L89
 1200              	.L116:
ARM GAS  C:\Users\PIERRE~1\AppData\Local\Temp\ccqD7qlI.s 			page 39


 248:dwm1000.c     **** 				break;
 1201              		.loc 1 248 0
 1202 0146 01A9     		add	r1, sp, #4
 1203 0148 4FF08530 		mov	r0, #-2054847099
 1204 014c FFF7FEFF 		bl	int2Bytes
 1205              	.LVL138:
 249:dwm1000.c     **** 			case _7:
 1206              		.loc 1 249 0
 1207 0150 04E0     		b	.L89
 1208              	.L117:
 251:dwm1000.c     **** 				break;
 1209              		.loc 1 251 0
 1210 0152 01A9     		add	r1, sp, #4
 1211 0154 4FF0D130 		mov	r0, #-774778415
 1212 0158 FFF7FEFF 		bl	int2Bytes
 1213              	.LVL139:
 1214              	.L89:
 258:dwm1000.c     **** }
 1215              		.loc 1 258 0
 1216 015c 0423     		movs	r3, #4
 1217 015e 0DEB0302 		add	r2, sp, r3
 1218 0162 4FF6FF71 		movw	r1, #65535
 1219 0166 1E20     		movs	r0, #30
 1220 0168 FFF7FEFF 		bl	DWM_WriteSPI_ext
 1221              	.LVL140:
 259:dwm1000.c     **** 
 1222              		.loc 1 259 0
 1223 016c 03B0     		add	sp, sp, #12
 1224              		.cfi_def_cfa_offset 4
 1225              		@ sp needed
 1226 016e 5DF804FB 		ldr	pc, [sp], #4
 1227              	.L121:
 1228 0172 00BF     		.align	2
 1229              	.L120:
 1230 0174 00000000 		.word	.LANCHOR0
 1231 0178 75553515 		.word	355816821
 1232 017c 6F4F2F0F 		.word	254758767
 1233 0180 5F3F1F1F 		.word	522141535
 1234 0184 4828080E 		.word	235415624
 1235 0188 92725232 		.word	844264082
 1236 018c 67472707 		.word	120014695
 1237 0190 8B6B4B2B 		.word	726363019
 1238 0194 9A7A5A3A 		.word	979008154
 1239 0198 85654525 		.word	625304965
 1240 019c D1B17151 		.word	1366405585
 1241              		.cfi_endproc
 1242              	.LFE69:
 1243              		.size	TRANSMITTER_UpdateTxPower, .-TRANSMITTER_UpdateTxPower
 1244              		.section	.text.TRANSMITTER_UpdateChannel,"ax",%progbits
 1245              		.align	2
 1246              		.thumb
 1247              		.thumb_func
 1248              		.type	TRANSMITTER_UpdateChannel, %function
 1249              	TRANSMITTER_UpdateChannel:
 1250              	.LFB70:
 261:dwm1000.c     **** 	uint8_t tc[1];
 1251              		.loc 1 261 0
ARM GAS  C:\Users\PIERRE~1\AppData\Local\Temp\ccqD7qlI.s 			page 40


 1252              		.cfi_startproc
 1253              		@ args = 0, pretend = 0, frame = 8
 1254              		@ frame_needed = 0, uses_anonymous_args = 0
 1255 0000 00B5     		push	{lr}
 1256              		.cfi_def_cfa_offset 4
 1257              		.cfi_offset 14, -4
 1258 0002 83B0     		sub	sp, sp, #12
 1259              		.cfi_def_cfa_offset 16
 264:dwm1000.c     **** 		case _1:
 1260              		.loc 1 264 0
 1261 0004 254B     		ldr	r3, .L132
 1262 0006 1B78     		ldrb	r3, [r3]	@ zero_extendqisi2
 1263 0008 013B     		subs	r3, r3, #1
 1264 000a 062B     		cmp	r3, #6
 1265 000c 35D8     		bhi	.L123
 1266 000e DFE803F0 		tbb	[pc, r3]
 1267              	.L125:
 1268 0012 04       		.byte	(.L124-.L125)/2
 1269 0013 0D       		.byte	(.L126-.L125)/2
 1270 0014 15       		.byte	(.L127-.L125)/2
 1271 0015 1D       		.byte	(.L128-.L125)/2
 1272 0016 25       		.byte	(.L129-.L125)/2
 1273 0017 34       		.byte	(.L123-.L125)/2
 1274 0018 2D       		.byte	(.L130-.L125)/2
 1275 0019 00       		.p2align 1
 1276              	.L124:
 266:dwm1000.c     **** 			tc[0] =  0xC9U;
 1277              		.loc 1 266 0
 1278 001a 6946     		mov	r1, sp
 1279 001c 45F64040 		movw	r0, #23616
 1280 0020 FFF7FEFF 		bl	int2Bytes
 1281              	.LVL141:
 267:dwm1000.c     **** 			break;
 1282              		.loc 1 267 0
 1283 0024 C923     		movs	r3, #201
 1284 0026 8DF80430 		strb	r3, [sp, #4]
 268:dwm1000.c     **** 		case _2:
 1285              		.loc 1 268 0
 1286 002a 26E0     		b	.L123
 1287              	.L126:
 270:dwm1000.c     **** 			tc[0] =  0xC2U;
 1288              		.loc 1 270 0
 1289 002c 6946     		mov	r1, sp
 1290 002e 1C48     		ldr	r0, .L132+4
 1291 0030 FFF7FEFF 		bl	int2Bytes
 1292              	.LVL142:
 271:dwm1000.c     **** 			break;
 1293              		.loc 1 271 0
 1294 0034 C223     		movs	r3, #194
 1295 0036 8DF80430 		strb	r3, [sp, #4]
 272:dwm1000.c     **** 		case _3:
 1296              		.loc 1 272 0
 1297 003a 1EE0     		b	.L123
 1298              	.L127:
 274:dwm1000.c     **** 			tc[0] =  0xC5U;
 1299              		.loc 1 274 0
 1300 003c 6946     		mov	r1, sp
ARM GAS  C:\Users\PIERRE~1\AppData\Local\Temp\ccqD7qlI.s 			page 41


 1301 003e 1948     		ldr	r0, .L132+8
 1302 0040 FFF7FEFF 		bl	int2Bytes
 1303              	.LVL143:
 275:dwm1000.c     **** 			break;
 1304              		.loc 1 275 0
 1305 0044 C523     		movs	r3, #197
 1306 0046 8DF80430 		strb	r3, [sp, #4]
 276:dwm1000.c     **** 		case _4:
 1307              		.loc 1 276 0
 1308 004a 16E0     		b	.L123
 1309              	.L128:
 278:dwm1000.c     **** 			tc[0] =  0x95U;
 1310              		.loc 1 278 0
 1311 004c 6946     		mov	r1, sp
 1312 004e 1648     		ldr	r0, .L132+12
 1313 0050 FFF7FEFF 		bl	int2Bytes
 1314              	.LVL144:
 279:dwm1000.c     **** 			break;
 1315              		.loc 1 279 0
 1316 0054 9523     		movs	r3, #149
 1317 0056 8DF80430 		strb	r3, [sp, #4]
 280:dwm1000.c     **** 		case _5:
 1318              		.loc 1 280 0
 1319 005a 0EE0     		b	.L123
 1320              	.L129:
 282:dwm1000.c     **** 			tc[0] =  0xC0U;
 1321              		.loc 1 282 0
 1322 005c 6946     		mov	r1, sp
 1323 005e 1348     		ldr	r0, .L132+16
 1324 0060 FFF7FEFF 		bl	int2Bytes
 1325              	.LVL145:
 283:dwm1000.c     **** 			break;
 1326              		.loc 1 283 0
 1327 0064 C023     		movs	r3, #192
 1328 0066 8DF80430 		strb	r3, [sp, #4]
 284:dwm1000.c     **** 		case _7:
 1329              		.loc 1 284 0
 1330 006a 06E0     		b	.L123
 1331              	.L130:
 286:dwm1000.c     **** 			tc[0] =  0x93U;
 1332              		.loc 1 286 0
 1333 006c 6946     		mov	r1, sp
 1334 006e 1048     		ldr	r0, .L132+20
 1335 0070 FFF7FEFF 		bl	int2Bytes
 1336              	.LVL146:
 287:dwm1000.c     **** 			break;
 1337              		.loc 1 287 0
 1338 0074 9323     		movs	r3, #147
 1339 0076 8DF80430 		strb	r3, [sp, #4]
 1340              	.L123:
 290:dwm1000.c     **** 	DWM_WriteSPI_ext(TX_CAL,  0x0B, tc,  1);
 1341              		.loc 1 290 0
 1342 007a 0323     		movs	r3, #3
 1343 007c 6A46     		mov	r2, sp
 1344 007e 0C21     		movs	r1, #12
 1345 0080 2820     		movs	r0, #40
 1346 0082 FFF7FEFF 		bl	DWM_WriteSPI_ext
ARM GAS  C:\Users\PIERRE~1\AppData\Local\Temp\ccqD7qlI.s 			page 42


 1347              	.LVL147:
 291:dwm1000.c     **** 	TRANSMITTER_UpdateTxPower();
 1348              		.loc 1 291 0
 1349 0086 0123     		movs	r3, #1
 1350 0088 01AA     		add	r2, sp, #4
 1351 008a 0B21     		movs	r1, #11
 1352 008c 2A20     		movs	r0, #42
 1353 008e FFF7FEFF 		bl	DWM_WriteSPI_ext
 1354              	.LVL148:
 292:dwm1000.c     **** }
 1355              		.loc 1 292 0
 1356 0092 FFF7FEFF 		bl	TRANSMITTER_UpdateTxPower
 1357              	.LVL149:
 293:dwm1000.c     **** 
 1358              		.loc 1 293 0
 1359 0096 03B0     		add	sp, sp, #12
 1360              		.cfi_def_cfa_offset 4
 1361              		@ sp needed
 1362 0098 5DF804FB 		ldr	pc, [sp], #4
 1363              	.L133:
 1364              		.align	2
 1365              	.L132:
 1366 009c 00000000 		.word	.LANCHOR0
 1367 00a0 A05C0400 		.word	285856
 1368 00a4 C06C0800 		.word	552128
 1369 00a8 805C0400 		.word	285824
 1370 00ac E03F1E00 		.word	1982432
 1371 00b0 E07D1E00 		.word	1998304
 1372              		.cfi_endproc
 1373              	.LFE70:
 1374              		.size	TRANSMITTER_UpdateChannel, .-TRANSMITTER_UpdateChannel
 1375              		.section	.text.TRANSMITTER_SetChannel,"ax",%progbits
 1376              		.align	2
 1377              		.global	TRANSMITTER_SetChannel
 1378              		.thumb
 1379              		.thumb_func
 1380              		.type	TRANSMITTER_SetChannel, %function
 1381              	TRANSMITTER_SetChannel:
 1382              	.LFB77:
 332:dwm1000.c     **** 	config.transmitter.channel.channel = channel;
 1383              		.loc 1 332 0
 1384              		.cfi_startproc
 1385              		@ args = 0, pretend = 0, frame = 0
 1386              		@ frame_needed = 0, uses_anonymous_args = 0
 1387              	.LVL150:
 1388 0000 10B5     		push	{r4, lr}
 1389              		.cfi_def_cfa_offset 8
 1390              		.cfi_offset 4, -8
 1391              		.cfi_offset 14, -4
 333:dwm1000.c     **** 	if (!CHANNEL_IsValidPreambleCode(&(config.transmitter.channel), config.transmitter.channel.preambl
 1392              		.loc 1 333 0
 1393 0002 074B     		ldr	r3, .L137
 1394 0004 1870     		strb	r0, [r3]
 334:dwm1000.c     **** 		TRANSMITTER_SetPreambleCode(config.transmitter.channel.preambleCode);
 1395              		.loc 1 334 0
 1396 0006 5C78     		ldrb	r4, [r3, #1]	@ zero_extendqisi2
 1397 0008 2146     		mov	r1, r4
ARM GAS  C:\Users\PIERRE~1\AppData\Local\Temp\ccqD7qlI.s 			page 43


 1398 000a 1846     		mov	r0, r3
 1399              	.LVL151:
 1400 000c FFF7FEFF 		bl	CHANNEL_IsValidPreambleCode
 1401              	.LVL152:
 1402 0010 10B9     		cbnz	r0, .L135
 335:dwm1000.c     **** 	}
 1403              		.loc 1 335 0
 1404 0012 2046     		mov	r0, r4
 1405 0014 FFF7FEFF 		bl	TRANSMITTER_SetPreambleCode
 1406              	.LVL153:
 1407              	.L135:
 337:dwm1000.c     **** }
 1408              		.loc 1 337 0
 1409 0018 FFF7FEFF 		bl	TRANSMITTER_UpdateChannel
 1410              	.LVL154:
 1411 001c 10BD     		pop	{r4, pc}
 1412              	.L138:
 1413 001e 00BF     		.align	2
 1414              	.L137:
 1415 0020 00000000 		.word	.LANCHOR0
 1416              		.cfi_endproc
 1417              	.LFE77:
 1418              		.size	TRANSMITTER_SetChannel, .-TRANSMITTER_SetChannel
 1419              		.section	.text.TRANSMITTER_UpdateBitrate,"ax",%progbits
 1420              		.align	2
 1421              		.thumb
 1422              		.thumb_func
 1423              		.type	TRANSMITTER_UpdateBitrate, %function
 1424              	TRANSMITTER_UpdateBitrate:
 1425              	.LFB71:
 295:dwm1000.c     **** 	DWM_WriteSPI_ext(TX_FCTRL,  1, (uint8_t[]){((config.transmitter.channel.bitRate << 5) | (1<<7))}, 
 1426              		.loc 1 295 0
 1427              		.cfi_startproc
 1428              		@ args = 0, pretend = 0, frame = 8
 1429              		@ frame_needed = 0, uses_anonymous_args = 0
 1430 0000 00B5     		push	{lr}
 1431              		.cfi_def_cfa_offset 4
 1432              		.cfi_offset 14, -4
 1433 0002 83B0     		sub	sp, sp, #12
 1434              		.cfi_def_cfa_offset 16
 296:dwm1000.c     **** 	TRANSMITTER_UpdateTxPower();
 1435              		.loc 1 296 0
 1436 0004 084B     		ldr	r3, .L141
 1437 0006 DB78     		ldrb	r3, [r3, #3]	@ zero_extendqisi2
 1438 0008 5B01     		lsls	r3, r3, #5
 1439 000a 63F07F03 		orn	r3, r3, #127
 1440 000e 02AA     		add	r2, sp, #8
 1441 0010 02F8043D 		strb	r3, [r2, #-4]!
 1442 0014 0123     		movs	r3, #1
 1443 0016 1946     		mov	r1, r3
 1444 0018 0820     		movs	r0, #8
 1445 001a FFF7FEFF 		bl	DWM_WriteSPI_ext
 1446              	.LVL155:
 297:dwm1000.c     **** }
 1447              		.loc 1 297 0
 1448 001e FFF7FEFF 		bl	TRANSMITTER_UpdateTxPower
 1449              	.LVL156:
ARM GAS  C:\Users\PIERRE~1\AppData\Local\Temp\ccqD7qlI.s 			page 44


 298:dwm1000.c     **** 
 1450              		.loc 1 298 0
 1451 0022 03B0     		add	sp, sp, #12
 1452              		.cfi_def_cfa_offset 4
 1453              		@ sp needed
 1454 0024 5DF804FB 		ldr	pc, [sp], #4
 1455              	.L142:
 1456              		.align	2
 1457              	.L141:
 1458 0028 00000000 		.word	.LANCHOR0
 1459              		.cfi_endproc
 1460              	.LFE71:
 1461              		.size	TRANSMITTER_UpdateBitrate, .-TRANSMITTER_UpdateBitrate
 1462              		.section	.text.TRANSMITTER_SetBitRate,"ax",%progbits
 1463              		.align	2
 1464              		.global	TRANSMITTER_SetBitRate
 1465              		.thumb
 1466              		.thumb_func
 1467              		.type	TRANSMITTER_SetBitRate, %function
 1468              	TRANSMITTER_SetBitRate:
 1469              	.LFB78:
 340:dwm1000.c     **** 	config.transmitter.channel.bitRate = bitRate;
 1470              		.loc 1 340 0
 1471              		.cfi_startproc
 1472              		@ args = 0, pretend = 0, frame = 0
 1473              		@ frame_needed = 0, uses_anonymous_args = 0
 1474              	.LVL157:
 1475 0000 10B5     		push	{r4, lr}
 1476              		.cfi_def_cfa_offset 8
 1477              		.cfi_offset 4, -8
 1478              		.cfi_offset 14, -4
 341:dwm1000.c     **** 	if (!CHANNEL_IsValidPreambleSize(&(config.transmitter.channel), config.transmitter.channel.preambl
 1479              		.loc 1 341 0
 1480 0002 074B     		ldr	r3, .L146
 1481 0004 D870     		strb	r0, [r3, #3]
 342:dwm1000.c     **** 		TRANSMITTER_SetPreambleSize(config.transmitter.channel.preambleSize);
 1482              		.loc 1 342 0
 1483 0006 9C78     		ldrb	r4, [r3, #2]	@ zero_extendqisi2
 1484 0008 2146     		mov	r1, r4
 1485 000a 1846     		mov	r0, r3
 1486              	.LVL158:
 1487 000c FFF7FEFF 		bl	CHANNEL_IsValidPreambleSize
 1488              	.LVL159:
 1489 0010 10B9     		cbnz	r0, .L144
 343:dwm1000.c     **** 	}
 1490              		.loc 1 343 0
 1491 0012 2046     		mov	r0, r4
 1492 0014 FFF7FEFF 		bl	TRANSMITTER_SetPreambleSize
 1493              	.LVL160:
 1494              	.L144:
 345:dwm1000.c     **** }
 1495              		.loc 1 345 0
 1496 0018 FFF7FEFF 		bl	TRANSMITTER_UpdateBitrate
 1497              	.LVL161:
 1498 001c 10BD     		pop	{r4, pc}
 1499              	.L147:
 1500 001e 00BF     		.align	2
ARM GAS  C:\Users\PIERRE~1\AppData\Local\Temp\ccqD7qlI.s 			page 45


 1501              	.L146:
 1502 0020 00000000 		.word	.LANCHOR0
 1503              		.cfi_endproc
 1504              	.LFE78:
 1505              		.size	TRANSMITTER_SetBitRate, .-TRANSMITTER_SetBitRate
 1506              		.section	.text.TRANSMITTER_UpdatePrf,"ax",%progbits
 1507              		.align	2
 1508              		.thumb
 1509              		.thumb_func
 1510              		.type	TRANSMITTER_UpdatePrf, %function
 1511              	TRANSMITTER_UpdatePrf:
 1512              	.LFB74:
 316:dwm1000.c     **** 	DWM_WriteSPI_ext(TX_FCTRL, 2, (uint8_t[]){(config.transmitter.channel.prf |
 1513              		.loc 1 316 0
 1514              		.cfi_startproc
 1515              		@ args = 0, pretend = 0, frame = 8
 1516              		@ frame_needed = 0, uses_anonymous_args = 0
 1517 0000 00B5     		push	{lr}
 1518              		.cfi_def_cfa_offset 4
 1519              		.cfi_offset 14, -4
 1520 0002 83B0     		sub	sp, sp, #12
 1521              		.cfi_def_cfa_offset 16
 317:dwm1000.c     **** 			(config.transmitter.channel.preambleSize << 2))}, 1);
 1522              		.loc 1 317 0
 1523 0004 084A     		ldr	r2, .L150
 1524 0006 1379     		ldrb	r3, [r2, #4]	@ zero_extendqisi2
 318:dwm1000.c     **** 	TRANSMITTER_UpdateTxPower();
 1525              		.loc 1 318 0
 1526 0008 9278     		ldrb	r2, [r2, #2]	@ zero_extendqisi2
 317:dwm1000.c     **** 			(config.transmitter.channel.preambleSize << 2))}, 1);
 1527              		.loc 1 317 0
 1528 000a 43EA8203 		orr	r3, r3, r2, lsl #2
 1529 000e 02AA     		add	r2, sp, #8
 1530 0010 02F8043D 		strb	r3, [r2, #-4]!
 1531 0014 0123     		movs	r3, #1
 1532 0016 0221     		movs	r1, #2
 1533 0018 0820     		movs	r0, #8
 1534 001a FFF7FEFF 		bl	DWM_WriteSPI_ext
 1535              	.LVL162:
 319:dwm1000.c     **** }
 1536              		.loc 1 319 0
 1537 001e FFF7FEFF 		bl	TRANSMITTER_UpdateTxPower
 1538              	.LVL163:
 320:dwm1000.c     **** 
 1539              		.loc 1 320 0
 1540 0022 03B0     		add	sp, sp, #12
 1541              		.cfi_def_cfa_offset 4
 1542              		@ sp needed
 1543 0024 5DF804FB 		ldr	pc, [sp], #4
 1544              	.L151:
 1545              		.align	2
 1546              	.L150:
 1547 0028 00000000 		.word	.LANCHOR0
 1548              		.cfi_endproc
 1549              	.LFE74:
 1550              		.size	TRANSMITTER_UpdatePrf, .-TRANSMITTER_UpdatePrf
 1551              		.section	.text.TRANSMITTER_SetPrf,"ax",%progbits
ARM GAS  C:\Users\PIERRE~1\AppData\Local\Temp\ccqD7qlI.s 			page 46


 1552              		.align	2
 1553              		.global	TRANSMITTER_SetPrf
 1554              		.thumb
 1555              		.thumb_func
 1556              		.type	TRANSMITTER_SetPrf, %function
 1557              	TRANSMITTER_SetPrf:
 1558              	.LFB79:
 348:dwm1000.c     **** 	config.transmitter.channel.prf = prf;
 1559              		.loc 1 348 0
 1560              		.cfi_startproc
 1561              		@ args = 0, pretend = 0, frame = 0
 1562              		@ frame_needed = 0, uses_anonymous_args = 0
 1563              	.LVL164:
 1564 0000 10B5     		push	{r4, lr}
 1565              		.cfi_def_cfa_offset 8
 1566              		.cfi_offset 4, -8
 1567              		.cfi_offset 14, -4
 349:dwm1000.c     **** 	if (!CHANNEL_IsValidPreambleCode(&(config.transmitter.channel), config.transmitter.channel.preambl
 1568              		.loc 1 349 0
 1569 0002 074B     		ldr	r3, .L155
 1570 0004 1871     		strb	r0, [r3, #4]
 350:dwm1000.c     **** 		TRANSMITTER_SetPreambleCode(config.transmitter.channel.preambleCode);
 1571              		.loc 1 350 0
 1572 0006 5C78     		ldrb	r4, [r3, #1]	@ zero_extendqisi2
 1573 0008 2146     		mov	r1, r4
 1574 000a 1846     		mov	r0, r3
 1575              	.LVL165:
 1576 000c FFF7FEFF 		bl	CHANNEL_IsValidPreambleCode
 1577              	.LVL166:
 1578 0010 10B9     		cbnz	r0, .L153
 351:dwm1000.c     **** 	}
 1579              		.loc 1 351 0
 1580 0012 2046     		mov	r0, r4
 1581 0014 FFF7FEFF 		bl	TRANSMITTER_SetPreambleCode
 1582              	.LVL167:
 1583              	.L153:
 353:dwm1000.c     **** }
 1584              		.loc 1 353 0
 1585 0018 FFF7FEFF 		bl	TRANSMITTER_UpdatePrf
 1586              	.LVL168:
 1587 001c 10BD     		pop	{r4, pc}
 1588              	.L156:
 1589 001e 00BF     		.align	2
 1590              	.L155:
 1591 0020 00000000 		.word	.LANCHOR0
 1592              		.cfi_endproc
 1593              	.LFE79:
 1594              		.size	TRANSMITTER_SetPrf, .-TRANSMITTER_SetPrf
 1595              		.section	.text.TRANSMITTER_Init,"ax",%progbits
 1596              		.align	2
 1597              		.thumb
 1598              		.thumb_func
 1599              		.type	TRANSMITTER_Init, %function
 1600              	TRANSMITTER_Init:
 1601              	.LFB80:
 356:dwm1000.c     **** 	CHANNEL_Init(&(config.transmitter.channel));
 1602              		.loc 1 356 0
ARM GAS  C:\Users\PIERRE~1\AppData\Local\Temp\ccqD7qlI.s 			page 47


 1603              		.cfi_startproc
 1604              		@ args = 0, pretend = 0, frame = 0
 1605              		@ frame_needed = 0, uses_anonymous_args = 0
 1606 0000 08B5     		push	{r3, lr}
 1607              		.cfi_def_cfa_offset 8
 1608              		.cfi_offset 3, -8
 1609              		.cfi_offset 14, -4
 357:dwm1000.c     **** 	TRANSMITTER_UpdateChannel();
 1610              		.loc 1 357 0
 1611 0002 0748     		ldr	r0, .L159
 1612 0004 FFF7FEFF 		bl	CHANNEL_Init
 1613              	.LVL169:
 358:dwm1000.c     **** 	TRANSMITTER_UpdateBitrate();
 1614              		.loc 1 358 0
 1615 0008 FFF7FEFF 		bl	TRANSMITTER_UpdateChannel
 1616              	.LVL170:
 359:dwm1000.c     **** 	TRANSMITTER_UpdatePrf();
 1617              		.loc 1 359 0
 1618 000c FFF7FEFF 		bl	TRANSMITTER_UpdateBitrate
 1619              	.LVL171:
 360:dwm1000.c     **** 	TRANSMITTER_UpdatePreambleCode();
 1620              		.loc 1 360 0
 1621 0010 FFF7FEFF 		bl	TRANSMITTER_UpdatePrf
 1622              	.LVL172:
 361:dwm1000.c     **** 	TRANSMITTER_UpdatePreambleSize();
 1623              		.loc 1 361 0
 1624 0014 FFF7FEFF 		bl	TRANSMITTER_UpdatePreambleCode
 1625              	.LVL173:
 362:dwm1000.c     **** }
 1626              		.loc 1 362 0
 1627 0018 FFF7FEFF 		bl	TRANSMITTER_UpdatePreambleSize
 1628              	.LVL174:
 1629 001c 08BD     		pop	{r3, pc}
 1630              	.L160:
 1631 001e 00BF     		.align	2
 1632              	.L159:
 1633 0020 00000000 		.word	.LANCHOR0
 1634              		.cfi_endproc
 1635              	.LFE80:
 1636              		.size	TRANSMITTER_Init, .-TRANSMITTER_Init
 1637              		.section	.text.RECEIVER_UpdatePreambleCode,"ax",%progbits
 1638              		.align	2
 1639              		.thumb
 1640              		.thumb_func
 1641              		.type	RECEIVER_UpdatePreambleCode, %function
 1642              	RECEIVER_UpdatePreambleCode:
 1643              	.LFB86:
 493:dwm1000.c     **** 	uint8_t chan[1];
 1644              		.loc 1 493 0
 1645              		.cfi_startproc
 1646              		@ args = 0, pretend = 0, frame = 8
 1647              		@ frame_needed = 0, uses_anonymous_args = 0
 1648 0000 00B5     		push	{lr}
 1649              		.cfi_def_cfa_offset 4
 1650              		.cfi_offset 14, -4
 1651 0002 83B0     		sub	sp, sp, #12
 1652              		.cfi_def_cfa_offset 16
ARM GAS  C:\Users\PIERRE~1\AppData\Local\Temp\ccqD7qlI.s 			page 48


 495:dwm1000.c     **** 	uint8_t preambleCode = config.receiver.channel.preambleCode;
 1653              		.loc 1 495 0
 1654 0004 0123     		movs	r3, #1
 1655 0006 01AA     		add	r2, sp, #4
 1656 0008 0321     		movs	r1, #3
 1657 000a 1F20     		movs	r0, #31
 1658 000c FFF7FEFF 		bl	DWM_ReadSPI_ext
 1659              	.LVL175:
 496:dwm1000.c     **** 	chan[0] &= 0x07;
 1660              		.loc 1 496 0
 1661 0010 094B     		ldr	r3, .L163
 1662 0012 DA79     		ldrb	r2, [r3, #7]	@ zero_extendqisi2
 1663              	.LVL176:
 497:dwm1000.c     **** 	chan[0] |= preambleCode << 3;
 1664              		.loc 1 497 0
 1665 0014 9DF80430 		ldrb	r3, [sp, #4]	@ zero_extendqisi2
 1666 0018 03F00703 		and	r3, r3, #7
 498:dwm1000.c     **** 	DWM_WriteSPI_ext(CHAN_CTRL, 3, chan, 1);
 1667              		.loc 1 498 0
 1668 001c 43EAC203 		orr	r3, r3, r2, lsl #3
 1669 0020 8DF80430 		strb	r3, [sp, #4]
 499:dwm1000.c     **** }
 1670              		.loc 1 499 0
 1671 0024 0123     		movs	r3, #1
 1672 0026 01AA     		add	r2, sp, #4
 1673              	.LVL177:
 1674 0028 0321     		movs	r1, #3
 1675 002a 1F20     		movs	r0, #31
 1676 002c FFF7FEFF 		bl	DWM_WriteSPI_ext
 1677              	.LVL178:
 500:dwm1000.c     **** 
 1678              		.loc 1 500 0
 1679 0030 03B0     		add	sp, sp, #12
 1680              		.cfi_def_cfa_offset 4
 1681              		@ sp needed
 1682 0032 5DF804FB 		ldr	pc, [sp], #4
 1683              	.L164:
 1684 0036 00BF     		.align	2
 1685              	.L163:
 1686 0038 00000000 		.word	.LANCHOR0
 1687              		.cfi_endproc
 1688              	.LFE86:
 1689              		.size	RECEIVER_UpdatePreambleCode, .-RECEIVER_UpdatePreambleCode
 1690              		.section	.text.RECEIVER_SetPreambleCode,"ax",%progbits
 1691              		.align	2
 1692              		.global	RECEIVER_SetPreambleCode
 1693              		.thumb
 1694              		.thumb_func
 1695              		.type	RECEIVER_SetPreambleCode, %function
 1696              	RECEIVER_SetPreambleCode:
 1697              	.LFB89:
 552:dwm1000.c     **** 	config.receiver.channel.preambleCode = CHANNEL_ValidPreambleCode(&(config.receiver.channel), pream
 1698              		.loc 1 552 0
 1699              		.cfi_startproc
 1700              		@ args = 0, pretend = 0, frame = 0
 1701              		@ frame_needed = 0, uses_anonymous_args = 0
 1702              	.LVL179:
ARM GAS  C:\Users\PIERRE~1\AppData\Local\Temp\ccqD7qlI.s 			page 49


 1703 0000 10B5     		push	{r4, lr}
 1704              		.cfi_def_cfa_offset 8
 1705              		.cfi_offset 4, -8
 1706              		.cfi_offset 14, -4
 553:dwm1000.c     **** 	RECEIVER_UpdatePreambleCode();
 1707              		.loc 1 553 0
 1708 0002 044C     		ldr	r4, .L167
 1709 0004 0146     		mov	r1, r0
 1710 0006 A01D     		adds	r0, r4, #6
 1711              	.LVL180:
 1712 0008 FFF7FEFF 		bl	CHANNEL_ValidPreambleCode
 1713              	.LVL181:
 1714 000c E071     		strb	r0, [r4, #7]
 554:dwm1000.c     **** }
 1715              		.loc 1 554 0
 1716 000e FFF7FEFF 		bl	RECEIVER_UpdatePreambleCode
 1717              	.LVL182:
 1718 0012 10BD     		pop	{r4, pc}
 1719              	.L168:
 1720              		.align	2
 1721              	.L167:
 1722 0014 00000000 		.word	.LANCHOR0
 1723              		.cfi_endproc
 1724              	.LFE89:
 1725              		.size	RECEIVER_SetPreambleCode, .-RECEIVER_SetPreambleCode
 1726              		.section	.text.RECEIVER_UpdatePacSize,"ax",%progbits
 1727              		.align	2
 1728              		.thumb
 1729              		.thumb_func
 1730              		.type	RECEIVER_UpdatePacSize, %function
 1731              	RECEIVER_UpdatePacSize:
 1732              	.LFB82:
 400:dwm1000.c     **** 	uint8_t drxTune2[4];
 1733              		.loc 1 400 0
 1734              		.cfi_startproc
 1735              		@ args = 0, pretend = 0, frame = 8
 1736              		@ frame_needed = 0, uses_anonymous_args = 0
 1737 0000 00B5     		push	{lr}
 1738              		.cfi_def_cfa_offset 4
 1739              		.cfi_offset 14, -4
 1740 0002 83B0     		sub	sp, sp, #12
 1741              		.cfi_def_cfa_offset 16
 402:dwm1000.c     **** 	case _16MHZ:
 1742              		.loc 1 402 0
 1743 0004 354B     		ldr	r3, .L184
 1744 0006 9B7A     		ldrb	r3, [r3, #10]	@ zero_extendqisi2
 1745 0008 012B     		cmp	r3, #1
 1746 000a 02D0     		beq	.L171
 1747 000c 022B     		cmp	r3, #2
 1748 000e 2ED0     		beq	.L172
 1749 0010 5AE0     		b	.L170
 1750              	.L171:
 404:dwm1000.c     **** 		case _64: case _128:
 1751              		.loc 1 404 0
 1752 0012 324B     		ldr	r3, .L184
 1753 0014 1B7A     		ldrb	r3, [r3, #8]	@ zero_extendqisi2
 1754 0016 013B     		subs	r3, r3, #1
ARM GAS  C:\Users\PIERRE~1\AppData\Local\Temp\ccqD7qlI.s 			page 50


 1755 0018 0C2B     		cmp	r3, #12
 1756 001a 55D8     		bhi	.L170
 1757 001c DFE803F0 		tbb	[pc, r3]
 1758              	.L174:
 1759 0020 07       		.byte	(.L173-.L174)/2
 1760 0021 17       		.byte	(.L175-.L174)/2
 1761 0022 1F       		.byte	(.L176-.L174)/2
 1762 0023 54       		.byte	(.L170-.L174)/2
 1763 0024 07       		.byte	(.L173-.L174)/2
 1764 0025 1F       		.byte	(.L176-.L174)/2
 1765 0026 54       		.byte	(.L170-.L174)/2
 1766 0027 54       		.byte	(.L170-.L174)/2
 1767 0028 0F       		.byte	(.L177-.L174)/2
 1768 0029 1F       		.byte	(.L176-.L174)/2
 1769 002a 54       		.byte	(.L170-.L174)/2
 1770 002b 54       		.byte	(.L170-.L174)/2
 1771 002c 0F       		.byte	(.L177-.L174)/2
 1772 002d 00       		.p2align 1
 1773              	.L173:
 406:dwm1000.c     **** 			config.receiver.pac = 8;
 1774              		.loc 1 406 0
 1775 002e 01A9     		add	r1, sp, #4
 1776 0030 2B48     		ldr	r0, .L184+4
 1777 0032 FFF7FEFF 		bl	int2Bytes
 1778              	.LVL183:
 407:dwm1000.c     **** 			break;
 1779              		.loc 1 407 0
 1780 0036 0822     		movs	r2, #8
 1781 0038 284B     		ldr	r3, .L184
 1782 003a DA81     		strh	r2, [r3, #14]	@ movhi
 408:dwm1000.c     **** 		case _256: case _512:
 1783              		.loc 1 408 0
 1784 003c 44E0     		b	.L170
 1785              	.L177:
 410:dwm1000.c     **** 			config.receiver.pac = 16;
 1786              		.loc 1 410 0
 1787 003e 01A9     		add	r1, sp, #4
 1788 0040 2848     		ldr	r0, .L184+8
 1789 0042 FFF7FEFF 		bl	int2Bytes
 1790              	.LVL184:
 411:dwm1000.c     **** 			break;
 1791              		.loc 1 411 0
 1792 0046 1022     		movs	r2, #16
 1793 0048 244B     		ldr	r3, .L184
 1794 004a DA81     		strh	r2, [r3, #14]	@ movhi
 412:dwm1000.c     **** 		case _1024:
 1795              		.loc 1 412 0
 1796 004c 3CE0     		b	.L170
 1797              	.L175:
 414:dwm1000.c     **** 			config.receiver.pac = 32;
 1798              		.loc 1 414 0
 1799 004e 01A9     		add	r1, sp, #4
 1800 0050 2548     		ldr	r0, .L184+12
 1801 0052 FFF7FEFF 		bl	int2Bytes
 1802              	.LVL185:
 415:dwm1000.c     **** 			break;
 1803              		.loc 1 415 0
ARM GAS  C:\Users\PIERRE~1\AppData\Local\Temp\ccqD7qlI.s 			page 51


 1804 0056 2022     		movs	r2, #32
 1805 0058 204B     		ldr	r3, .L184
 1806 005a DA81     		strh	r2, [r3, #14]	@ movhi
 416:dwm1000.c     **** 		case _1536: case _2048: case _4096:
 1807              		.loc 1 416 0
 1808 005c 34E0     		b	.L170
 1809              	.L176:
 418:dwm1000.c     **** 			config.receiver.pac = 64;
 1810              		.loc 1 418 0
 1811 005e 01A9     		add	r1, sp, #4
 1812 0060 2248     		ldr	r0, .L184+16
 1813 0062 FFF7FEFF 		bl	int2Bytes
 1814              	.LVL186:
 419:dwm1000.c     **** 			break;
 1815              		.loc 1 419 0
 1816 0066 4022     		movs	r2, #64
 1817 0068 1C4B     		ldr	r3, .L184
 1818 006a DA81     		strh	r2, [r3, #14]	@ movhi
 420:dwm1000.c     **** 		}
 1819              		.loc 1 420 0
 1820 006c 2CE0     		b	.L170
 1821              	.L172:
 424:dwm1000.c     **** 		case _64: case _128:
 1822              		.loc 1 424 0
 1823 006e 1B4B     		ldr	r3, .L184
 1824 0070 1B7A     		ldrb	r3, [r3, #8]	@ zero_extendqisi2
 1825 0072 013B     		subs	r3, r3, #1
 1826 0074 0C2B     		cmp	r3, #12
 1827 0076 27D8     		bhi	.L170
 1828 0078 DFE803F0 		tbb	[pc, r3]
 1829              	.L179:
 1830 007c 07       		.byte	(.L178-.L179)/2
 1831 007d 17       		.byte	(.L180-.L179)/2
 1832 007e 1F       		.byte	(.L181-.L179)/2
 1833 007f 26       		.byte	(.L170-.L179)/2
 1834 0080 07       		.byte	(.L178-.L179)/2
 1835 0081 1F       		.byte	(.L181-.L179)/2
 1836 0082 26       		.byte	(.L170-.L179)/2
 1837 0083 26       		.byte	(.L170-.L179)/2
 1838 0084 0F       		.byte	(.L182-.L179)/2
 1839 0085 1F       		.byte	(.L181-.L179)/2
 1840 0086 26       		.byte	(.L170-.L179)/2
 1841 0087 26       		.byte	(.L170-.L179)/2
 1842 0088 0F       		.byte	(.L182-.L179)/2
 1843 0089 00       		.p2align 1
 1844              	.L178:
 426:dwm1000.c     **** 			config.receiver.pac = 8;
 1845              		.loc 1 426 0
 1846 008a 01A9     		add	r1, sp, #4
 1847 008c 1848     		ldr	r0, .L184+20
 1848 008e FFF7FEFF 		bl	int2Bytes
 1849              	.LVL187:
 427:dwm1000.c     **** 			break;
 1850              		.loc 1 427 0
 1851 0092 0822     		movs	r2, #8
 1852 0094 114B     		ldr	r3, .L184
 1853 0096 DA81     		strh	r2, [r3, #14]	@ movhi
ARM GAS  C:\Users\PIERRE~1\AppData\Local\Temp\ccqD7qlI.s 			page 52


 428:dwm1000.c     **** 		case _256: case _512:
 1854              		.loc 1 428 0
 1855 0098 16E0     		b	.L170
 1856              	.L182:
 430:dwm1000.c     **** 			config.receiver.pac = 16;
 1857              		.loc 1 430 0
 1858 009a 01A9     		add	r1, sp, #4
 1859 009c 1548     		ldr	r0, .L184+24
 1860 009e FFF7FEFF 		bl	int2Bytes
 1861              	.LVL188:
 431:dwm1000.c     **** 			break;
 1862              		.loc 1 431 0
 1863 00a2 1022     		movs	r2, #16
 1864 00a4 0D4B     		ldr	r3, .L184
 1865 00a6 DA81     		strh	r2, [r3, #14]	@ movhi
 432:dwm1000.c     **** 		case _1024:
 1866              		.loc 1 432 0
 1867 00a8 0EE0     		b	.L170
 1868              	.L180:
 434:dwm1000.c     **** 			config.receiver.pac = 32;
 1869              		.loc 1 434 0
 1870 00aa 01A9     		add	r1, sp, #4
 1871 00ac 1248     		ldr	r0, .L184+28
 1872 00ae FFF7FEFF 		bl	int2Bytes
 1873              	.LVL189:
 435:dwm1000.c     **** 			break;
 1874              		.loc 1 435 0
 1875 00b2 2022     		movs	r2, #32
 1876 00b4 094B     		ldr	r3, .L184
 1877 00b6 DA81     		strh	r2, [r3, #14]	@ movhi
 436:dwm1000.c     **** 		case _1536: case _2048: case _4096:
 1878              		.loc 1 436 0
 1879 00b8 06E0     		b	.L170
 1880              	.L181:
 438:dwm1000.c     **** 			config.receiver.pac = 64;
 1881              		.loc 1 438 0
 1882 00ba 01A9     		add	r1, sp, #4
 1883 00bc 0F48     		ldr	r0, .L184+32
 1884 00be FFF7FEFF 		bl	int2Bytes
 1885              	.LVL190:
 439:dwm1000.c     **** 			break;
 1886              		.loc 1 439 0
 1887 00c2 4022     		movs	r2, #64
 1888 00c4 054B     		ldr	r3, .L184
 1889 00c6 DA81     		strh	r2, [r3, #14]	@ movhi
 1890              	.L170:
 444:dwm1000.c     **** }
 1891              		.loc 1 444 0
 1892 00c8 0423     		movs	r3, #4
 1893 00ca 0DEB0302 		add	r2, sp, r3
 1894 00ce 0821     		movs	r1, #8
 1895 00d0 2720     		movs	r0, #39
 1896 00d2 FFF7FEFF 		bl	DWM_WriteSPI_ext
 1897              	.LVL191:
 445:dwm1000.c     **** 
 1898              		.loc 1 445 0
 1899 00d6 03B0     		add	sp, sp, #12
ARM GAS  C:\Users\PIERRE~1\AppData\Local\Temp\ccqD7qlI.s 			page 53


 1900              		.cfi_def_cfa_offset 4
 1901              		@ sp needed
 1902 00d8 5DF804FB 		ldr	pc, [sp], #4
 1903              	.L185:
 1904              		.align	2
 1905              	.L184:
 1906 00dc 00000000 		.word	.LANCHOR0
 1907 00e0 2D001A31 		.word	823787565
 1908 00e4 52001A33 		.word	857342034
 1909 00e8 9A001A35 		.word	890896538
 1910 00ec 1D011A37 		.word	924451101
 1911 00f0 6B003B31 		.word	825950315
 1912 00f4 BE003B33 		.word	859504830
 1913 00f8 5E013B35 		.word	893059422
 1914 00fc 96023B37 		.word	926614166
 1915              		.cfi_endproc
 1916              	.LFE82:
 1917              		.size	RECEIVER_UpdatePacSize, .-RECEIVER_UpdatePacSize
 1918              		.section	.text.RECEIVER_UpdateSFDTimeout,"ax",%progbits
 1919              		.align	2
 1920              		.thumb
 1921              		.thumb_func
 1922              		.type	RECEIVER_UpdateSFDTimeout, %function
 1923              	RECEIVER_UpdateSFDTimeout:
 1924              	.LFB81:
 365:dwm1000.c     **** 	uint16_t preambleSize = 4096;
 1925              		.loc 1 365 0
 1926              		.cfi_startproc
 1927              		@ args = 0, pretend = 0, frame = 8
 1928              		@ frame_needed = 0, uses_anonymous_args = 0
 1929 0000 00B5     		push	{lr}
 1930              		.cfi_def_cfa_offset 4
 1931              		.cfi_offset 14, -4
 1932 0002 83B0     		sub	sp, sp, #12
 1933              		.cfi_def_cfa_offset 16
 1934              	.LVL192:
 368:dwm1000.c     **** 		case _64:
 1935              		.loc 1 368 0
 1936 0004 1A4B     		ldr	r3, .L198
 1937 0006 1B7A     		ldrb	r3, [r3, #8]	@ zero_extendqisi2
 1938 0008 013B     		subs	r3, r3, #1
 1939 000a 0C2B     		cmp	r3, #12
 1940 000c 08D8     		bhi	.L187
 1941 000e DFE803F0 		tbb	[pc, r3]
 1942              	.L189:
 1943 0012 1B       		.byte	(.L196-.L189)/2
 1944 0013 12       		.byte	(.L190-.L189)/2
 1945 0014 07       		.byte	(.L187-.L189)/2
 1946 0015 07       		.byte	(.L187-.L189)/2
 1947 0016 0A       		.byte	(.L191-.L189)/2
 1948 0017 15       		.byte	(.L192-.L189)/2
 1949 0018 07       		.byte	(.L187-.L189)/2
 1950 0019 07       		.byte	(.L187-.L189)/2
 1951 001a 0C       		.byte	(.L193-.L189)/2
 1952 001b 18       		.byte	(.L194-.L189)/2
 1953 001c 07       		.byte	(.L187-.L189)/2
 1954 001d 07       		.byte	(.L187-.L189)/2
ARM GAS  C:\Users\PIERRE~1\AppData\Local\Temp\ccqD7qlI.s 			page 54


 1955 001e 0F       		.byte	(.L195-.L189)/2
 1956 001f 00       		.p2align 1
 1957              	.L187:
 366:dwm1000.c     **** 	uint8_t timeout[2];
 1958              		.loc 1 366 0
 1959 0020 4FF48050 		mov	r0, #4096
 1960 0024 11E0     		b	.L188
 1961              	.L191:
 1962              	.LVL193:
 373:dwm1000.c     **** 			break;
 1963              		.loc 1 373 0
 1964 0026 8020     		movs	r0, #128
 374:dwm1000.c     **** 		case _256:
 1965              		.loc 1 374 0
 1966 0028 0FE0     		b	.L188
 1967              	.LVL194:
 1968              	.L193:
 376:dwm1000.c     **** 			break;
 1969              		.loc 1 376 0
 1970 002a 4FF48070 		mov	r0, #256
 377:dwm1000.c     **** 		case _512:
 1971              		.loc 1 377 0
 1972 002e 0CE0     		b	.L188
 1973              	.LVL195:
 1974              	.L195:
 379:dwm1000.c     **** 			break;
 1975              		.loc 1 379 0
 1976 0030 4FF40070 		mov	r0, #512
 380:dwm1000.c     **** 		case _1024:
 1977              		.loc 1 380 0
 1978 0034 09E0     		b	.L188
 1979              	.LVL196:
 1980              	.L190:
 382:dwm1000.c     **** 			break;
 1981              		.loc 1 382 0
 1982 0036 4FF48060 		mov	r0, #1024
 383:dwm1000.c     **** 		case _1536:
 1983              		.loc 1 383 0
 1984 003a 06E0     		b	.L188
 1985              	.LVL197:
 1986              	.L192:
 385:dwm1000.c     **** 			break;
 1987              		.loc 1 385 0
 1988 003c 4FF4C060 		mov	r0, #1536
 386:dwm1000.c     **** 		case _2048:
 1989              		.loc 1 386 0
 1990 0040 03E0     		b	.L188
 1991              	.LVL198:
 1992              	.L194:
 388:dwm1000.c     **** 			break;
 1993              		.loc 1 388 0
 1994 0042 4FF40060 		mov	r0, #2048
 389:dwm1000.c     **** 		case _4096:
 1995              		.loc 1 389 0
 1996 0046 00E0     		b	.L188
 1997              	.LVL199:
 1998              	.L196:
ARM GAS  C:\Users\PIERRE~1\AppData\Local\Temp\ccqD7qlI.s 			page 55


 370:dwm1000.c     **** 			break;
 1999              		.loc 1 370 0
 2000 0048 4020     		movs	r0, #64
 2001              	.LVL200:
 2002              	.L188:
 394:dwm1000.c     ****         DWM_WriteSPI_ext(DRX_CONF, 0x20, timeout, 2);
 2003              		.loc 1 394 0
 2004 004a 094A     		ldr	r2, .L198
 2005 004c 138A     		ldrh	r3, [r2, #16]
 2006 004e D289     		ldrh	r2, [r2, #14]
 2007 0050 1844     		add	r0, r0, r3
 2008              	.LVL201:
 2009 0052 801A     		subs	r0, r0, r2
 2010 0054 0130     		adds	r0, r0, #1
 2011 0056 01A9     		add	r1, sp, #4
 2012 0058 80B2     		uxth	r0, r0
 2013 005a FFF7FEFF 		bl	short2Bytes
 2014              	.LVL202:
 395:dwm1000.c     ****         //uint8 TimeOutPreambule[2]={0x00,0x00};
 2015              		.loc 1 395 0
 2016 005e 0223     		movs	r3, #2
 2017 0060 01AA     		add	r2, sp, #4
 2018 0062 2021     		movs	r1, #32
 2019 0064 2720     		movs	r0, #39
 2020 0066 FFF7FEFF 		bl	DWM_WriteSPI_ext
 2021              	.LVL203:
 398:dwm1000.c     **** 
 2022              		.loc 1 398 0
 2023 006a 03B0     		add	sp, sp, #12
 2024              		.cfi_def_cfa_offset 4
 2025              		@ sp needed
 2026 006c 5DF804FB 		ldr	pc, [sp], #4
 2027              	.L199:
 2028              		.align	2
 2029              	.L198:
 2030 0070 00000000 		.word	.LANCHOR0
 2031              		.cfi_endproc
 2032              	.LFE81:
 2033              		.size	RECEIVER_UpdateSFDTimeout, .-RECEIVER_UpdateSFDTimeout
 2034              		.section	.text.RECEIVER_UpdatePreambleSize,"ax",%progbits
 2035              		.align	2
 2036              		.thumb
 2037              		.thumb_func
 2038              		.type	RECEIVER_UpdatePreambleSize, %function
 2039              	RECEIVER_UpdatePreambleSize:
 2040              	.LFB87:
 502:dwm1000.c     **** 	uint8_t drx_tune1b[2] = {0};
 2041              		.loc 1 502 0
 2042              		.cfi_startproc
 2043              		@ args = 0, pretend = 0, frame = 8
 2044              		@ frame_needed = 0, uses_anonymous_args = 0
 2045 0000 00B5     		push	{lr}
 2046              		.cfi_def_cfa_offset 4
 2047              		.cfi_offset 14, -4
 2048 0002 83B0     		sub	sp, sp, #12
 2049              		.cfi_def_cfa_offset 16
 503:dwm1000.c     **** 	uint8_t drx_tune4h[2] = {0};
ARM GAS  C:\Users\PIERRE~1\AppData\Local\Temp\ccqD7qlI.s 			page 56


 2050              		.loc 1 503 0
 2051 0004 0023     		movs	r3, #0
 2052 0006 ADF80430 		strh	r3, [sp, #4]	@ movhi
 504:dwm1000.c     **** 	switch (config.receiver.channel.preambleSize) {
 2053              		.loc 1 504 0
 2054 000a ADF80030 		strh	r3, [sp]	@ movhi
 505:dwm1000.c     **** 	case _64:
 2055              		.loc 1 505 0
 2056 000e 1D4B     		ldr	r3, .L207
 2057 0010 1B7A     		ldrb	r3, [r3, #8]	@ zero_extendqisi2
 2058 0012 013B     		subs	r3, r3, #1
 2059 0014 0C2B     		cmp	r3, #12
 2060 0016 22D8     		bhi	.L201
 2061 0018 DFE803F0 		tbb	[pc, r3]
 2062              	.L203:
 2063 001c 07       		.byte	(.L202-.L203)/2
 2064 001d 10       		.byte	(.L204-.L203)/2
 2065 001e 19       		.byte	(.L205-.L203)/2
 2066 001f 21       		.byte	(.L201-.L203)/2
 2067 0020 10       		.byte	(.L204-.L203)/2
 2068 0021 19       		.byte	(.L205-.L203)/2
 2069 0022 21       		.byte	(.L201-.L203)/2
 2070 0023 21       		.byte	(.L201-.L203)/2
 2071 0024 10       		.byte	(.L204-.L203)/2
 2072 0025 19       		.byte	(.L205-.L203)/2
 2073 0026 21       		.byte	(.L201-.L203)/2
 2074 0027 21       		.byte	(.L201-.L203)/2
 2075 0028 10       		.byte	(.L204-.L203)/2
 2076 0029 00       		.p2align 1
 2077              	.L202:
 507:dwm1000.c     **** 		short2Bytes(0x0010, drx_tune4h);
 2078              		.loc 1 507 0
 2079 002a 01A9     		add	r1, sp, #4
 2080 002c 1020     		movs	r0, #16
 2081 002e FFF7FEFF 		bl	short2Bytes
 2082              	.LVL204:
 508:dwm1000.c     **** 		break;
 2083              		.loc 1 508 0
 2084 0032 6946     		mov	r1, sp
 2085 0034 1020     		movs	r0, #16
 2086 0036 FFF7FEFF 		bl	short2Bytes
 2087              	.LVL205:
 509:dwm1000.c     **** 	case _128: case _256: case _512: case _1024:	// for 850 kbps & 6800 kbps
 2088              		.loc 1 509 0
 2089 003a 10E0     		b	.L201
 2090              	.L204:
 511:dwm1000.c     **** 		short2Bytes(0x0028, drx_tune4h);
 2091              		.loc 1 511 0
 2092 003c 01A9     		add	r1, sp, #4
 2093 003e 2020     		movs	r0, #32
 2094 0040 FFF7FEFF 		bl	short2Bytes
 2095              	.LVL206:
 512:dwm1000.c     **** 		break;
 2096              		.loc 1 512 0
 2097 0044 6946     		mov	r1, sp
 2098 0046 2820     		movs	r0, #40
 2099 0048 FFF7FEFF 		bl	short2Bytes
ARM GAS  C:\Users\PIERRE~1\AppData\Local\Temp\ccqD7qlI.s 			page 57


 2100              	.LVL207:
 513:dwm1000.c     **** 	case _1536: case _2048: case _4096:			// for 110 kbps
 2101              		.loc 1 513 0
 2102 004c 07E0     		b	.L201
 2103              	.L205:
 515:dwm1000.c     **** 		short2Bytes(0x0028, drx_tune4h);
 2104              		.loc 1 515 0
 2105 004e 01A9     		add	r1, sp, #4
 2106 0050 6420     		movs	r0, #100
 2107 0052 FFF7FEFF 		bl	short2Bytes
 2108              	.LVL208:
 516:dwm1000.c     **** 		break;
 2109              		.loc 1 516 0
 2110 0056 6946     		mov	r1, sp
 2111 0058 2820     		movs	r0, #40
 2112 005a FFF7FEFF 		bl	short2Bytes
 2113              	.LVL209:
 2114              	.L201:
 519:dwm1000.c     **** 	DWM_WriteSPI_ext(DRX_CONF, 0x26, drx_tune4h, 2);
 2115              		.loc 1 519 0
 2116 005e 0223     		movs	r3, #2
 2117 0060 01AA     		add	r2, sp, #4
 2118 0062 0621     		movs	r1, #6
 2119 0064 2720     		movs	r0, #39
 2120 0066 FFF7FEFF 		bl	DWM_WriteSPI_ext
 2121              	.LVL210:
 520:dwm1000.c     **** 	RECEIVER_UpdatePacSize();
 2122              		.loc 1 520 0
 2123 006a 0223     		movs	r3, #2
 2124 006c 6A46     		mov	r2, sp
 2125 006e 2621     		movs	r1, #38
 2126 0070 2720     		movs	r0, #39
 2127 0072 FFF7FEFF 		bl	DWM_WriteSPI_ext
 2128              	.LVL211:
 521:dwm1000.c     **** 	RECEIVER_UpdateSFDTimeout();
 2129              		.loc 1 521 0
 2130 0076 FFF7FEFF 		bl	RECEIVER_UpdatePacSize
 2131              	.LVL212:
 522:dwm1000.c     **** }
 2132              		.loc 1 522 0
 2133 007a FFF7FEFF 		bl	RECEIVER_UpdateSFDTimeout
 2134              	.LVL213:
 523:dwm1000.c     **** 
 2135              		.loc 1 523 0
 2136 007e 03B0     		add	sp, sp, #12
 2137              		.cfi_def_cfa_offset 4
 2138              		@ sp needed
 2139 0080 5DF804FB 		ldr	pc, [sp], #4
 2140              	.L208:
 2141              		.align	2
 2142              	.L207:
 2143 0084 00000000 		.word	.LANCHOR0
 2144              		.cfi_endproc
 2145              	.LFE87:
 2146              		.size	RECEIVER_UpdatePreambleSize, .-RECEIVER_UpdatePreambleSize
 2147              		.section	.text.RECEIVER_SetPreambleSize,"ax",%progbits
 2148              		.align	2
ARM GAS  C:\Users\PIERRE~1\AppData\Local\Temp\ccqD7qlI.s 			page 58


 2149              		.global	RECEIVER_SetPreambleSize
 2150              		.thumb
 2151              		.thumb_func
 2152              		.type	RECEIVER_SetPreambleSize, %function
 2153              	RECEIVER_SetPreambleSize:
 2154              	.LFB90:
 557:dwm1000.c     **** 	config.receiver.channel.preambleSize = CHANNEL_ValidPreambleSize(&(config.receiver.channel), pream
 2155              		.loc 1 557 0
 2156              		.cfi_startproc
 2157              		@ args = 0, pretend = 0, frame = 0
 2158              		@ frame_needed = 0, uses_anonymous_args = 0
 2159              	.LVL214:
 2160 0000 10B5     		push	{r4, lr}
 2161              		.cfi_def_cfa_offset 8
 2162              		.cfi_offset 4, -8
 2163              		.cfi_offset 14, -4
 558:dwm1000.c     **** 	RECEIVER_UpdatePreambleSize();
 2164              		.loc 1 558 0
 2165 0002 044C     		ldr	r4, .L211
 2166 0004 0146     		mov	r1, r0
 2167 0006 A01D     		adds	r0, r4, #6
 2168              	.LVL215:
 2169 0008 FFF7FEFF 		bl	CHANNEL_ValidPreambleSize
 2170              	.LVL216:
 2171 000c 2072     		strb	r0, [r4, #8]
 559:dwm1000.c     **** }
 2172              		.loc 1 559 0
 2173 000e FFF7FEFF 		bl	RECEIVER_UpdatePreambleSize
 2174              	.LVL217:
 2175 0012 10BD     		pop	{r4, pc}
 2176              	.L212:
 2177              		.align	2
 2178              	.L211:
 2179 0014 00000000 		.word	.LANCHOR0
 2180              		.cfi_endproc
 2181              	.LFE90:
 2182              		.size	RECEIVER_SetPreambleSize, .-RECEIVER_SetPreambleSize
 2183              		.section	.text.RECEIVER_UpdateChannel,"ax",%progbits
 2184              		.align	2
 2185              		.thumb
 2186              		.thumb_func
 2187              		.type	RECEIVER_UpdateChannel, %function
 2188              	RECEIVER_UpdateChannel:
 2189              	.LFB84:
 461:dwm1000.c     **** 	uint8_t rxCtrl[1];
 2190              		.loc 1 461 0
 2191              		.cfi_startproc
 2192              		@ args = 0, pretend = 0, frame = 8
 2193              		@ frame_needed = 0, uses_anonymous_args = 0
 2194 0000 00B5     		push	{lr}
 2195              		.cfi_def_cfa_offset 4
 2196              		.cfi_offset 14, -4
 2197 0002 83B0     		sub	sp, sp, #12
 2198              		.cfi_def_cfa_offset 16
 463:dwm1000.c     **** 	case _1: case _2: case _3: case _5:
 2199              		.loc 1 463 0
 2200 0004 0D4B     		ldr	r3, .L219
ARM GAS  C:\Users\PIERRE~1\AppData\Local\Temp\ccqD7qlI.s 			page 59


 2201 0006 9B79     		ldrb	r3, [r3, #6]	@ zero_extendqisi2
 2202 0008 013B     		subs	r3, r3, #1
 2203 000a 062B     		cmp	r3, #6
 2204 000c 0CD8     		bhi	.L214
 2205 000e DFE803F0 		tbb	[pc, r3]
 2206              	.L216:
 2207 0012 04       		.byte	(.L215-.L216)/2
 2208 0013 04       		.byte	(.L215-.L216)/2
 2209 0014 04       		.byte	(.L215-.L216)/2
 2210 0015 08       		.byte	(.L217-.L216)/2
 2211 0016 04       		.byte	(.L215-.L216)/2
 2212 0017 0B       		.byte	(.L214-.L216)/2
 2213 0018 08       		.byte	(.L217-.L216)/2
 2214 0019 00       		.p2align 1
 2215              	.L215:
 465:dwm1000.c     **** 		break;
 2216              		.loc 1 465 0
 2217 001a D823     		movs	r3, #216
 2218 001c 8DF80430 		strb	r3, [sp, #4]
 466:dwm1000.c     **** 	case _4: case _7:
 2219              		.loc 1 466 0
 2220 0020 02E0     		b	.L214
 2221              	.L217:
 468:dwm1000.c     **** 		break;
 2222              		.loc 1 468 0
 2223 0022 BC23     		movs	r3, #188
 2224 0024 8DF80430 		strb	r3, [sp, #4]
 2225              	.L214:
 471:dwm1000.c     **** }
 2226              		.loc 1 471 0
 2227 0028 0123     		movs	r3, #1
 2228 002a 01AA     		add	r2, sp, #4
 2229 002c 0B21     		movs	r1, #11
 2230 002e 2820     		movs	r0, #40
 2231 0030 FFF7FEFF 		bl	DWM_WriteSPI_ext
 2232              	.LVL218:
 472:dwm1000.c     **** 
 2233              		.loc 1 472 0
 2234 0034 03B0     		add	sp, sp, #12
 2235              		.cfi_def_cfa_offset 4
 2236              		@ sp needed
 2237 0036 5DF804FB 		ldr	pc, [sp], #4
 2238              	.L220:
 2239 003a 00BF     		.align	2
 2240              	.L219:
 2241 003c 00000000 		.word	.LANCHOR0
 2242              		.cfi_endproc
 2243              	.LFE84:
 2244              		.size	RECEIVER_UpdateChannel, .-RECEIVER_UpdateChannel
 2245              		.section	.text.RECEIVER_SetChannel,"ax",%progbits
 2246              		.align	2
 2247              		.global	RECEIVER_SetChannel
 2248              		.thumb
 2249              		.thumb_func
 2250              		.type	RECEIVER_SetChannel, %function
 2251              	RECEIVER_SetChannel:
 2252              	.LFB91:
ARM GAS  C:\Users\PIERRE~1\AppData\Local\Temp\ccqD7qlI.s 			page 60


 562:dwm1000.c     **** 	config.receiver.channel.channel = channel;
 2253              		.loc 1 562 0
 2254              		.cfi_startproc
 2255              		@ args = 0, pretend = 0, frame = 0
 2256              		@ frame_needed = 0, uses_anonymous_args = 0
 2257              	.LVL219:
 2258 0000 10B5     		push	{r4, lr}
 2259              		.cfi_def_cfa_offset 8
 2260              		.cfi_offset 4, -8
 2261              		.cfi_offset 14, -4
 563:dwm1000.c     **** 	if (!CHANNEL_IsValidPreambleCode(&(config.receiver.channel), config.receiver.channel.preambleCode)
 2262              		.loc 1 563 0
 2263 0002 074B     		ldr	r3, .L224
 2264 0004 9871     		strb	r0, [r3, #6]
 564:dwm1000.c     **** 		RECEIVER_SetPreambleCode(config.receiver.channel.preambleCode);
 2265              		.loc 1 564 0
 2266 0006 DC79     		ldrb	r4, [r3, #7]	@ zero_extendqisi2
 2267 0008 2146     		mov	r1, r4
 2268 000a 981D     		adds	r0, r3, #6
 2269              	.LVL220:
 2270 000c FFF7FEFF 		bl	CHANNEL_IsValidPreambleCode
 2271              	.LVL221:
 2272 0010 10B9     		cbnz	r0, .L222
 565:dwm1000.c     **** 	}
 2273              		.loc 1 565 0
 2274 0012 2046     		mov	r0, r4
 2275 0014 FFF7FEFF 		bl	RECEIVER_SetPreambleCode
 2276              	.LVL222:
 2277              	.L222:
 568:dwm1000.c     **** }
 2278              		.loc 1 568 0
 2279 0018 FFF7FEFF 		bl	RECEIVER_UpdateChannel
 2280              	.LVL223:
 2281 001c 10BD     		pop	{r4, pc}
 2282              	.L225:
 2283 001e 00BF     		.align	2
 2284              	.L224:
 2285 0020 00000000 		.word	.LANCHOR0
 2286              		.cfi_endproc
 2287              	.LFE91:
 2288              		.size	RECEIVER_SetChannel, .-RECEIVER_SetChannel
 2289              		.section	.text.RECEIVER_UpdateBitrate,"ax",%progbits
 2290              		.align	2
 2291              		.thumb
 2292              		.thumb_func
 2293              		.type	RECEIVER_UpdateBitrate, %function
 2294              	RECEIVER_UpdateBitrate:
 2295              	.LFB85:
 474:dwm1000.c     **** 	uint8_t sys[1] = {0};
 2296              		.loc 1 474 0
 2297              		.cfi_startproc
 2298              		@ args = 0, pretend = 0, frame = 8
 2299              		@ frame_needed = 0, uses_anonymous_args = 0
 2300 0000 00B5     		push	{lr}
 2301              		.cfi_def_cfa_offset 4
 2302              		.cfi_offset 14, -4
 2303 0002 83B0     		sub	sp, sp, #12
ARM GAS  C:\Users\PIERRE~1\AppData\Local\Temp\ccqD7qlI.s 			page 61


 2304              		.cfi_def_cfa_offset 16
 475:dwm1000.c     **** 	uint8_t drxTune0b[2];
 2305              		.loc 1 475 0
 2306 0004 0023     		movs	r3, #0
 2307 0006 8DF80430 		strb	r3, [sp, #4]
 477:dwm1000.c     **** 	case _110KBPS:
 2308              		.loc 1 477 0
 2309 000a 144B     		ldr	r3, .L232
 2310 000c 5B7A     		ldrb	r3, [r3, #9]	@ zero_extendqisi2
 2311 000e 13B1     		cbz	r3, .L228
 2312 0010 022B     		cmp	r3, #2
 2313 0012 11D8     		bhi	.L227
 2314 0014 09E0     		b	.L230
 2315              	.L228:
 479:dwm1000.c     **** 		sys[0] = 1 << 6;
 2316              		.loc 1 479 0
 2317 0016 6946     		mov	r1, sp
 2318 0018 0A20     		movs	r0, #10
 2319 001a FFF7FEFF 		bl	short2Bytes
 2320              	.LVL224:
 480:dwm1000.c     **** 		config.receiver.sfd = 64;
 2321              		.loc 1 480 0
 2322 001e 4023     		movs	r3, #64
 2323 0020 8DF80430 		strb	r3, [sp, #4]
 481:dwm1000.c     **** 		break;
 2324              		.loc 1 481 0
 2325 0024 0D4A     		ldr	r2, .L232
 2326 0026 1382     		strh	r3, [r2, #16]	@ movhi
 482:dwm1000.c     **** 	case _850KBPS: case _6800KBPS:
 2327              		.loc 1 482 0
 2328 0028 06E0     		b	.L227
 2329              	.L230:
 484:dwm1000.c     **** 		config.receiver.sfd = 8;
 2330              		.loc 1 484 0
 2331 002a 6946     		mov	r1, sp
 2332 002c 0120     		movs	r0, #1
 2333 002e FFF7FEFF 		bl	short2Bytes
 2334              	.LVL225:
 485:dwm1000.c     **** 		break;
 2335              		.loc 1 485 0
 2336 0032 0822     		movs	r2, #8
 2337 0034 094B     		ldr	r3, .L232
 2338 0036 1A82     		strh	r2, [r3, #16]	@ movhi
 2339              	.L227:
 488:dwm1000.c     **** 	DWM_WriteSPI_ext(DRX_CONF, 0x02, drxTune0b, 2);
 2340              		.loc 1 488 0
 2341 0038 0123     		movs	r3, #1
 2342 003a 01AA     		add	r2, sp, #4
 2343 003c 0221     		movs	r1, #2
 2344 003e 0420     		movs	r0, #4
 2345 0040 FFF7FEFF 		bl	DWM_WriteSPI_ext
 2346              	.LVL226:
 489:dwm1000.c     **** 	RECEIVER_UpdateSFDTimeout();
 2347              		.loc 1 489 0
 2348 0044 0223     		movs	r3, #2
 2349 0046 6A46     		mov	r2, sp
 2350 0048 1946     		mov	r1, r3
ARM GAS  C:\Users\PIERRE~1\AppData\Local\Temp\ccqD7qlI.s 			page 62


 2351 004a 2720     		movs	r0, #39
 2352 004c FFF7FEFF 		bl	DWM_WriteSPI_ext
 2353              	.LVL227:
 490:dwm1000.c     **** }
 2354              		.loc 1 490 0
 2355 0050 FFF7FEFF 		bl	RECEIVER_UpdateSFDTimeout
 2356              	.LVL228:
 491:dwm1000.c     **** 
 2357              		.loc 1 491 0
 2358 0054 03B0     		add	sp, sp, #12
 2359              		.cfi_def_cfa_offset 4
 2360              		@ sp needed
 2361 0056 5DF804FB 		ldr	pc, [sp], #4
 2362              	.L233:
 2363 005a 00BF     		.align	2
 2364              	.L232:
 2365 005c 00000000 		.word	.LANCHOR0
 2366              		.cfi_endproc
 2367              	.LFE85:
 2368              		.size	RECEIVER_UpdateBitrate, .-RECEIVER_UpdateBitrate
 2369              		.section	.text.RECEIVER_SetBitRate,"ax",%progbits
 2370              		.align	2
 2371              		.global	RECEIVER_SetBitRate
 2372              		.thumb
 2373              		.thumb_func
 2374              		.type	RECEIVER_SetBitRate, %function
 2375              	RECEIVER_SetBitRate:
 2376              	.LFB92:
 571:dwm1000.c     **** 	config.receiver.channel.bitRate = bitRate;
 2377              		.loc 1 571 0
 2378              		.cfi_startproc
 2379              		@ args = 0, pretend = 0, frame = 0
 2380              		@ frame_needed = 0, uses_anonymous_args = 0
 2381              	.LVL229:
 2382 0000 10B5     		push	{r4, lr}
 2383              		.cfi_def_cfa_offset 8
 2384              		.cfi_offset 4, -8
 2385              		.cfi_offset 14, -4
 572:dwm1000.c     **** 	if (!CHANNEL_IsValidPreambleSize(&(config.receiver.channel), config.receiver.channel.preambleSize)
 2386              		.loc 1 572 0
 2387 0002 074B     		ldr	r3, .L237
 2388 0004 5872     		strb	r0, [r3, #9]
 573:dwm1000.c     **** 		RECEIVER_SetPreambleSize(config.receiver.channel.preambleSize);
 2389              		.loc 1 573 0
 2390 0006 1C7A     		ldrb	r4, [r3, #8]	@ zero_extendqisi2
 2391 0008 2146     		mov	r1, r4
 2392 000a 981D     		adds	r0, r3, #6
 2393              	.LVL230:
 2394 000c FFF7FEFF 		bl	CHANNEL_IsValidPreambleSize
 2395              	.LVL231:
 2396 0010 10B9     		cbnz	r0, .L235
 574:dwm1000.c     **** 	}
 2397              		.loc 1 574 0
 2398 0012 2046     		mov	r0, r4
 2399 0014 FFF7FEFF 		bl	RECEIVER_SetPreambleSize
 2400              	.LVL232:
 2401              	.L235:
ARM GAS  C:\Users\PIERRE~1\AppData\Local\Temp\ccqD7qlI.s 			page 63


 576:dwm1000.c     **** }
 2402              		.loc 1 576 0
 2403 0018 FFF7FEFF 		bl	RECEIVER_UpdateBitrate
 2404              	.LVL233:
 2405 001c 10BD     		pop	{r4, pc}
 2406              	.L238:
 2407 001e 00BF     		.align	2
 2408              	.L237:
 2409 0020 00000000 		.word	.LANCHOR0
 2410              		.cfi_endproc
 2411              	.LFE92:
 2412              		.size	RECEIVER_SetBitRate, .-RECEIVER_SetBitRate
 2413              		.section	.text.RECEIVER_UpdatePrf,"ax",%progbits
 2414              		.align	2
 2415              		.thumb
 2416              		.thumb_func
 2417              		.type	RECEIVER_UpdatePrf, %function
 2418              	RECEIVER_UpdatePrf:
 2419              	.LFB88:
 525:dwm1000.c     **** 	uint8_t prf[1];
 2420              		.loc 1 525 0
 2421              		.cfi_startproc
 2422              		@ args = 0, pretend = 0, frame = 16
 2423              		@ frame_needed = 0, uses_anonymous_args = 0
 2424 0000 10B5     		push	{r4, lr}
 2425              		.cfi_def_cfa_offset 8
 2426              		.cfi_offset 4, -8
 2427              		.cfi_offset 14, -4
 2428 0002 84B0     		sub	sp, sp, #16
 2429              		.cfi_def_cfa_offset 24
 527:dwm1000.c     **** 	prf[0] &= 0xF3;
 2430              		.loc 1 527 0
 2431 0004 0123     		movs	r3, #1
 2432 0006 03AA     		add	r2, sp, #12
 2433 0008 0221     		movs	r1, #2
 2434 000a 1F20     		movs	r0, #31
 2435 000c FFF7FEFF 		bl	DWM_ReadSPI_ext
 2436              	.LVL234:
 528:dwm1000.c     **** 	prf[0] |= config.receiver.channel.prf << 2;
 2437              		.loc 1 528 0
 2438 0010 9DF80C30 		ldrb	r3, [sp, #12]	@ zero_extendqisi2
 2439 0014 03F0F303 		and	r3, r3, #243
 529:dwm1000.c     **** 	DWM_WriteSPI_ext(CHAN_CTRL, 2, prf, 1);
 2440              		.loc 1 529 0
 2441 0018 224C     		ldr	r4, .L244
 2442 001a A27A     		ldrb	r2, [r4, #10]	@ zero_extendqisi2
 2443 001c 43EA8203 		orr	r3, r3, r2, lsl #2
 2444 0020 8DF80C30 		strb	r3, [sp, #12]
 530:dwm1000.c     **** 	uint8_t drxTune1a[2];
 2445              		.loc 1 530 0
 2446 0024 0123     		movs	r3, #1
 2447 0026 03AA     		add	r2, sp, #12
 2448 0028 0221     		movs	r1, #2
 2449 002a 1F20     		movs	r0, #31
 2450 002c FFF7FEFF 		bl	DWM_WriteSPI_ext
 2451              	.LVL235:
 534:dwm1000.c     **** 	case _16MHZ:
ARM GAS  C:\Users\PIERRE~1\AppData\Local\Temp\ccqD7qlI.s 			page 64


 2452              		.loc 1 534 0
 2453 0030 A37A     		ldrb	r3, [r4, #10]	@ zero_extendqisi2
 2454 0032 012B     		cmp	r3, #1
 2455 0034 02D0     		beq	.L241
 2456 0036 022B     		cmp	r3, #2
 2457 0038 0FD0     		beq	.L242
 2458 003a 1CE0     		b	.L240
 2459              	.L241:
 536:dwm1000.c     **** 		short2Bytes(0x8870U, agcTune1);
 2460              		.loc 1 536 0
 2461 003c 02A9     		add	r1, sp, #8
 2462 003e 8720     		movs	r0, #135
 2463 0040 FFF7FEFF 		bl	short2Bytes
 2464              	.LVL236:
 537:dwm1000.c     **** 		short2Bytes(0x1607U, ldeCfg2);
 2465              		.loc 1 537 0
 2466 0044 01A9     		add	r1, sp, #4
 2467 0046 48F67000 		movw	r0, #34928
 2468 004a FFF7FEFF 		bl	short2Bytes
 2469              	.LVL237:
 538:dwm1000.c     **** 		break;
 2470              		.loc 1 538 0
 2471 004e 6946     		mov	r1, sp
 2472 0050 41F20760 		movw	r0, #5639
 2473 0054 FFF7FEFF 		bl	short2Bytes
 2474              	.LVL238:
 539:dwm1000.c     **** 	case _64MHZ:
 2475              		.loc 1 539 0
 2476 0058 0DE0     		b	.L240
 2477              	.L242:
 541:dwm1000.c     **** 		short2Bytes(0x889BU, agcTune1);
 2478              		.loc 1 541 0
 2479 005a 02A9     		add	r1, sp, #8
 2480 005c 8D20     		movs	r0, #141
 2481 005e FFF7FEFF 		bl	short2Bytes
 2482              	.LVL239:
 542:dwm1000.c     **** 		short2Bytes(0x0607U, ldeCfg2);
 2483              		.loc 1 542 0
 2484 0062 01A9     		add	r1, sp, #4
 2485 0064 48F69B00 		movw	r0, #34971
 2486 0068 FFF7FEFF 		bl	short2Bytes
 2487              	.LVL240:
 543:dwm1000.c     **** 		break;
 2488              		.loc 1 543 0
 2489 006c 6946     		mov	r1, sp
 2490 006e 40F20760 		movw	r0, #1543
 2491 0072 FFF7FEFF 		bl	short2Bytes
 2492              	.LVL241:
 2493              	.L240:
 546:dwm1000.c     **** 	DWM_WriteSPI_ext(AGC_CTRL, 0x04, agcTune1, 2);
 2494              		.loc 1 546 0
 2495 0076 0223     		movs	r3, #2
 2496 0078 02AA     		add	r2, sp, #8
 2497 007a 0421     		movs	r1, #4
 2498 007c 2720     		movs	r0, #39
 2499 007e FFF7FEFF 		bl	DWM_WriteSPI_ext
 2500              	.LVL242:
ARM GAS  C:\Users\PIERRE~1\AppData\Local\Temp\ccqD7qlI.s 			page 65


 547:dwm1000.c     **** 	DWM_WriteSPI_ext(LDE_CTRL, 0x1806, ldeCfg2, 2);
 2501              		.loc 1 547 0
 2502 0082 0223     		movs	r3, #2
 2503 0084 01AA     		add	r2, sp, #4
 2504 0086 0421     		movs	r1, #4
 2505 0088 2320     		movs	r0, #35
 2506 008a FFF7FEFF 		bl	DWM_WriteSPI_ext
 2507              	.LVL243:
 548:dwm1000.c     **** 	RECEIVER_UpdatePacSize();
 2508              		.loc 1 548 0
 2509 008e 0223     		movs	r3, #2
 2510 0090 6A46     		mov	r2, sp
 2511 0092 41F60601 		movw	r1, #6150
 2512 0096 2E20     		movs	r0, #46
 2513 0098 FFF7FEFF 		bl	DWM_WriteSPI_ext
 2514              	.LVL244:
 549:dwm1000.c     **** }
 2515              		.loc 1 549 0
 2516 009c FFF7FEFF 		bl	RECEIVER_UpdatePacSize
 2517              	.LVL245:
 550:dwm1000.c     **** 
 2518              		.loc 1 550 0
 2519 00a0 04B0     		add	sp, sp, #16
 2520              		.cfi_def_cfa_offset 8
 2521              		@ sp needed
 2522 00a2 10BD     		pop	{r4, pc}
 2523              	.L245:
 2524              		.align	2
 2525              	.L244:
 2526 00a4 00000000 		.word	.LANCHOR0
 2527              		.cfi_endproc
 2528              	.LFE88:
 2529              		.size	RECEIVER_UpdatePrf, .-RECEIVER_UpdatePrf
 2530              		.section	.text.RECEIVER_SetPrf,"ax",%progbits
 2531              		.align	2
 2532              		.global	RECEIVER_SetPrf
 2533              		.thumb
 2534              		.thumb_func
 2535              		.type	RECEIVER_SetPrf, %function
 2536              	RECEIVER_SetPrf:
 2537              	.LFB93:
 579:dwm1000.c     **** 	config.receiver.channel.prf = prf;
 2538              		.loc 1 579 0
 2539              		.cfi_startproc
 2540              		@ args = 0, pretend = 0, frame = 0
 2541              		@ frame_needed = 0, uses_anonymous_args = 0
 2542              	.LVL246:
 2543 0000 10B5     		push	{r4, lr}
 2544              		.cfi_def_cfa_offset 8
 2545              		.cfi_offset 4, -8
 2546              		.cfi_offset 14, -4
 580:dwm1000.c     **** 	if (!CHANNEL_IsValidPreambleCode(&(config.receiver.channel), config.receiver.channel.preambleCode)
 2547              		.loc 1 580 0
 2548 0002 074B     		ldr	r3, .L249
 2549 0004 9872     		strb	r0, [r3, #10]
 581:dwm1000.c     **** 		RECEIVER_SetPreambleCode(config.receiver.channel.preambleCode);
 2550              		.loc 1 581 0
ARM GAS  C:\Users\PIERRE~1\AppData\Local\Temp\ccqD7qlI.s 			page 66


 2551 0006 DC79     		ldrb	r4, [r3, #7]	@ zero_extendqisi2
 2552 0008 2146     		mov	r1, r4
 2553 000a 981D     		adds	r0, r3, #6
 2554              	.LVL247:
 2555 000c FFF7FEFF 		bl	CHANNEL_IsValidPreambleCode
 2556              	.LVL248:
 2557 0010 10B9     		cbnz	r0, .L247
 582:dwm1000.c     **** 	}
 2558              		.loc 1 582 0
 2559 0012 2046     		mov	r0, r4
 2560 0014 FFF7FEFF 		bl	RECEIVER_SetPreambleCode
 2561              	.LVL249:
 2562              	.L247:
 584:dwm1000.c     **** }
 2563              		.loc 1 584 0
 2564 0018 FFF7FEFF 		bl	RECEIVER_UpdatePrf
 2565              	.LVL250:
 2566 001c 10BD     		pop	{r4, pc}
 2567              	.L250:
 2568 001e 00BF     		.align	2
 2569              	.L249:
 2570 0020 00000000 		.word	.LANCHOR0
 2571              		.cfi_endproc
 2572              	.LFE93:
 2573              		.size	RECEIVER_SetPrf, .-RECEIVER_SetPrf
 2574              		.section	.text.RECEIVER_UpdateFrameTimeoutDelay,"ax",%progbits
 2575              		.align	2
 2576              		.thumb
 2577              		.thumb_func
 2578              		.type	RECEIVER_UpdateFrameTimeoutDelay, %function
 2579              	RECEIVER_UpdateFrameTimeoutDelay:
 2580              	.LFB83:
 447:dwm1000.c     **** 	uint8_t sysCfg[1];
 2581              		.loc 1 447 0
 2582              		.cfi_startproc
 2583              		@ args = 0, pretend = 0, frame = 8
 2584              		@ frame_needed = 0, uses_anonymous_args = 0
 2585 0000 10B5     		push	{r4, lr}
 2586              		.cfi_def_cfa_offset 8
 2587              		.cfi_offset 4, -8
 2588              		.cfi_offset 14, -4
 2589 0002 82B0     		sub	sp, sp, #8
 2590              		.cfi_def_cfa_offset 16
 449:dwm1000.c     **** 	sysCfg[0] |= (1 << 4);
 2591              		.loc 1 449 0
 2592 0004 0123     		movs	r3, #1
 2593 0006 01AA     		add	r2, sp, #4
 2594 0008 0321     		movs	r1, #3
 2595 000a 0420     		movs	r0, #4
 2596 000c FFF7FEFF 		bl	DWM_ReadSPI_ext
 2597              	.LVL251:
 450:dwm1000.c     **** 	uint8_t rxfwto[2];
 2598              		.loc 1 450 0
 2599 0010 9DF80430 		ldrb	r3, [sp, #4]	@ zero_extendqisi2
 2600 0014 43F01003 		orr	r3, r3, #16
 2601 0018 8DF80430 		strb	r3, [sp, #4]
 452:dwm1000.c     **** 	if (config.receiver.frameTimeoutDelay == 0) {
ARM GAS  C:\Users\PIERRE~1\AppData\Local\Temp\ccqD7qlI.s 			page 67


 2602              		.loc 1 452 0
 2603 001c 0D4C     		ldr	r4, .L254
 2604 001e 6946     		mov	r1, sp
 2605 0020 A089     		ldrh	r0, [r4, #12]
 2606 0022 FFF7FEFF 		bl	short2Bytes
 2607              	.LVL252:
 453:dwm1000.c     **** 		sysCfg[0] &= ~(1 << 4);
 2608              		.loc 1 453 0
 2609 0026 A389     		ldrh	r3, [r4, #12]
 2610 0028 2BB9     		cbnz	r3, .L252
 454:dwm1000.c     **** 	}
 2611              		.loc 1 454 0
 2612 002a 9DF80430 		ldrb	r3, [sp, #4]	@ zero_extendqisi2
 2613 002e 23F01003 		bic	r3, r3, #16
 2614 0032 8DF80430 		strb	r3, [sp, #4]
 2615              	.L252:
 457:dwm1000.c     **** 	DWM_WriteSPI_ext(SYS_CFG, 0x03, sysCfg, 0x01);
 2616              		.loc 1 457 0
 2617 0036 0223     		movs	r3, #2
 2618 0038 6A46     		mov	r2, sp
 2619 003a 4FF6FF71 		movw	r1, #65535
 2620 003e 0C20     		movs	r0, #12
 2621 0040 FFF7FEFF 		bl	DWM_WriteSPI_ext
 2622              	.LVL253:
 458:dwm1000.c     **** }
 2623              		.loc 1 458 0
 2624 0044 0123     		movs	r3, #1
 2625 0046 01AA     		add	r2, sp, #4
 2626 0048 0321     		movs	r1, #3
 2627 004a 0420     		movs	r0, #4
 2628 004c FFF7FEFF 		bl	DWM_WriteSPI_ext
 2629              	.LVL254:
 459:dwm1000.c     **** 
 2630              		.loc 1 459 0
 2631 0050 02B0     		add	sp, sp, #8
 2632              		.cfi_def_cfa_offset 8
 2633              		@ sp needed
 2634 0052 10BD     		pop	{r4, pc}
 2635              	.L255:
 2636              		.align	2
 2637              	.L254:
 2638 0054 00000000 		.word	.LANCHOR0
 2639              		.cfi_endproc
 2640              	.LFE83:
 2641              		.size	RECEIVER_UpdateFrameTimeoutDelay, .-RECEIVER_UpdateFrameTimeoutDelay
 2642              		.section	.text.RECEIVER_SetRrameTimeoutDelay,"ax",%progbits
 2643              		.align	2
 2644              		.global	RECEIVER_SetRrameTimeoutDelay
 2645              		.thumb
 2646              		.thumb_func
 2647              		.type	RECEIVER_SetRrameTimeoutDelay, %function
 2648              	RECEIVER_SetRrameTimeoutDelay:
 2649              	.LFB94:
 587:dwm1000.c     **** 	config.receiver.frameTimeoutDelay = timeoutDelay;
 2650              		.loc 1 587 0
 2651              		.cfi_startproc
 2652              		@ args = 0, pretend = 0, frame = 0
ARM GAS  C:\Users\PIERRE~1\AppData\Local\Temp\ccqD7qlI.s 			page 68


 2653              		@ frame_needed = 0, uses_anonymous_args = 0
 2654              	.LVL255:
 2655 0000 08B5     		push	{r3, lr}
 2656              		.cfi_def_cfa_offset 8
 2657              		.cfi_offset 3, -8
 2658              		.cfi_offset 14, -4
 588:dwm1000.c     **** 	RECEIVER_UpdateFrameTimeoutDelay();
 2659              		.loc 1 588 0
 2660 0002 024B     		ldr	r3, .L258
 2661 0004 9881     		strh	r0, [r3, #12]	@ movhi
 589:dwm1000.c     **** 
 2662              		.loc 1 589 0
 2663 0006 FFF7FEFF 		bl	RECEIVER_UpdateFrameTimeoutDelay
 2664              	.LVL256:
 2665 000a 08BD     		pop	{r3, pc}
 2666              	.L259:
 2667              		.align	2
 2668              	.L258:
 2669 000c 00000000 		.word	.LANCHOR0
 2670              		.cfi_endproc
 2671              	.LFE94:
 2672              		.size	RECEIVER_SetRrameTimeoutDelay, .-RECEIVER_SetRrameTimeoutDelay
 2673              		.section	.text.RECEIVER_Init,"ax",%progbits
 2674              		.align	2
 2675              		.thumb
 2676              		.thumb_func
 2677              		.type	RECEIVER_Init, %function
 2678              	RECEIVER_Init:
 2679              	.LFB95:
 593:dwm1000.c     **** 	CHANNEL_Init(&(config.receiver.channel));
 2680              		.loc 1 593 0
 2681              		.cfi_startproc
 2682              		@ args = 0, pretend = 0, frame = 0
 2683              		@ frame_needed = 0, uses_anonymous_args = 0
 2684 0000 10B5     		push	{r4, lr}
 2685              		.cfi_def_cfa_offset 8
 2686              		.cfi_offset 4, -8
 2687              		.cfi_offset 14, -4
 594:dwm1000.c     **** 	config.receiver.frameTimeoutDelay = 0;
 2688              		.loc 1 594 0
 2689 0002 094C     		ldr	r4, .L262
 2690 0004 A01D     		adds	r0, r4, #6
 2691 0006 FFF7FEFF 		bl	CHANNEL_Init
 2692              	.LVL257:
 595:dwm1000.c     **** 	RECEIVER_UpdateChannel();
 2693              		.loc 1 595 0
 2694 000a 0023     		movs	r3, #0
 2695 000c A381     		strh	r3, [r4, #12]	@ movhi
 596:dwm1000.c     **** 	RECEIVER_UpdateBitrate();
 2696              		.loc 1 596 0
 2697 000e FFF7FEFF 		bl	RECEIVER_UpdateChannel
 2698              	.LVL258:
 597:dwm1000.c     **** 	RECEIVER_UpdatePrf();
 2699              		.loc 1 597 0
 2700 0012 FFF7FEFF 		bl	RECEIVER_UpdateBitrate
 2701              	.LVL259:
 598:dwm1000.c     **** 	RECEIVER_UpdatePreambleCode();
ARM GAS  C:\Users\PIERRE~1\AppData\Local\Temp\ccqD7qlI.s 			page 69


 2702              		.loc 1 598 0
 2703 0016 FFF7FEFF 		bl	RECEIVER_UpdatePrf
 2704              	.LVL260:
 599:dwm1000.c     **** 	RECEIVER_UpdatePreambleSize();
 2705              		.loc 1 599 0
 2706 001a FFF7FEFF 		bl	RECEIVER_UpdatePreambleCode
 2707              	.LVL261:
 600:dwm1000.c     **** 	RECEIVER_UpdateFrameTimeoutDelay();
 2708              		.loc 1 600 0
 2709 001e FFF7FEFF 		bl	RECEIVER_UpdatePreambleSize
 2710              	.LVL262:
 601:dwm1000.c     **** }
 2711              		.loc 1 601 0
 2712 0022 FFF7FEFF 		bl	RECEIVER_UpdateFrameTimeoutDelay
 2713              	.LVL263:
 2714 0026 10BD     		pop	{r4, pc}
 2715              	.L263:
 2716              		.align	2
 2717              	.L262:
 2718 0028 00000000 		.word	.LANCHOR0
 2719              		.cfi_endproc
 2720              	.LFE95:
 2721              		.size	RECEIVER_Init, .-RECEIVER_Init
 2722              		.section	.text.DWM_UpdateChannel,"ax",%progbits
 2723              		.align	2
 2724              		.thumb
 2725              		.thumb_func
 2726              		.type	DWM_UpdateChannel, %function
 2727              	DWM_UpdateChannel:
 2728              	.LFB67:
 135:dwm1000.c     **** 	uint8_t chan[] = {((config.channel << 4)|config.channel)};
 2729              		.loc 1 135 0
 2730              		.cfi_startproc
 2731              		@ args = 0, pretend = 0, frame = 16
 2732              		@ frame_needed = 0, uses_anonymous_args = 0
 2733 0000 10B5     		push	{r4, lr}
 2734              		.cfi_def_cfa_offset 8
 2735              		.cfi_offset 4, -8
 2736              		.cfi_offset 14, -4
 2737 0002 84B0     		sub	sp, sp, #16
 2738              		.cfi_def_cfa_offset 24
 136:dwm1000.c     **** 	DWM_WriteSPI_ext(CHAN_CTRL, NO_SUB, chan, 1);
 2739              		.loc 1 136 0
 2740 0004 224C     		ldr	r4, .L272
 2741 0006 A37C     		ldrb	r3, [r4, #18]	@ zero_extendqisi2
 2742 0008 43EA0313 		orr	r3, r3, r3, lsl #4
 2743 000c 04AA     		add	r2, sp, #16
 2744 000e 02F8043D 		strb	r3, [r2, #-4]!
 137:dwm1000.c     **** 	uint8_t pllTune[1];
 2745              		.loc 1 137 0
 2746 0012 0123     		movs	r3, #1
 2747 0014 4FF6FF71 		movw	r1, #65535
 2748 0018 1F20     		movs	r0, #31
 2749 001a FFF7FEFF 		bl	DWM_WriteSPI_ext
 2750              	.LVL264:
 140:dwm1000.c     **** 		case _1:
 2751              		.loc 1 140 0
ARM GAS  C:\Users\PIERRE~1\AppData\Local\Temp\ccqD7qlI.s 			page 70


 2752 001e A37C     		ldrb	r3, [r4, #18]	@ zero_extendqisi2
 2753 0020 013B     		subs	r3, r3, #1
 2754 0022 062B     		cmp	r3, #6
 2755 0024 24D8     		bhi	.L265
 2756 0026 DFE803F0 		tbb	[pc, r3]
 2757              	.L267:
 2758 002a 04       		.byte	(.L266-.L267)/2
 2759 002b 0C       		.byte	(.L268-.L267)/2
 2760 002c 14       		.byte	(.L269-.L267)/2
 2761 002d 0C       		.byte	(.L268-.L267)/2
 2762 002e 1C       		.byte	(.L270-.L267)/2
 2763 002f 23       		.byte	(.L265-.L267)/2
 2764 0030 1C       		.byte	(.L270-.L267)/2
 2765 0031 00       		.p2align 1
 2766              	.L266:
 142:dwm1000.c     **** 			pllTune[0] = 0x1EU;
 2767              		.loc 1 142 0
 2768 0032 01A9     		add	r1, sp, #4
 2769 0034 1748     		ldr	r0, .L272+4
 2770 0036 FFF7FEFF 		bl	int2Bytes
 2771              	.LVL265:
 143:dwm1000.c     **** 			break;
 2772              		.loc 1 143 0
 2773 003a 1E23     		movs	r3, #30
 2774 003c 8DF80830 		strb	r3, [sp, #8]
 144:dwm1000.c     **** 		case _2: case _4:
 2775              		.loc 1 144 0
 2776 0040 16E0     		b	.L265
 2777              	.L268:
 146:dwm1000.c     **** 			pllTune[0] = 0x26U;
 2778              		.loc 1 146 0
 2779 0042 01A9     		add	r1, sp, #4
 2780 0044 1448     		ldr	r0, .L272+8
 2781 0046 FFF7FEFF 		bl	int2Bytes
 2782              	.LVL266:
 147:dwm1000.c     **** 			break;
 2783              		.loc 1 147 0
 2784 004a 2623     		movs	r3, #38
 2785 004c 8DF80830 		strb	r3, [sp, #8]
 148:dwm1000.c     **** 		case _3:
 2786              		.loc 1 148 0
 2787 0050 0EE0     		b	.L265
 2788              	.L269:
 150:dwm1000.c     **** 			pllTune[0] = 0x56U;
 2789              		.loc 1 150 0
 2790 0052 01A9     		add	r1, sp, #4
 2791 0054 1148     		ldr	r0, .L272+12
 2792 0056 FFF7FEFF 		bl	int2Bytes
 2793              	.LVL267:
 151:dwm1000.c     **** 			break;
 2794              		.loc 1 151 0
 2795 005a 5623     		movs	r3, #86
 2796 005c 8DF80830 		strb	r3, [sp, #8]
 152:dwm1000.c     **** 		case _5: case _7:
 2797              		.loc 1 152 0
 2798 0060 06E0     		b	.L265
 2799              	.L270:
ARM GAS  C:\Users\PIERRE~1\AppData\Local\Temp\ccqD7qlI.s 			page 71


 154:dwm1000.c     **** 			pllTune[0] = 0xBEU;
 2800              		.loc 1 154 0
 2801 0062 01A9     		add	r1, sp, #4
 2802 0064 0E48     		ldr	r0, .L272+16
 2803 0066 FFF7FEFF 		bl	int2Bytes
 2804              	.LVL268:
 155:dwm1000.c     **** 			break;
 2805              		.loc 1 155 0
 2806 006a BE23     		movs	r3, #190
 2807 006c 8DF80830 		strb	r3, [sp, #8]
 2808              	.L265:
 158:dwm1000.c     **** 	DWM_WriteSPI_ext(FS_CTRL, 0x0B, pllTune, 1);
 2809              		.loc 1 158 0
 2810 0070 0423     		movs	r3, #4
 2811 0072 0DEB0302 		add	r2, sp, r3
 2812 0076 0721     		movs	r1, #7
 2813 0078 2B20     		movs	r0, #43
 2814 007a FFF7FEFF 		bl	DWM_WriteSPI_ext
 2815              	.LVL269:
 159:dwm1000.c     **** }
 2816              		.loc 1 159 0
 2817 007e 0123     		movs	r3, #1
 2818 0080 02AA     		add	r2, sp, #8
 2819 0082 0B21     		movs	r1, #11
 2820 0084 2B20     		movs	r0, #43
 2821 0086 FFF7FEFF 		bl	DWM_WriteSPI_ext
 2822              	.LVL270:
 160:dwm1000.c     **** 
 2823              		.loc 1 160 0
 2824 008a 04B0     		add	sp, sp, #16
 2825              		.cfi_def_cfa_offset 8
 2826              		@ sp needed
 2827 008c 10BD     		pop	{r4, pc}
 2828              	.L273:
 2829 008e 00BF     		.align	2
 2830              	.L272:
 2831 0090 00000000 		.word	.LANCHOR0
 2832 0094 07040009 		.word	150995975
 2833 0098 08054008 		.word	138413320
 2834 009c 09104008 		.word	138416137
 2835 00a0 1D040008 		.word	134218781
 2836              		.cfi_endproc
 2837              	.LFE67:
 2838              		.size	DWM_UpdateChannel, .-DWM_UpdateChannel
 2839              		.section	.text.DWM_SetChannel,"ax",%progbits
 2840              		.align	2
 2841              		.global	DWM_SetChannel
 2842              		.thumb
 2843              		.thumb_func
 2844              		.type	DWM_SetChannel, %function
 2845              	DWM_SetChannel:
 2846              	.LFB96:
 604:dwm1000.c     **** 	config.channel = channel;
 2847              		.loc 1 604 0
 2848              		.cfi_startproc
 2849              		@ args = 0, pretend = 0, frame = 0
 2850              		@ frame_needed = 0, uses_anonymous_args = 0
ARM GAS  C:\Users\PIERRE~1\AppData\Local\Temp\ccqD7qlI.s 			page 72


 2851              	.LVL271:
 2852 0000 10B5     		push	{r4, lr}
 2853              		.cfi_def_cfa_offset 8
 2854              		.cfi_offset 4, -8
 2855              		.cfi_offset 14, -4
 2856 0002 0446     		mov	r4, r0
 605:dwm1000.c     **** 	TRANSMITTER_SetChannel(channel);
 2857              		.loc 1 605 0
 2858 0004 044B     		ldr	r3, .L276
 2859 0006 9874     		strb	r0, [r3, #18]
 606:dwm1000.c     **** 	RECEIVER_SetChannel(channel);
 2860              		.loc 1 606 0
 2861 0008 FFF7FEFF 		bl	TRANSMITTER_SetChannel
 2862              	.LVL272:
 607:dwm1000.c     **** 	DWM_UpdateChannel();
 2863              		.loc 1 607 0
 2864 000c 2046     		mov	r0, r4
 2865 000e FFF7FEFF 		bl	RECEIVER_SetChannel
 2866              	.LVL273:
 608:dwm1000.c     **** }
 2867              		.loc 1 608 0
 2868 0012 FFF7FEFF 		bl	DWM_UpdateChannel
 2869              	.LVL274:
 2870 0016 10BD     		pop	{r4, pc}
 2871              	.L277:
 2872              		.align	2
 2873              	.L276:
 2874 0018 00000000 		.word	.LANCHOR0
 2875              		.cfi_endproc
 2876              	.LFE96:
 2877              		.size	DWM_SetChannel, .-DWM_SetChannel
 2878              		.section	.text.DWM_Reset,"ax",%progbits
 2879              		.align	2
 2880              		.thumb
 2881              		.thumb_func
 2882              		.type	DWM_Reset, %function
 2883              	DWM_Reset:
 2884              	.LFB100:
 726:dwm1000.c     **** 	uint8_t pmscCtrl0[2];
 2885              		.loc 1 726 0
 2886              		.cfi_startproc
 2887              		@ args = 0, pretend = 0, frame = 8
 2888              		@ frame_needed = 0, uses_anonymous_args = 0
 2889 0000 70B5     		push	{r4, r5, r6, lr}
 2890              		.cfi_def_cfa_offset 16
 2891              		.cfi_offset 4, -16
 2892              		.cfi_offset 5, -12
 2893              		.cfi_offset 6, -8
 2894              		.cfi_offset 14, -4
 2895 0002 82B0     		sub	sp, sp, #8
 2896              		.cfi_def_cfa_offset 24
 730:dwm1000.c     **** 	DWM_WriteSPI_ext(PMSC, PMSC_CTRL0, pmscCtrl0, 1);
 2897              		.loc 1 730 0
 2898 0004 0124     		movs	r4, #1
 2899 0006 02AD     		add	r5, sp, #8
 2900 0008 05F8044D 		strb	r4, [r5, #-4]!
 731:dwm1000.c     **** 	CyDelay(1u);
ARM GAS  C:\Users\PIERRE~1\AppData\Local\Temp\ccqD7qlI.s 			page 73


 2901              		.loc 1 731 0
 2902 000c 2346     		mov	r3, r4
 2903 000e 2A46     		mov	r2, r5
 2904 0010 0021     		movs	r1, #0
 2905 0012 3620     		movs	r0, #54
 2906 0014 FFF7FEFF 		bl	DWM_WriteSPI_ext
 2907              	.LVL275:
 732:dwm1000.c     **** 
 2908              		.loc 1 732 0
 2909 0018 2046     		mov	r0, r4
 2910 001a FFF7FEFF 		bl	CyDelay
 2911              	.LVL276:
 735:dwm1000.c     **** 	DWM_WriteSPI_ext(PMSC, 0x03, pmscCtrl0, 1),
 2912              		.loc 1 735 0
 2913 001e 0026     		movs	r6, #0
 2914 0020 8DF80460 		strb	r6, [sp, #4]
 736:dwm1000.c     **** 	CyDelay(1u);
 2915              		.loc 1 736 0
 2916 0024 2346     		mov	r3, r4
 2917 0026 2A46     		mov	r2, r5
 2918 0028 0321     		movs	r1, #3
 2919 002a 3620     		movs	r0, #54
 2920 002c FFF7FEFF 		bl	DWM_WriteSPI_ext
 2921              	.LVL277:
 737:dwm1000.c     **** 
 2922              		.loc 1 737 0
 2923 0030 2046     		mov	r0, r4
 2924 0032 FFF7FEFF 		bl	CyDelay
 2925              	.LVL278:
 740:dwm1000.c     **** 	DWM_WriteSPI_ext(PMSC, 0x03, pmscCtrl0, 1);
 2926              		.loc 1 740 0
 2927 0036 F023     		movs	r3, #240
 2928 0038 8DF80430 		strb	r3, [sp, #4]
 741:dwm1000.c     **** 	CyDelay(5u);
 2929              		.loc 1 741 0
 2930 003c 2346     		mov	r3, r4
 2931 003e 2A46     		mov	r2, r5
 2932 0040 0321     		movs	r1, #3
 2933 0042 3620     		movs	r0, #54
 2934 0044 FFF7FEFF 		bl	DWM_WriteSPI_ext
 2935              	.LVL279:
 742:dwm1000.c     **** 
 2936              		.loc 1 742 0
 2937 0048 0520     		movs	r0, #5
 2938 004a FFF7FEFF 		bl	CyDelay
 2939              	.LVL280:
 745:dwm1000.c     **** 	pmscCtrl0[1] = 0x03;
 2940              		.loc 1 745 0
 2941 004e 8DF80440 		strb	r4, [sp, #4]
 746:dwm1000.c     **** 	DWM_WriteSPI_ext(PMSC, PMSC_CTRL0, pmscCtrl0, 2);
 2942              		.loc 1 746 0
 2943 0052 0323     		movs	r3, #3
 2944 0054 8DF80530 		strb	r3, [sp, #5]
 747:dwm1000.c     **** 	CyDelay(1u);
 2945              		.loc 1 747 0
 2946 0058 0223     		movs	r3, #2
 2947 005a 2A46     		mov	r2, r5
ARM GAS  C:\Users\PIERRE~1\AppData\Local\Temp\ccqD7qlI.s 			page 74


 2948 005c 3146     		mov	r1, r6
 2949 005e 3620     		movs	r0, #54
 2950 0060 FFF7FEFF 		bl	DWM_WriteSPI_ext
 2951              	.LVL281:
 748:dwm1000.c     **** 
 2952              		.loc 1 748 0
 2953 0064 2046     		mov	r0, r4
 2954 0066 FFF7FEFF 		bl	CyDelay
 2955              	.LVL282:
 751:dwm1000.c     **** 	opt_ctrl[1] = 0x80;
 2956              		.loc 1 751 0
 2957 006a 8DF80060 		strb	r6, [sp]
 752:dwm1000.c     **** 	DWM_WriteSPI_ext(OTP_IF, 0x06, opt_ctrl, 2);
 2958              		.loc 1 752 0
 2959 006e 8023     		movs	r3, #128
 2960 0070 8DF80130 		strb	r3, [sp, #1]
 753:dwm1000.c     **** 	CyDelay(1u);
 2961              		.loc 1 753 0
 2962 0074 0223     		movs	r3, #2
 2963 0076 6A46     		mov	r2, sp
 2964 0078 0621     		movs	r1, #6
 2965 007a 2D20     		movs	r0, #45
 2966 007c FFF7FEFF 		bl	DWM_WriteSPI_ext
 2967              	.LVL283:
 754:dwm1000.c     **** 
 2968              		.loc 1 754 0
 2969 0080 2046     		mov	r0, r4
 2970 0082 FFF7FEFF 		bl	CyDelay
 2971              	.LVL284:
 756:dwm1000.c     **** 	pmscCtrl0[1] = 0x02;
 2972              		.loc 1 756 0
 2973 0086 8DF80460 		strb	r6, [sp, #4]
 757:dwm1000.c     **** 	DWM_WriteSPI_ext(PMSC, PMSC_CTRL0, pmscCtrl0, 2);
 2974              		.loc 1 757 0
 2975 008a 0223     		movs	r3, #2
 2976 008c 8DF80530 		strb	r3, [sp, #5]
 758:dwm1000.c     **** }
 2977              		.loc 1 758 0
 2978 0090 2A46     		mov	r2, r5
 2979 0092 3146     		mov	r1, r6
 2980 0094 3620     		movs	r0, #54
 2981 0096 FFF7FEFF 		bl	DWM_WriteSPI_ext
 2982              	.LVL285:
 759:dwm1000.c     **** 
 2983              		.loc 1 759 0
 2984 009a 02B0     		add	sp, sp, #8
 2985              		.cfi_def_cfa_offset 16
 2986              		@ sp needed
 2987 009c 70BD     		pop	{r4, r5, r6, pc}
 2988              		.cfi_endproc
 2989              	.LFE100:
 2990              		.size	DWM_Reset, .-DWM_Reset
 2991 009e 00BF     		.section	.text.CONFIG_Init,"ax",%progbits
 2992              		.align	2
 2993              		.thumb
 2994              		.thumb_func
 2995              		.type	CONFIG_Init, %function
ARM GAS  C:\Users\PIERRE~1\AppData\Local\Temp\ccqD7qlI.s 			page 75


 2996              	CONFIG_Init:
 2997              	.LFB97:
 611:dwm1000.c     **** 	DWM_Reset();
 2998              		.loc 1 611 0
 2999              		.cfi_startproc
 3000              		@ args = 0, pretend = 0, frame = 0
 3001              		@ frame_needed = 0, uses_anonymous_args = 0
 3002 0000 08B5     		push	{r3, lr}
 3003              		.cfi_def_cfa_offset 8
 3004              		.cfi_offset 3, -8
 3005              		.cfi_offset 14, -4
 612:dwm1000.c     **** 	TRANSMITTER_Init();
 3006              		.loc 1 612 0
 3007 0002 FFF7FEFF 		bl	DWM_Reset
 3008              	.LVL286:
 613:dwm1000.c     **** 	RECEIVER_Init();
 3009              		.loc 1 613 0
 3010 0006 FFF7FEFF 		bl	TRANSMITTER_Init
 3011              	.LVL287:
 614:dwm1000.c     **** 	config.channel = _5;
 3012              		.loc 1 614 0
 3013 000a FFF7FEFF 		bl	RECEIVER_Init
 3014              	.LVL288:
 615:dwm1000.c     **** 	DWM_UpdateChannel();
 3015              		.loc 1 615 0
 3016 000e 0522     		movs	r2, #5
 3017 0010 024B     		ldr	r3, .L282
 3018 0012 9A74     		strb	r2, [r3, #18]
 616:dwm1000.c     **** 
 3019              		.loc 1 616 0
 3020 0014 FFF7FEFF 		bl	DWM_UpdateChannel
 3021              	.LVL289:
 3022 0018 08BD     		pop	{r3, pc}
 3023              	.L283:
 3024 001a 00BF     		.align	2
 3025              	.L282:
 3026 001c 00000000 		.word	.LANCHOR0
 3027              		.cfi_endproc
 3028              	.LFE97:
 3029              		.size	CONFIG_Init, .-CONFIG_Init
 3030              		.section	.text.DWM_Init,"ax",%progbits
 3031              		.align	2
 3032              		.global	DWM_Init
 3033              		.thumb
 3034              		.thumb_func
 3035              		.type	DWM_Init, %function
 3036              	DWM_Init:
 3037              	.LFB98:
 627:dwm1000.c     ****     CONFIG_Init();
 3038              		.loc 1 627 0
 3039              		.cfi_startproc
 3040              		@ args = 0, pretend = 0, frame = 24
 3041              		@ frame_needed = 0, uses_anonymous_args = 0
 3042 0000 30B5     		push	{r4, r5, lr}
 3043              		.cfi_def_cfa_offset 12
 3044              		.cfi_offset 4, -12
 3045              		.cfi_offset 5, -8
ARM GAS  C:\Users\PIERRE~1\AppData\Local\Temp\ccqD7qlI.s 			page 76


 3046              		.cfi_offset 14, -4
 3047 0002 87B0     		sub	sp, sp, #28
 3048              		.cfi_def_cfa_offset 40
 628:dwm1000.c     **** 	uint8_t SPIRxBuffer8[4];
 3049              		.loc 1 628 0
 3050 0004 FFF7FEFF 		bl	CONFIG_Init
 3051              	.LVL290:
 632:dwm1000.c     **** 	uint32_t deviceID =(SPIRxBuffer8[3] << 24) | (SPIRxBuffer8[2] << 16) | (SPIRxBuffer8[1] << 8) | SP
 3052              		.loc 1 632 0
 3053 0008 0423     		movs	r3, #4
 3054 000a 05AA     		add	r2, sp, #20
 3055 000c 4FF6FF71 		movw	r1, #65535
 3056 0010 0020     		movs	r0, #0
 3057 0012 FFF7FEFF 		bl	DWM_ReadSPI_ext
 3058              	.LVL291:
 633:dwm1000.c     ****     if (deviceID != 0xDECA0130){
 3059              		.loc 1 633 0
 3060 0016 9DF81720 		ldrb	r2, [sp, #23]	@ zero_extendqisi2
 3061 001a 9DF81630 		ldrb	r3, [sp, #22]	@ zero_extendqisi2
 3062 001e 1B04     		lsls	r3, r3, #16
 3063 0020 43EA0263 		orr	r3, r3, r2, lsl #24
 3064 0024 9DF81520 		ldrb	r2, [sp, #21]	@ zero_extendqisi2
 3065 0028 43EA0223 		orr	r3, r3, r2, lsl #8
 3066 002c 9DF81420 		ldrb	r2, [sp, #20]	@ zero_extendqisi2
 3067 0030 1343     		orrs	r3, r3, r2
 3068              	.LVL292:
 634:dwm1000.c     **** 		//printf("Wrong DW ID \n");
 3069              		.loc 1 634 0
 3070 0032 4C4A     		ldr	r2, .L290
 3071 0034 9342     		cmp	r3, r2
 3072 0036 03D0     		beq	.L285
 3073              	.LVL293:
 3074              	.L286:
 639:dwm1000.c     **** 		}
 3075              		.loc 1 639 0 discriminator 1
 3076 0038 6420     		movs	r0, #100
 3077 003a FFF7FEFF 		bl	CyDelay
 3078              	.LVL294:
 3079 003e FBE7     		b	.L286
 3080              	.LVL295:
 3081              	.L285:
 648:dwm1000.c     **** 	DWM_WriteSPI_ext(AGC_CTRL, 0x0C, agc_tune2, 4);
 3082              		.loc 1 648 0
 3083 0040 494B     		ldr	r3, .L290+4
 3084              	.LVL296:
 3085 0042 1868     		ldr	r0, [r3]	@ unaligned
 3086 0044 0490     		str	r0, [sp, #16]	@ unaligned
 649:dwm1000.c     **** 
 3087              		.loc 1 649 0
 3088 0046 0423     		movs	r3, #4
 3089 0048 04AA     		add	r2, sp, #16
 3090 004a 0C21     		movs	r1, #12
 3091 004c 2320     		movs	r0, #35
 3092 004e FFF7FEFF 		bl	DWM_WriteSPI_ext
 3093              	.LVL297:
 652:dwm1000.c     **** 	//uint8_t lde_cfg1[] = {0x07};	// NLOS CONFIGURATION
 3094              		.loc 1 652 0
ARM GAS  C:\Users\PIERRE~1\AppData\Local\Temp\ccqD7qlI.s 			page 77


 3095 0052 06AA     		add	r2, sp, #24
 3096 0054 6D23     		movs	r3, #109
 3097 0056 02F80C3D 		strb	r3, [r2, #-12]!
 654:dwm1000.c     **** 
 3098              		.loc 1 654 0
 3099 005a 0123     		movs	r3, #1
 3100 005c 40F60601 		movw	r1, #2054
 3101 0060 2E20     		movs	r0, #46
 3102 0062 FFF7FEFF 		bl	DWM_WriteSPI_ext
 3103              	.LVL298:
 665:dwm1000.c     **** 	DWM_ReadSPI_ext(SYS_MASK, NO_SUB, sysMask, SYS_MASK_LEN);
 3104              		.loc 1 665 0
 3105 0066 0025     		movs	r5, #0
 3106 0068 06AC     		add	r4, sp, #24
 3107 006a 44F8105D 		str	r5, [r4, #-16]!
 666:dwm1000.c     **** 	setBit(sysMask,SYS_MASK_LEN,7,1);// TX OK
 3108              		.loc 1 666 0
 3109 006e 0423     		movs	r3, #4
 3110 0070 2246     		mov	r2, r4
 3111 0072 4FF6FF71 		movw	r1, #65535
 3112 0076 0E20     		movs	r0, #14
 3113 0078 FFF7FEFF 		bl	DWM_ReadSPI_ext
 3114              	.LVL299:
 667:dwm1000.c     **** 	//setBit(sysMask,SYS_MASK_LEN,10,1);// RX OK
 3115              		.loc 1 667 0
 3116 007c 0123     		movs	r3, #1
 3117 007e 0722     		movs	r2, #7
 3118 0080 0421     		movs	r1, #4
 3119 0082 2046     		mov	r0, r4
 3120 0084 FFF7FEFF 		bl	setBit
 3121              	.LVL300:
 669:dwm1000.c     **** 	//setBit(sysMask,SYS_MASK_LEN,14,1);// RX OK
 3122              		.loc 1 669 0
 3123 0088 0123     		movs	r3, #1
 3124 008a 0D22     		movs	r2, #13
 3125 008c 0421     		movs	r1, #4
 3126 008e 2046     		mov	r0, r4
 3127 0090 FFF7FEFF 		bl	setBit
 3128              	.LVL301:
 671:dwm1000.c     **** 	setBit(sysMask,SYS_MASK_LEN,15,1);// RX ERROR
 3129              		.loc 1 671 0
 3130 0094 0123     		movs	r3, #1
 3131 0096 0C22     		movs	r2, #12
 3132 0098 0421     		movs	r1, #4
 3133 009a 2046     		mov	r0, r4
 3134 009c FFF7FEFF 		bl	setBit
 3135              	.LVL302:
 672:dwm1000.c     **** 	setBit(sysMask,SYS_MASK_LEN,16,1);// RX ERROR
 3136              		.loc 1 672 0
 3137 00a0 0123     		movs	r3, #1
 3138 00a2 0F22     		movs	r2, #15
 3139 00a4 0421     		movs	r1, #4
 3140 00a6 2046     		mov	r0, r4
 3141 00a8 FFF7FEFF 		bl	setBit
 3142              	.LVL303:
 673:dwm1000.c     **** 	setBit(sysMask,SYS_MASK_LEN,17,1);// RX TIMEOUT
 3143              		.loc 1 673 0
ARM GAS  C:\Users\PIERRE~1\AppData\Local\Temp\ccqD7qlI.s 			page 78


 3144 00ac 0123     		movs	r3, #1
 3145 00ae 1022     		movs	r2, #16
 3146 00b0 0421     		movs	r1, #4
 3147 00b2 2046     		mov	r0, r4
 3148 00b4 FFF7FEFF 		bl	setBit
 3149              	.LVL304:
 674:dwm1000.c     **** 	setBit(sysMask,SYS_MASK_LEN,18,1);// RX ERROR
 3150              		.loc 1 674 0
 3151 00b8 0123     		movs	r3, #1
 3152 00ba 1122     		movs	r2, #17
 3153 00bc 0421     		movs	r1, #4
 3154 00be 2046     		mov	r0, r4
 3155 00c0 FFF7FEFF 		bl	setBit
 3156              	.LVL305:
 675:dwm1000.c     **** 	setBit(sysMask,SYS_MASK_LEN,21,1);// RX ERROR
 3157              		.loc 1 675 0
 3158 00c4 0123     		movs	r3, #1
 3159 00c6 1222     		movs	r2, #18
 3160 00c8 0421     		movs	r1, #4
 3161 00ca 2046     		mov	r0, r4
 3162 00cc FFF7FEFF 		bl	setBit
 3163              	.LVL306:
 676:dwm1000.c     **** 	setBit(sysMask,SYS_MASK_LEN,26,1);// RX ERROR
 3164              		.loc 1 676 0
 3165 00d0 0123     		movs	r3, #1
 3166 00d2 1522     		movs	r2, #21
 3167 00d4 0421     		movs	r1, #4
 3168 00d6 2046     		mov	r0, r4
 3169 00d8 FFF7FEFF 		bl	setBit
 3170              	.LVL307:
 677:dwm1000.c     **** 	DWM_WriteSPI_ext(SYS_MASK, NO_SUB, sysMask, SYS_MASK_LEN);
 3171              		.loc 1 677 0
 3172 00dc 0123     		movs	r3, #1
 3173 00de 1A22     		movs	r2, #26
 3174 00e0 0421     		movs	r1, #4
 3175 00e2 2046     		mov	r0, r4
 3176 00e4 FFF7FEFF 		bl	setBit
 3177              	.LVL308:
 678:dwm1000.c     ****     
 3178              		.loc 1 678 0
 3179 00e8 0423     		movs	r3, #4
 3180 00ea 2246     		mov	r2, r4
 3181 00ec 4FF6FF71 		movw	r1, #65535
 3182 00f0 0E20     		movs	r0, #14
 3183 00f2 FFF7FEFF 		bl	DWM_WriteSPI_ext
 3184              	.LVL309:
 684:dwm1000.c     ****     delayuint8[0] = (antennaDelay & 0xFF);
 3185              		.loc 1 684 0
 3186 00f6 8023     		movs	r3, #128
 3187 00f8 8DF80530 		strb	r3, [sp, #5]
 685:dwm1000.c     ****     DWM_WriteSPI_ext(TX_ANTD, NO_SUB, delayuint8, 2);
 3188              		.loc 1 685 0
 3189 00fc 06AC     		add	r4, sp, #24
 3190 00fe 9D23     		movs	r3, #157
 3191 0100 04F8143D 		strb	r3, [r4, #-20]!
 686:dwm1000.c     ****     DWM_WriteSPI_ext(LDE_CTRL, 0x1804, delayuint8, 2);
 3192              		.loc 1 686 0
ARM GAS  C:\Users\PIERRE~1\AppData\Local\Temp\ccqD7qlI.s 			page 79


 3193 0104 0223     		movs	r3, #2
 3194 0106 2246     		mov	r2, r4
 3195 0108 4FF6FF71 		movw	r1, #65535
 3196 010c 1820     		movs	r0, #24
 3197 010e FFF7FEFF 		bl	DWM_WriteSPI_ext
 3198              	.LVL310:
 687:dwm1000.c     **** 	
 3199              		.loc 1 687 0
 3200 0112 0223     		movs	r3, #2
 3201 0114 2246     		mov	r2, r4
 3202 0116 41F60401 		movw	r1, #6148
 3203 011a 2E20     		movs	r0, #46
 3204 011c FFF7FEFF 		bl	DWM_WriteSPI_ext
 3205              	.LVL311:
 689:dwm1000.c     **** 	DWM_ReadSPI_ext(DEV_ID, NO_SUB, SPIRxBuffer8, DEV_ID_LEN);
 3206              		.loc 1 689 0
 3207 0120 6420     		movs	r0, #100
 3208 0122 FFF7FEFF 		bl	CyDelay
 3209              	.LVL312:
 690:dwm1000.c     **** 	deviceID =(SPIRxBuffer8[3] << 24) | (SPIRxBuffer8[2] << 16) | (SPIRxBuffer8[1] << 8) | SPIRxBuffer
 3210              		.loc 1 690 0
 3211 0126 0423     		movs	r3, #4
 3212 0128 05AA     		add	r2, sp, #20
 3213 012a 4FF6FF71 		movw	r1, #65535
 3214 012e 2846     		mov	r0, r5
 3215 0130 FFF7FEFF 		bl	DWM_ReadSPI_ext
 3216              	.LVL313:
 691:dwm1000.c     **** 
 3217              		.loc 1 691 0
 3218 0134 9DF81720 		ldrb	r2, [sp, #23]	@ zero_extendqisi2
 3219 0138 9DF81630 		ldrb	r3, [sp, #22]	@ zero_extendqisi2
 3220 013c 1B04     		lsls	r3, r3, #16
 3221 013e 43EA0263 		orr	r3, r3, r2, lsl #24
 3222 0142 9DF81520 		ldrb	r2, [sp, #21]	@ zero_extendqisi2
 3223 0146 43EA0223 		orr	r3, r3, r2, lsl #8
 3224 014a 9DF81420 		ldrb	r2, [sp, #20]	@ zero_extendqisi2
 3225 014e 1343     		orrs	r3, r3, r2
 3226              	.LVL314:
 693:dwm1000.c     **** 		//printf("Wrong DW ID \n");
 3227              		.loc 1 693 0
 3228 0150 044A     		ldr	r2, .L290
 3229 0152 9342     		cmp	r3, r2
 3230 0154 03D0     		beq	.L284
 3231              	.LVL315:
 3232              	.L288:
 698:dwm1000.c     **** 		}
 3233              		.loc 1 698 0 discriminator 1
 3234 0156 6420     		movs	r0, #100
 3235 0158 FFF7FEFF 		bl	CyDelay
 3236              	.LVL316:
 3237 015c FBE7     		b	.L288
 3238              	.LVL317:
 3239              	.L284:
 702:dwm1000.c     **** 	
 3240              		.loc 1 702 0
 3241 015e 07B0     		add	sp, sp, #28
 3242              		.cfi_def_cfa_offset 12
ARM GAS  C:\Users\PIERRE~1\AppData\Local\Temp\ccqD7qlI.s 			page 80


 3243              		@ sp needed
 3244 0160 30BD     		pop	{r4, r5, pc}
 3245              	.L291:
 3246 0162 00BF     		.align	2
 3247              	.L290:
 3248 0164 3001CADE 		.word	-557186768
 3249 0168 00000000 		.word	.LANCHOR1
 3250              		.cfi_endproc
 3251              	.LFE98:
 3252              		.size	DWM_Init, .-DWM_Init
 3253              		.section	.text.idle,"ax",%progbits
 3254              		.align	2
 3255              		.global	idle
 3256              		.thumb
 3257              		.thumb_func
 3258              		.type	idle, %function
 3259              	idle:
 3260              	.LFB99:
 705:dwm1000.c     **** 	// Set the device in IDLE mode
 3261              		.loc 1 705 0
 3262              		.cfi_startproc
 3263              		@ args = 0, pretend = 0, frame = 8
 3264              		@ frame_needed = 0, uses_anonymous_args = 0
 3265 0000 10B5     		push	{r4, lr}
 3266              		.cfi_def_cfa_offset 8
 3267              		.cfi_offset 4, -8
 3268              		.cfi_offset 14, -4
 3269 0002 82B0     		sub	sp, sp, #8
 3270              		.cfi_def_cfa_offset 16
 707:dwm1000.c     **** 	uint8_t ack[4] = {0};
 3271              		.loc 1 707 0
 3272 0004 0023     		movs	r3, #0
 3273 0006 0193     		str	r3, [sp, #4]
 3274 0008 4022     		movs	r2, #64
 3275 000a 8DF80420 		strb	r2, [sp, #4]
 708:dwm1000.c     **** 	// Update the DWM1000 module
 3276              		.loc 1 708 0
 3277 000e 0093     		str	r3, [sp]
 710:dwm1000.c     **** 	IRQ_Disable();
 3278              		.loc 1 710 0
 3279 0010 FFF7FEFF 		bl	IRQ_GetState
 3280              	.LVL318:
 3281 0014 0446     		mov	r4, r0
 3282              	.LVL319:
 711:dwm1000.c     **** 	DWM_WriteSPI_ext(SYS_CTRL, NO_SUB, sysCtrl, 4);
 3283              		.loc 1 711 0
 3284 0016 FFF7FEFF 		bl	IRQ_Disable
 3285              	.LVL320:
 712:dwm1000.c     **** 
 3286              		.loc 1 712 0
 3287 001a 0423     		movs	r3, #4
 3288 001c 0DEB0302 		add	r2, sp, r3
 3289 0020 4FF6FF71 		movw	r1, #65535
 3290 0024 0D20     		movs	r0, #13
 3291 0026 FFF7FEFF 		bl	DWM_WriteSPI_ext
 3292              	.LVL321:
 714:dwm1000.c     **** 	uint32_t Rx_mask = RX_FINISHED_MASK | RX_ERROR_MASK;
ARM GAS  C:\Users\PIERRE~1\AppData\Local\Temp\ccqD7qlI.s 			page 81


 3293              		.loc 1 714 0
 3294 002a 0123     		movs	r3, #1
 3295 002c 0722     		movs	r2, #7
 3296 002e 0421     		movs	r1, #4
 3297 0030 6846     		mov	r0, sp
 3298 0032 FFF7FEFF 		bl	setBit
 3299              	.LVL322:
 717:dwm1000.c     **** 	ack[2] |= Rx_mask >> 16;
 3300              		.loc 1 717 0
 3301 0036 9DF80130 		ldrb	r3, [sp, #1]	@ zero_extendqisi2
 3302 003a 63F00B03 		orn	r3, r3, #11
 3303 003e 8DF80130 		strb	r3, [sp, #1]
 718:dwm1000.c     **** 	ack[3] |= Rx_mask >> 24;
 3304              		.loc 1 718 0
 3305 0042 9DF80230 		ldrb	r3, [sp, #2]	@ zero_extendqisi2
 3306 0046 43F02703 		orr	r3, r3, #39
 3307 004a 8DF80230 		strb	r3, [sp, #2]
 719:dwm1000.c     **** 	// clear IRQ flags on DW
 3308              		.loc 1 719 0
 3309 004e 9DF80330 		ldrb	r3, [sp, #3]	@ zero_extendqisi2
 3310 0052 43F00403 		orr	r3, r3, #4
 3311 0056 8DF80330 		strb	r3, [sp, #3]
 721:dwm1000.c     **** 	if(prim){IRQ_Enable();}
 3312              		.loc 1 721 0
 3313 005a 0423     		movs	r3, #4
 3314 005c 6A46     		mov	r2, sp
 3315 005e 4FF6FF71 		movw	r1, #65535
 3316 0062 0F20     		movs	r0, #15
 3317 0064 FFF7FEFF 		bl	DWM_WriteSPI_ext
 3318              	.LVL323:
 722:dwm1000.c     **** }
 3319              		.loc 1 722 0
 3320 0068 0CB1     		cbz	r4, .L292
 722:dwm1000.c     **** }
 3321              		.loc 1 722 0 is_stmt 0 discriminator 1
 3322 006a FFF7FEFF 		bl	IRQ_Enable
 3323              	.LVL324:
 3324              	.L292:
 723:dwm1000.c     **** 
 3325              		.loc 1 723 0 is_stmt 1
 3326 006e 02B0     		add	sp, sp, #8
 3327              		.cfi_def_cfa_offset 8
 3328              		@ sp needed
 3329 0070 10BD     		pop	{r4, pc}
 3330              		.cfi_endproc
 3331              	.LFE99:
 3332              		.size	idle, .-idle
 3333 0072 00BF     		.section	.text.DWM_Reset_Rx,"ax",%progbits
 3334              		.align	2
 3335              		.global	DWM_Reset_Rx
 3336              		.thumb
 3337              		.thumb_func
 3338              		.type	DWM_Reset_Rx, %function
 3339              	DWM_Reset_Rx:
 3340              	.LFB101:
 761:dwm1000.c     **** 	uint8_t pmscCtrl0[] = {0xE0};
 3341              		.loc 1 761 0
ARM GAS  C:\Users\PIERRE~1\AppData\Local\Temp\ccqD7qlI.s 			page 82


 3342              		.cfi_startproc
 3343              		@ args = 0, pretend = 0, frame = 8
 3344              		@ frame_needed = 0, uses_anonymous_args = 0
 3345 0000 10B5     		push	{r4, lr}
 3346              		.cfi_def_cfa_offset 8
 3347              		.cfi_offset 4, -8
 3348              		.cfi_offset 14, -4
 3349 0002 82B0     		sub	sp, sp, #8
 3350              		.cfi_def_cfa_offset 16
 762:dwm1000.c     **** 	DWM_WriteSPI_ext(PMSC, 0x03, pmscCtrl0, 1);
 3351              		.loc 1 762 0
 3352 0004 02AC     		add	r4, sp, #8
 3353 0006 E023     		movs	r3, #224
 3354 0008 04F8043D 		strb	r3, [r4, #-4]!
 763:dwm1000.c     **** 
 3355              		.loc 1 763 0
 3356 000c 0123     		movs	r3, #1
 3357 000e 2246     		mov	r2, r4
 3358 0010 0321     		movs	r1, #3
 3359 0012 3620     		movs	r0, #54
 3360 0014 FFF7FEFF 		bl	DWM_WriteSPI_ext
 3361              	.LVL325:
 765:dwm1000.c     **** 	DWM_WriteSPI_ext(PMSC, 0x03, pmscCtrl0, 1);
 3362              		.loc 1 765 0
 3363 0018 F023     		movs	r3, #240
 3364 001a 8DF80430 		strb	r3, [sp, #4]
 766:dwm1000.c     **** }
 3365              		.loc 1 766 0
 3366 001e 0123     		movs	r3, #1
 3367 0020 2246     		mov	r2, r4
 3368 0022 0321     		movs	r1, #3
 3369 0024 3620     		movs	r0, #54
 3370 0026 FFF7FEFF 		bl	DWM_WriteSPI_ext
 3371              	.LVL326:
 767:dwm1000.c     **** 
 3372              		.loc 1 767 0
 3373 002a 02B0     		add	sp, sp, #8
 3374              		.cfi_def_cfa_offset 8
 3375              		@ sp needed
 3376 002c 10BD     		pop	{r4, pc}
 3377              		.cfi_endproc
 3378              	.LFE101:
 3379              		.size	DWM_Reset_Rx, .-DWM_Reset_Rx
 3380 002e 00BF     		.section	.text.DWM_Enable_Rx,"ax",%progbits
 3381              		.align	2
 3382              		.global	DWM_Enable_Rx
 3383              		.thumb
 3384              		.thumb_func
 3385              		.type	DWM_Enable_Rx, %function
 3386              	DWM_Enable_Rx:
 3387              	.LFB102:
 769:dwm1000.c     **** 	uint8_t TxBuf8[4] = {0};
 3388              		.loc 1 769 0
 3389              		.cfi_startproc
 3390              		@ args = 0, pretend = 0, frame = 8
 3391              		@ frame_needed = 0, uses_anonymous_args = 0
 3392 0000 10B5     		push	{r4, lr}
ARM GAS  C:\Users\PIERRE~1\AppData\Local\Temp\ccqD7qlI.s 			page 83


 3393              		.cfi_def_cfa_offset 8
 3394              		.cfi_offset 4, -8
 3395              		.cfi_offset 14, -4
 3396 0002 82B0     		sub	sp, sp, #8
 3397              		.cfi_def_cfa_offset 16
 770:dwm1000.c     **** 	setBit(TxBuf8,4,8,1);
 3398              		.loc 1 770 0
 3399 0004 02AC     		add	r4, sp, #8
 3400 0006 0023     		movs	r3, #0
 3401 0008 44F8043D 		str	r3, [r4, #-4]!
 771:dwm1000.c     **** 	DWM_WriteSPI_ext(SYS_CTRL, NO_SUB, TxBuf8, 4);
 3402              		.loc 1 771 0
 3403 000c 0123     		movs	r3, #1
 3404 000e 0822     		movs	r2, #8
 3405 0010 0421     		movs	r1, #4
 3406 0012 2046     		mov	r0, r4
 3407 0014 FFF7FEFF 		bl	setBit
 3408              	.LVL327:
 772:dwm1000.c     **** }
 3409              		.loc 1 772 0
 3410 0018 0423     		movs	r3, #4
 3411 001a 2246     		mov	r2, r4
 3412 001c 4FF6FF71 		movw	r1, #65535
 3413 0020 0D20     		movs	r0, #13
 3414 0022 FFF7FEFF 		bl	DWM_WriteSPI_ext
 3415              	.LVL328:
 773:dwm1000.c     **** 
 3416              		.loc 1 773 0
 3417 0026 02B0     		add	sp, sp, #8
 3418              		.cfi_def_cfa_offset 8
 3419              		@ sp needed
 3420 0028 10BD     		pop	{r4, pc}
 3421              		.cfi_endproc
 3422              	.LFE102:
 3423              		.size	DWM_Enable_Rx, .-DWM_Enable_Rx
 3424 002a 00BF     		.section	.text.DWM_SendData,"ax",%progbits
 3425              		.align	2
 3426              		.global	DWM_SendData
 3427              		.thumb
 3428              		.thumb_func
 3429              		.type	DWM_SendData, %function
 3430              	DWM_SendData:
 3431              	.LFB108:
 879:dwm1000.c     **** /* ------------------------------------- */
 880:dwm1000.c     **** /*  DWM1000 COMMUNICATIONS	             */
 881:dwm1000.c     **** /* ------------------------------------- */
 882:dwm1000.c     **** 
 883:dwm1000.c     **** void DWM_SendData(uint8_t* data, uint8_t len, uint8_t waitResponse){ // data limited to 125 byte lo
 3432              		.loc 1 883 0
 3433              		.cfi_startproc
 3434              		@ args = 0, pretend = 0, frame = 8
 3435              		@ frame_needed = 0, uses_anonymous_args = 0
 3436              	.LVL329:
 3437 0000 30B5     		push	{r4, r5, lr}
 3438              		.cfi_def_cfa_offset 12
 3439              		.cfi_offset 4, -12
 3440              		.cfi_offset 5, -8
ARM GAS  C:\Users\PIERRE~1\AppData\Local\Temp\ccqD7qlI.s 			page 84


 3441              		.cfi_offset 14, -4
 3442 0002 83B0     		sub	sp, sp, #12
 3443              		.cfi_def_cfa_offset 24
 3444 0004 0B46     		mov	r3, r1
 3445 0006 1546     		mov	r5, r2
 884:dwm1000.c     **** 	
 885:dwm1000.c     **** 	uint8_t fctrl = len+2; // FCS is 2-bytes long
 3446              		.loc 1 885 0
 3447 0008 8A1C     		adds	r2, r1, #2
 3448              	.LVL330:
 3449 000a 02AC     		add	r4, sp, #8
 3450 000c 04F8012D 		strb	r2, [r4, #-1]!
 886:dwm1000.c     **** 
 887:dwm1000.c     **** 	DWM_WriteSPI_ext(TX_BUFFER, NO_SUB, data, len);
 3451              		.loc 1 887 0
 3452 0010 0246     		mov	r2, r0
 3453 0012 4FF6FF71 		movw	r1, #65535
 3454              	.LVL331:
 3455 0016 0920     		movs	r0, #9
 3456              	.LVL332:
 3457 0018 FFF7FEFF 		bl	DWM_WriteSPI_ext
 3458              	.LVL333:
 888:dwm1000.c     **** 	DWM_WriteSPI_ext(TX_FCTRL, NO_SUB, &fctrl, 1);	// maj frame length
 3459              		.loc 1 888 0
 3460 001c 0123     		movs	r3, #1
 3461 001e 2246     		mov	r2, r4
 3462 0020 4FF6FF71 		movw	r1, #65535
 3463 0024 0820     		movs	r0, #8
 3464 0026 FFF7FEFF 		bl	DWM_WriteSPI_ext
 3465              	.LVL334:
 889:dwm1000.c     ****     
 890:dwm1000.c     **** 	// START SENDING
 891:dwm1000.c     **** 	uint8_t sysCtrl[4] = {0};
 3466              		.loc 1 891 0
 3467 002a 02AA     		add	r2, sp, #8
 3468 002c 0023     		movs	r3, #0
 3469 002e 42F8083D 		str	r3, [r2, #-8]!
 892:dwm1000.c     ****     
 893:dwm1000.c     **** 	DWM_ReadSPI_ext(SYS_CTRL, NO_SUB, sysCtrl, 1);
 3470              		.loc 1 893 0
 3471 0032 0123     		movs	r3, #1
 3472 0034 4FF6FF71 		movw	r1, #65535
 3473 0038 0D20     		movs	r0, #13
 3474 003a FFF7FEFF 		bl	DWM_ReadSPI_ext
 3475              	.LVL335:
 894:dwm1000.c     ****     
 895:dwm1000.c     **** 	sysCtrl[0] |= 1<<TXSTRT_BIT;
 3476              		.loc 1 895 0
 3477 003e 9DF80030 		ldrb	r3, [sp]	@ zero_extendqisi2
 3478 0042 43F00203 		orr	r3, r3, #2
 896:dwm1000.c     **** 	if(waitResponse){
 3479              		.loc 1 896 0
 3480 0046 25B1     		cbz	r5, .L300
 897:dwm1000.c     **** 	sysCtrl[0] |= 1<<WAIT4RESP_BIT;
 3481              		.loc 1 897 0
 3482 0048 63F07F03 		orn	r3, r3, #127
 3483 004c 8DF80030 		strb	r3, [sp]
ARM GAS  C:\Users\PIERRE~1\AppData\Local\Temp\ccqD7qlI.s 			page 85


 3484 0050 03E0     		b	.L301
 3485              	.L300:
 898:dwm1000.c     **** 	} else {
 899:dwm1000.c     **** 	sysCtrl[0] &= ~(1<<WAIT4RESP_BIT);
 3486              		.loc 1 899 0
 3487 0052 03F07F03 		and	r3, r3, #127
 3488 0056 8DF80030 		strb	r3, [sp]
 3489              	.L301:
 900:dwm1000.c     **** 	}
 901:dwm1000.c     **** 	// Set the device in TX mode
 902:dwm1000.c     **** 	// Update the DWM1000 module
 903:dwm1000.c     **** 	DWM_WriteSPI_ext(SYS_CTRL, NO_SUB, sysCtrl, 4);
 3490              		.loc 1 903 0
 3491 005a 0423     		movs	r3, #4
 3492 005c 6A46     		mov	r2, sp
 3493 005e 4FF6FF71 		movw	r1, #65535
 3494 0062 0D20     		movs	r0, #13
 3495 0064 FFF7FEFF 		bl	DWM_WriteSPI_ext
 3496              	.LVL336:
 904:dwm1000.c     **** }
 3497              		.loc 1 904 0
 3498 0068 03B0     		add	sp, sp, #12
 3499              		.cfi_def_cfa_offset 12
 3500              		@ sp needed
 3501 006a 30BD     		pop	{r4, r5, pc}
 3502              		.cfi_endproc
 3503              	.LFE108:
 3504              		.size	DWM_SendData, .-DWM_SendData
 3505              		.section	.text.DWM_ReceiveData,"ax",%progbits
 3506              		.align	2
 3507              		.global	DWM_ReceiveData
 3508              		.thumb
 3509              		.thumb_func
 3510              		.type	DWM_ReceiveData, %function
 3511              	DWM_ReceiveData:
 3512              	.LFB109:
 905:dwm1000.c     **** 
 906:dwm1000.c     **** void DWM_ReceiveData(uint8_t* buffer){
 3513              		.loc 1 906 0
 3514              		.cfi_startproc
 3515              		@ args = 0, pretend = 0, frame = 8
 3516              		@ frame_needed = 0, uses_anonymous_args = 0
 3517              	.LVL337:
 3518 0000 10B5     		push	{r4, lr}
 3519              		.cfi_def_cfa_offset 8
 3520              		.cfi_offset 4, -8
 3521              		.cfi_offset 14, -4
 3522 0002 82B0     		sub	sp, sp, #8
 3523              		.cfi_def_cfa_offset 16
 3524 0004 0446     		mov	r4, r0
 907:dwm1000.c     **** 	uint8_t flen;
 908:dwm1000.c     **** 	DWM_ReadSPI_ext(RX_FINFO, NO_SUB, &flen, 1);	// Get frame length
 3525              		.loc 1 908 0
 3526 0006 0123     		movs	r3, #1
 3527 0008 0DF10702 		add	r2, sp, #7
 3528 000c 4FF6FF71 		movw	r1, #65535
 3529 0010 1020     		movs	r0, #16
ARM GAS  C:\Users\PIERRE~1\AppData\Local\Temp\ccqD7qlI.s 			page 86


 3530              	.LVL338:
 3531 0012 FFF7FEFF 		bl	DWM_ReadSPI_ext
 3532              	.LVL339:
 909:dwm1000.c     **** 	flen = flen-2; // FCS 2 Byte long	
 3533              		.loc 1 909 0
 3534 0016 9DF80730 		ldrb	r3, [sp, #7]	@ zero_extendqisi2
 3535 001a 023B     		subs	r3, r3, #2
 3536 001c DBB2     		uxtb	r3, r3
 3537 001e 8DF80730 		strb	r3, [sp, #7]
 910:dwm1000.c     **** 	DWM_ReadSPI_ext(RX_BUFFER, NO_SUB, buffer, flen); //reading data
 3538              		.loc 1 910 0
 3539 0022 2246     		mov	r2, r4
 3540 0024 4FF6FF71 		movw	r1, #65535
 3541 0028 1120     		movs	r0, #17
 3542 002a FFF7FEFF 		bl	DWM_ReadSPI_ext
 3543              	.LVL340:
 911:dwm1000.c     ****     if(flen>5){
 3544              		.loc 1 911 0
 3545 002e 9DF80730 		ldrb	r3, [sp, #7]	@ zero_extendqisi2
 3546 0032 052B     		cmp	r3, #5
 3547 0034 16D9     		bls	.L303
 3548              	.LBB2:
 912:dwm1000.c     ****         uint8_t correction=0;
 3549              		.loc 1 912 0
 3550 0036 02AA     		add	r2, sp, #8
 3551 0038 0023     		movs	r3, #0
 3552 003a 02F8023D 		strb	r3, [r2, #-2]!
 913:dwm1000.c     ****         DWM_ReadSPI_ext(RX_BUFFER, NO_SUB, &correction, 1); //reading data
 3553              		.loc 1 913 0
 3554 003e 0123     		movs	r3, #1
 3555 0040 4FF6FF71 		movw	r1, #65535
 3556 0044 1120     		movs	r0, #17
 3557 0046 FFF7FEFF 		bl	DWM_ReadSPI_ext
 3558              	.LVL341:
 914:dwm1000.c     ****         uint8_t dec=13;
 3559              		.loc 1 914 0
 3560 004a 0D23     		movs	r3, #13
 915:dwm1000.c     ****         while(dec!=0){
 3561              		.loc 1 915 0
 3562 004c 05E0     		b	.L305
 3563              	.LVL342:
 3564              	.L306:
 916:dwm1000.c     ****             buffer[dec]=buffer[dec-1];
 3565              		.loc 1 916 0
 3566 004e E218     		adds	r2, r4, r3
 3567 0050 12F8012C 		ldrb	r2, [r2, #-1]	@ zero_extendqisi2
 3568 0054 E254     		strb	r2, [r4, r3]
 917:dwm1000.c     ****             dec=dec-1;
 3569              		.loc 1 917 0
 3570 0056 013B     		subs	r3, r3, #1
 3571              	.LVL343:
 3572 0058 DBB2     		uxtb	r3, r3
 3573              	.LVL344:
 3574              	.L305:
 915:dwm1000.c     ****         while(dec!=0){
 3575              		.loc 1 915 0
 3576 005a 002B     		cmp	r3, #0
ARM GAS  C:\Users\PIERRE~1\AppData\Local\Temp\ccqD7qlI.s 			page 87


 3577 005c F7D1     		bne	.L306
 918:dwm1000.c     ****         }
 919:dwm1000.c     ****         buffer[0]=correction;
 3578              		.loc 1 919 0
 3579 005e 9DF80630 		ldrb	r3, [sp, #6]	@ zero_extendqisi2
 3580              	.LVL345:
 3581 0062 2370     		strb	r3, [r4]
 3582              	.L303:
 3583              	.LBE2:
 920:dwm1000.c     ****     }
 921:dwm1000.c     **** } 
 3584              		.loc 1 921 0
 3585 0064 02B0     		add	sp, sp, #8
 3586              		.cfi_def_cfa_offset 8
 3587              		@ sp needed
 3588 0066 10BD     		pop	{r4, pc}
 3589              		.cfi_endproc
 3590              	.LFE109:
 3591              		.size	DWM_ReceiveData, .-DWM_ReceiveData
 3592              		.section	.rodata
 3593              		.align	2
 3594              		.set	.LANCHOR1,. + 0
 3595              	.LC0:
 3596 0000 07       		.byte	7
 3597 0001 A9       		.byte	-87
 3598 0002 02       		.byte	2
 3599 0003 25       		.byte	37
 3600              		.bss
 3601              		.align	2
 3602              		.set	.LANCHOR0,. + 0
 3603              		.type	config, %object
 3604              		.size	config, 20
 3605              	config:
 3606 0000 00000000 		.space	20
 3606      00000000 
 3606      00000000 
 3606      00000000 
 3606      00000000 
 3607              		.text
 3608              	.Letext0:
 3609              		.file 2 "c:\\program files (x86)\\cypress\\psoc creator\\4.3\\psoc creator\\import\\gnu\\arm\\5.4.
 3610              		.file 3 "c:\\program files (x86)\\cypress\\psoc creator\\4.3\\psoc creator\\import\\gnu\\arm\\5.4.
 3611              		.file 4 "Generated_Source\\PSoC5/cytypes.h"
 3612              		.file 5 "dwm1000.h"
 3613              		.file 6 "Generated_Source\\PSoC5/IRQ.h"
 3614              		.file 7 "Generated_Source\\PSoC5/SPIM.h"
 3615              		.file 8 "Generated_Source\\PSoC5/CyLib.h"
 3616              		.file 9 "Generated_Source\\PSoC5/core_cm3.h"