ARM GAS  C:\Users\PIERRE~1\AppData\Local\Temp\ccqD7qlI.s 			page 1


   1              		.syntax unified
   2              		.cpu cortex-m3
   3              		.fpu softvfp
   4              		.eabi_attribute 20, 1
   5              		.eabi_attribute 21, 1
   6              		.eabi_attribute 23, 3
   7              		.eabi_attribute 24, 1
   8              		.eabi_attribute 25, 1
   9              		.eabi_attribute 26, 1
  10              		.eabi_attribute 30, 1
  11              		.eabi_attribute 34, 1
  12              		.eabi_attribute 18, 4
  13              		.thumb
  14              		.syntax unified
  15              		.file	"dwm1000.c"
  16              		.text
  17              	.Ltext0:
  18              		.cfi_sections	.debug_frame
  19              		.section	.text.CHANNEL_ValidPreambleCode,"ax",%progbits
  20              		.align	2
  21              		.thumb
  22              		.thumb_func
  23              		.type	CHANNEL_ValidPreambleCode, %function
  24              	CHANNEL_ValidPreambleCode:
  25              	.LFB63:
  26              		.file 1 "dwm1000.c"
   1:dwm1000.c     **** /* ========================================
   2:dwm1000.c     ****  *
   3:dwm1000.c     ****  * Copyright YOUR COMPANY, THE YEAR
   4:dwm1000.c     ****  * All Rights Reserved
   5:dwm1000.c     ****  * UNPUBLISHED, LICENSED SOFTWARE.
   6:dwm1000.c     ****  *
   7:dwm1000.c     ****  * CONFIDENTIAL AND PROPRIETARY INFORMATION
   8:dwm1000.c     ****  * WHICH IS THE PROPERTY OF your company.
   9:dwm1000.c     ****  *
  10:dwm1000.c     ****  * ========================================
  11:dwm1000.c     **** */
  12:dwm1000.c     **** 
  13:dwm1000.c     **** #include <inttypes.h>
  14:dwm1000.c     **** #include <string.h>
  15:dwm1000.c     **** #include <math.h>
  16:dwm1000.c     **** #include <project.h>
  17:dwm1000.c     **** 
  18:dwm1000.c     **** #include "main.h"
  19:dwm1000.c     **** 
  20:dwm1000.c     **** #include "dwm1000.h"
  21:dwm1000.c     **** 
  22:dwm1000.c     **** /* ----------------------------------------------------------------------- */
  23:dwm1000.c     **** 
  24:dwm1000.c     **** //SPI_HandleTypeDef* _deviceHandle;
  25:dwm1000.c     **** static struct Config config;
  26:dwm1000.c     **** 
  27:dwm1000.c     **** static void DWM_Reset(void);
  28:dwm1000.c     **** 
  29:dwm1000.c     **** 
  30:dwm1000.c     **** struct Channel {
  31:dwm1000.c     **** 	enum CHANNEL channel;
ARM GAS  C:\Users\PIERRE~1\AppData\Local\Temp\ccqD7qlI.s 			page 2


  32:dwm1000.c     **** 	uint8_t preambleCode;
  33:dwm1000.c     **** 	enum PE preambleSize;
  34:dwm1000.c     **** 	enum BITRATE bitRate;
  35:dwm1000.c     **** 	enum PRF prf;
  36:dwm1000.c     **** };
  37:dwm1000.c     **** 
  38:dwm1000.c     **** struct Transmitter {
  39:dwm1000.c     **** 	struct Channel channel;
  40:dwm1000.c     **** };
  41:dwm1000.c     **** 
  42:dwm1000.c     **** struct Receiver {
  43:dwm1000.c     **** 	struct Channel channel;
  44:dwm1000.c     **** 	uint16_t frameTimeoutDelay;
  45:dwm1000.c     **** 	uint16_t pac;
  46:dwm1000.c     **** 	uint16_t sfd;
  47:dwm1000.c     **** };
  48:dwm1000.c     **** 
  49:dwm1000.c     **** struct Config {
  50:dwm1000.c     **** 	struct Transmitter transmitter;
  51:dwm1000.c     **** 	struct Receiver receiver;
  52:dwm1000.c     **** 	enum CHANNEL channel;
  53:dwm1000.c     **** };
  54:dwm1000.c     **** 
  55:dwm1000.c     **** static uint8_t CHANNEL_ValidPreambleCode(struct Channel* channel, uint8_t preambleCode) {
  27              		.loc 1 55 0
  28              		.cfi_startproc
  29              		@ args = 0, pretend = 0, frame = 0
  30              		@ frame_needed = 0, uses_anonymous_args = 0
  31              		@ link register save eliminated.
  32              	.LVL0:
  56:dwm1000.c     **** 	switch (channel->prf) {
  33              		.loc 1 56 0
  34 0000 0379     		ldrb	r3, [r0, #4]	@ zero_extendqisi2
  35 0002 012B     		cmp	r3, #1
  36 0004 02D0     		beq	.L3
  37 0006 022B     		cmp	r3, #2
  38 0008 1ED0     		beq	.L4
  39 000a 3EE0     		b	.L2
  40              	.L3:
  57:dwm1000.c     **** 	case _16MHZ:
  58:dwm1000.c     **** 		switch (channel->channel) {
  41              		.loc 1 58 0
  42 000c 0378     		ldrb	r3, [r0]	@ zero_extendqisi2
  43 000e 013B     		subs	r3, r3, #1
  44 0010 062B     		cmp	r3, #6
  45 0012 3AD8     		bhi	.L2
  46 0014 DFE803F0 		tbb	[pc, r3]
  47              	.L6:
  48 0018 04       		.byte	(.L5-.L6)/2
  49 0019 09       		.byte	(.L7-.L6)/2
  50 001a 0E       		.byte	(.L8-.L6)/2
  51 001b 13       		.byte	(.L9-.L6)/2
  52 001c 09       		.byte	(.L7-.L6)/2
  53 001d 39       		.byte	(.L2-.L6)/2
  54 001e 13       		.byte	(.L9-.L6)/2
  55 001f 00       		.p2align 1
  56              	.L5:
ARM GAS  C:\Users\PIERRE~1\AppData\Local\Temp\ccqD7qlI.s 			page 3


  59:dwm1000.c     **** 		case _1:
  60:dwm1000.c     **** 			if (preambleCode != 1U && preambleCode != 2U) {
  57              		.loc 1 60 0
  58 0020 4B1E     		subs	r3, r1, #1
  59 0022 DBB2     		uxtb	r3, r3
  60 0024 012B     		cmp	r3, #1
  61 0026 25D8     		bhi	.L13
  62 0028 2FE0     		b	.L2
  63              	.L7:
  61:dwm1000.c     **** 				preambleCode = 1U;
  62:dwm1000.c     **** 			}
  63:dwm1000.c     **** 			break;
  64:dwm1000.c     **** 		case _2: case _5:
  65:dwm1000.c     **** 			if (preambleCode != 3U && preambleCode != 4U) {
  64              		.loc 1 65 0
  65 002a CB1E     		subs	r3, r1, #3
  66 002c DBB2     		uxtb	r3, r3
  67 002e 012B     		cmp	r3, #1
  68 0030 22D8     		bhi	.L14
  69 0032 2AE0     		b	.L2
  70              	.L8:
  66:dwm1000.c     **** 				preambleCode = 3U;
  67:dwm1000.c     **** 			}
  68:dwm1000.c     **** 			break;
  69:dwm1000.c     **** 		case _3:
  70:dwm1000.c     **** 			if (preambleCode != 5U && preambleCode != 6U) {
  71              		.loc 1 70 0
  72 0034 4B1F     		subs	r3, r1, #5
  73 0036 DBB2     		uxtb	r3, r3
  74 0038 012B     		cmp	r3, #1
  75 003a 1FD8     		bhi	.L15
  76 003c 25E0     		b	.L2
  77              	.L9:
  71:dwm1000.c     **** 				preambleCode = 5U;
  72:dwm1000.c     **** 			}
  73:dwm1000.c     **** 			break;
  74:dwm1000.c     **** 		case _4: case _7:
  75:dwm1000.c     **** 			if (preambleCode != 7U && preambleCode != 8U) {
  78              		.loc 1 75 0
  79 003e CB1F     		subs	r3, r1, #7
  80 0040 DBB2     		uxtb	r3, r3
  81 0042 012B     		cmp	r3, #1
  82 0044 1CD8     		bhi	.L16
  83 0046 20E0     		b	.L2
  84              	.L4:
  76:dwm1000.c     **** 				preambleCode = 7U;
  77:dwm1000.c     **** 			}
  78:dwm1000.c     **** 			break;
  79:dwm1000.c     **** 		}
  80:dwm1000.c     **** 		break;
  81:dwm1000.c     **** 	case _64MHZ:
  82:dwm1000.c     **** 		switch (channel->channel) {
  85              		.loc 1 82 0
  86 0048 0378     		ldrb	r3, [r0]	@ zero_extendqisi2
  87 004a 013B     		subs	r3, r3, #1
  88 004c 062B     		cmp	r3, #6
  89 004e 1CD8     		bhi	.L2
ARM GAS  C:\Users\PIERRE~1\AppData\Local\Temp\ccqD7qlI.s 			page 4


  90 0050 DFE803F0 		tbb	[pc, r3]
  91              	.L11:
  92 0054 04       		.byte	(.L10-.L11)/2
  93 0055 04       		.byte	(.L10-.L11)/2
  94 0056 04       		.byte	(.L10-.L11)/2
  95 0057 0A       		.byte	(.L12-.L11)/2
  96 0058 04       		.byte	(.L10-.L11)/2
  97 0059 1B       		.byte	(.L2-.L11)/2
  98 005a 0A       		.byte	(.L12-.L11)/2
  99 005b 00       		.p2align 1
 100              	.L10:
  83:dwm1000.c     **** 		case _1: case _2: case _3: case _5:
  84:dwm1000.c     **** 			if (preambleCode < 9U || preambleCode >  12U) {
 101              		.loc 1 84 0
 102 005c A1F10903 		sub	r3, r1, #9
 103 0060 DBB2     		uxtb	r3, r3
 104 0062 032B     		cmp	r3, #3
 105 0064 0ED8     		bhi	.L17
 106 0066 10E0     		b	.L2
 107              	.L12:
  85:dwm1000.c     **** 				preambleCode = 9U;
  86:dwm1000.c     **** 			}
  87:dwm1000.c     **** 			break;
  88:dwm1000.c     **** 		case _4: case _7:
  89:dwm1000.c     **** 			if (preambleCode < 17U || preambleCode >  20U) {
 108              		.loc 1 89 0
 109 0068 A1F11103 		sub	r3, r1, #17
 110 006c DBB2     		uxtb	r3, r3
 111 006e 032B     		cmp	r3, #3
 112 0070 0AD8     		bhi	.L18
 113 0072 0AE0     		b	.L2
 114              	.L13:
  61:dwm1000.c     **** 			}
 115              		.loc 1 61 0
 116 0074 0121     		movs	r1, #1
 117              	.LVL1:
 118 0076 08E0     		b	.L2
 119              	.LVL2:
 120              	.L14:
  66:dwm1000.c     **** 			}
 121              		.loc 1 66 0
 122 0078 0321     		movs	r1, #3
 123              	.LVL3:
 124 007a 06E0     		b	.L2
 125              	.LVL4:
 126              	.L15:
  71:dwm1000.c     **** 			}
 127              		.loc 1 71 0
 128 007c 0521     		movs	r1, #5
 129              	.LVL5:
 130 007e 04E0     		b	.L2
 131              	.LVL6:
 132              	.L16:
  76:dwm1000.c     **** 			}
 133              		.loc 1 76 0
 134 0080 0721     		movs	r1, #7
 135              	.LVL7:
ARM GAS  C:\Users\PIERRE~1\AppData\Local\Temp\ccqD7qlI.s 			page 5


 136 0082 02E0     		b	.L2
 137              	.LVL8:
 138              	.L17:
  85:dwm1000.c     **** 			}
 139              		.loc 1 85 0
 140 0084 0921     		movs	r1, #9
 141              	.LVL9:
 142 0086 00E0     		b	.L2
 143              	.LVL10:
 144              	.L18:
  90:dwm1000.c     **** 				preambleCode = 17U;
 145              		.loc 1 90 0
 146 0088 1121     		movs	r1, #17
 147              	.LVL11:
 148              	.L2:
  91:dwm1000.c     **** 			}
  92:dwm1000.c     **** 			break;
  93:dwm1000.c     **** 		}
  94:dwm1000.c     **** 		break;
  95:dwm1000.c     **** 	}
  96:dwm1000.c     **** 	return preambleCode;
  97:dwm1000.c     **** }
 149              		.loc 1 97 0
 150 008a 0846     		mov	r0, r1
 151              	.LVL12:
 152 008c 7047     		bx	lr
 153              		.cfi_endproc
 154              	.LFE63:
 155              		.size	CHANNEL_ValidPreambleCode, .-CHANNEL_ValidPreambleCode
 156 008e 00BF     		.section	.text.CHANNEL_IsValidPreambleCode,"ax",%progbits
 157              		.align	2
 158              		.thumb
 159              		.thumb_func
 160              		.type	CHANNEL_IsValidPreambleCode, %function
 161              	CHANNEL_IsValidPreambleCode:
 162              	.LFB64:
  98:dwm1000.c     **** 
  99:dwm1000.c     **** static int CHANNEL_IsValidPreambleCode(struct Channel* channel,  uint8_t preambleCode) {
 163              		.loc 1 99 0
 164              		.cfi_startproc
 165              		@ args = 0, pretend = 0, frame = 0
 166              		@ frame_needed = 0, uses_anonymous_args = 0
 167              	.LVL13:
 168 0000 10B5     		push	{r4, lr}
 169              		.cfi_def_cfa_offset 8
 170              		.cfi_offset 4, -8
 171              		.cfi_offset 14, -4
 172 0002 0C46     		mov	r4, r1
 100:dwm1000.c     **** 	return CHANNEL_ValidPreambleCode(channel, preambleCode) == preambleCode;
 173              		.loc 1 100 0
 174 0004 FFF7FEFF 		bl	CHANNEL_ValidPreambleCode
 175              	.LVL14:
 101:dwm1000.c     **** }
 176              		.loc 1 101 0
 177 0008 8442     		cmp	r4, r0
 178 000a 14BF     		ite	ne
 179 000c 0020     		movne	r0, #0
ARM GAS  C:\Users\PIERRE~1\AppData\Local\Temp\ccqD7qlI.s 			page 6


 180 000e 0120     		moveq	r0, #1
 181 0010 10BD     		pop	{r4, pc}
 182              		.cfi_endproc
 183              	.LFE64:
 184              		.size	CHANNEL_IsValidPreambleCode, .-CHANNEL_IsValidPreambleCode
 185 0012 00BF     		.section	.text.CHANNEL_ValidPreambleSize,"ax",%progbits
 186              		.align	2
 187              		.thumb
 188              		.thumb_func
 189              		.type	CHANNEL_ValidPreambleSize, %function
 190              	CHANNEL_ValidPreambleSize:
 191              	.LFB65:
 102:dwm1000.c     **** 
 103:dwm1000.c     **** static enum PE CHANNEL_ValidPreambleSize(struct Channel* channel, enum PE preambleSize) {
 192              		.loc 1 103 0
 193              		.cfi_startproc
 194              		@ args = 0, pretend = 0, frame = 0
 195              		@ frame_needed = 0, uses_anonymous_args = 0
 196              		@ link register save eliminated.
 197              	.LVL15:
 104:dwm1000.c     **** 	switch (preambleSize) {
 198              		.loc 1 104 0
 199 0000 4B1E     		subs	r3, r1, #1
 200 0002 0C2B     		cmp	r3, #12
 201 0004 1AD8     		bhi	.L22
 202 0006 DFE803F0 		tbb	[pc, r3]
 203              	.L24:
 204 000a 0D       		.byte	(.L23-.L24)/2
 205 000b 0A       		.byte	(.L25-.L24)/2
 206 000c 07       		.byte	(.L26-.L24)/2
 207 000d 19       		.byte	(.L22-.L24)/2
 208 000e 0A       		.byte	(.L25-.L24)/2
 209 000f 07       		.byte	(.L26-.L24)/2
 210 0010 19       		.byte	(.L22-.L24)/2
 211 0011 19       		.byte	(.L22-.L24)/2
 212 0012 0A       		.byte	(.L25-.L24)/2
 213 0013 07       		.byte	(.L26-.L24)/2
 214 0014 19       		.byte	(.L22-.L24)/2
 215 0015 19       		.byte	(.L22-.L24)/2
 216 0016 0A       		.byte	(.L25-.L24)/2
 217 0017 00       		.p2align 1
 218              	.L26:
 105:dwm1000.c     **** 	case _1536: case _2048: case _4096:
 106:dwm1000.c     **** 		if (channel->bitRate != _110KBPS) {
 219              		.loc 1 106 0
 220 0018 C378     		ldrb	r3, [r0, #3]	@ zero_extendqisi2
 221 001a 53B9     		cbnz	r3, .L29
 222 001c 0EE0     		b	.L22
 223              	.L25:
 107:dwm1000.c     **** 			preambleSize = _1024;
 108:dwm1000.c     **** 		}
 109:dwm1000.c     **** 		break;
 110:dwm1000.c     **** 	case _128: case _256: case _512: case _1024:
 111:dwm1000.c     **** 		if (channel->bitRate == _110KBPS) {
 224              		.loc 1 111 0
 225 001e C378     		ldrb	r3, [r0, #3]	@ zero_extendqisi2
 226 0020 4BB1     		cbz	r3, .L30
ARM GAS  C:\Users\PIERRE~1\AppData\Local\Temp\ccqD7qlI.s 			page 7


 227 0022 0BE0     		b	.L22
 228              	.L23:
 112:dwm1000.c     **** 			preambleSize = _1536;
 113:dwm1000.c     **** 		}
 114:dwm1000.c     **** 		break;
 115:dwm1000.c     **** 	case _64:
 116:dwm1000.c     **** 		switch (channel->bitRate) {
 229              		.loc 1 116 0
 230 0024 C378     		ldrb	r3, [r0, #3]	@ zero_extendqisi2
 231 0026 13B1     		cbz	r3, .L28
 232 0028 012B     		cmp	r3, #1
 233 002a 06D0     		beq	.L31
 234 002c 06E0     		b	.L22
 235              	.L28:
 236              	.LVL16:
 117:dwm1000.c     **** 		case _850KBPS:
 118:dwm1000.c     **** 			preambleSize = _128;
 119:dwm1000.c     **** 			break;
 120:dwm1000.c     **** 		case _110KBPS:
 121:dwm1000.c     **** 			preambleSize = _1536;
 237              		.loc 1 121 0
 238 002e 0621     		movs	r1, #6
 122:dwm1000.c     **** 			break;
 239              		.loc 1 122 0
 240 0030 04E0     		b	.L22
 241              	.LVL17:
 242              	.L29:
 107:dwm1000.c     **** 		}
 243              		.loc 1 107 0
 244 0032 0221     		movs	r1, #2
 245              	.LVL18:
 246 0034 02E0     		b	.L22
 247              	.LVL19:
 248              	.L30:
 112:dwm1000.c     **** 		}
 249              		.loc 1 112 0
 250 0036 0621     		movs	r1, #6
 251              	.LVL20:
 252 0038 00E0     		b	.L22
 253              	.LVL21:
 254              	.L31:
 118:dwm1000.c     **** 			break;
 255              		.loc 1 118 0
 256 003a 0521     		movs	r1, #5
 257              	.LVL22:
 258              	.L22:
 123:dwm1000.c     **** 		case _6800KBPS:
 124:dwm1000.c     **** 			break;
 125:dwm1000.c     **** 		}
 126:dwm1000.c     **** 		break;
 127:dwm1000.c     **** 	}
 128:dwm1000.c     **** 	return preambleSize;
 129:dwm1000.c     **** }
 259              		.loc 1 129 0
 260 003c 0846     		mov	r0, r1
 261              	.LVL23:
 262 003e 7047     		bx	lr
ARM GAS  C:\Users\PIERRE~1\AppData\Local\Temp\ccqD7qlI.s 			page 8


 263              		.cfi_endproc
 264              	.LFE65:
 265              		.size	CHANNEL_ValidPreambleSize, .-CHANNEL_ValidPreambleSize
 266              		.section	.text.CHANNEL_IsValidPreambleSize,"ax",%progbits
 267              		.align	2
 268              		.thumb
 269              		.thumb_func
 270              		.type	CHANNEL_IsValidPreambleSize, %function
 271              	CHANNEL_IsValidPreambleSize:
 272              	.LFB66:
 130:dwm1000.c     **** 
 131:dwm1000.c     **** static int CHANNEL_IsValidPreambleSize(struct Channel* channel, enum PE preambleSize) {
 273              		.loc 1 131 0
 274              		.cfi_startproc
 275              		@ args = 0, pretend = 0, frame = 0
 276              		@ frame_needed = 0, uses_anonymous_args = 0
 277              	.LVL24:
 278 0000 10B5     		push	{r4, lr}
 279              		.cfi_def_cfa_offset 8
 280              		.cfi_offset 4, -8
 281              		.cfi_offset 14, -4
 282 0002 0C46     		mov	r4, r1
 132:dwm1000.c     **** 	return CHANNEL_ValidPreambleSize(channel, preambleSize) == preambleSize;
 283              		.loc 1 132 0
 284 0004 FFF7FEFF 		bl	CHANNEL_ValidPreambleSize
 285              	.LVL25:
 133:dwm1000.c     **** }
 286              		.loc 1 133 0
 287 0008 8442     		cmp	r4, r0
 288 000a 14BF     		ite	ne
 289 000c 0020     		movne	r0, #0
 290 000e 0120     		moveq	r0, #1
 291 0010 10BD     		pop	{r4, pc}
 292              		.cfi_endproc
 293              	.LFE66:
 294              		.size	CHANNEL_IsValidPreambleSize, .-CHANNEL_IsValidPreambleSize
 295 0012 00BF     		.section	.text.CHANNEL_Init,"ax",%progbits
 296              		.align	2
 297              		.thumb
 298              		.thumb_func
 299              		.type	CHANNEL_Init, %function
 300              	CHANNEL_Init:
 301              	.LFB68:
 134:dwm1000.c     **** 
 135:dwm1000.c     **** static void DWM_UpdateChannel(void){
 136:dwm1000.c     **** 	uint8_t chan[] = {((config.channel << 4)|config.channel)};
 137:dwm1000.c     **** 	DWM_WriteSPI_ext(CHAN_CTRL, NO_SUB, chan, 1);
 138:dwm1000.c     **** 	uint8_t pllTune[1];
 139:dwm1000.c     **** 	uint8_t pllCfg[4];
 140:dwm1000.c     **** 	switch (config.channel) {
 141:dwm1000.c     **** 		case _1:
 142:dwm1000.c     **** 			int2Bytes(0x09000407U, pllCfg);
 143:dwm1000.c     **** 			pllTune[0] = 0x1EU;
 144:dwm1000.c     **** 			break;
 145:dwm1000.c     **** 		case _2: case _4:
 146:dwm1000.c     **** 			int2Bytes(0x08400508U, pllCfg);
 147:dwm1000.c     **** 			pllTune[0] = 0x26U;
ARM GAS  C:\Users\PIERRE~1\AppData\Local\Temp\ccqD7qlI.s 			page 9


 148:dwm1000.c     **** 			break;
 149:dwm1000.c     **** 		case _3:
 150:dwm1000.c     **** 			int2Bytes(0x08401009U, pllCfg);
 151:dwm1000.c     **** 			pllTune[0] = 0x56U;
 152:dwm1000.c     **** 			break;
 153:dwm1000.c     **** 		case _5: case _7:
 154:dwm1000.c     **** 			int2Bytes(0x0800041DU, pllCfg);
 155:dwm1000.c     **** 			pllTune[0] = 0xBEU;
 156:dwm1000.c     **** 			break;
 157:dwm1000.c     **** 	}
 158:dwm1000.c     **** 	DWM_WriteSPI_ext(FS_CTRL, 0x07, pllCfg, 4);
 159:dwm1000.c     **** 	DWM_WriteSPI_ext(FS_CTRL, 0x0B, pllTune, 1);
 160:dwm1000.c     **** }
 161:dwm1000.c     **** 
 162:dwm1000.c     **** static void CHANNEL_Init(struct Channel* channel) {
 302              		.loc 1 162 0
 303              		.cfi_startproc
 304              		@ args = 0, pretend = 0, frame = 0
 305              		@ frame_needed = 0, uses_anonymous_args = 0
 306              	.LVL26:
 307 0000 38B5     		push	{r3, r4, r5, lr}
 308              		.cfi_def_cfa_offset 16
 309              		.cfi_offset 3, -16
 310              		.cfi_offset 4, -12
 311              		.cfi_offset 5, -8
 312              		.cfi_offset 14, -4
 313 0002 0446     		mov	r4, r0
 163:dwm1000.c     **** 	channel->channel = _5;
 314              		.loc 1 163 0
 315 0004 0525     		movs	r5, #5
 316 0006 0570     		strb	r5, [r0]
 164:dwm1000.c     **** 	channel->prf = _16MHZ;
 317              		.loc 1 164 0
 318 0008 0123     		movs	r3, #1
 319 000a 0371     		strb	r3, [r0, #4]
 165:dwm1000.c     **** 	channel->bitRate = _6800KBPS; //6800
 320              		.loc 1 165 0
 321 000c 0223     		movs	r3, #2
 322 000e C370     		strb	r3, [r0, #3]
 166:dwm1000.c     **** 	channel->preambleCode = CHANNEL_ValidPreambleCode(channel, 4U);
 323              		.loc 1 166 0
 324 0010 0421     		movs	r1, #4
 325 0012 FFF7FEFF 		bl	CHANNEL_ValidPreambleCode
 326              	.LVL27:
 327 0016 6070     		strb	r0, [r4, #1]
 167:dwm1000.c     **** 	channel->preambleSize = CHANNEL_ValidPreambleSize(channel, _128);//128
 328              		.loc 1 167 0
 329 0018 2946     		mov	r1, r5
 330 001a 2046     		mov	r0, r4
 331 001c FFF7FEFF 		bl	CHANNEL_ValidPreambleSize
 332              	.LVL28:
 333 0020 A070     		strb	r0, [r4, #2]
 334 0022 38BD     		pop	{r3, r4, r5, pc}
 335              		.cfi_endproc
 336              	.LFE68:
 337              		.size	CHANNEL_Init, .-CHANNEL_Init
 338              		.section	.text.setBit,"ax",%progbits
ARM GAS  C:\Users\PIERRE~1\AppData\Local\Temp\ccqD7qlI.s 			page 10


 339              		.align	2
 340              		.global	setBit
 341              		.thumb
 342              		.thumb_func
 343              		.type	setBit, %function
 344              	setBit:
 345              	.LFB103:
 168:dwm1000.c     **** }
 169:dwm1000.c     **** 
 170:dwm1000.c     **** static void TRANSMITTER_UpdateTxPower() {
 171:dwm1000.c     **** 	uint8_t txPower[4];
 172:dwm1000.c     **** 	switch (config.transmitter.channel.bitRate) {
 173:dwm1000.c     **** 	case _6800KBPS:
 174:dwm1000.c     **** 		switch (config.transmitter.channel.prf) {
 175:dwm1000.c     **** 		case _16MHZ:
 176:dwm1000.c     **** 			switch (config.transmitter.channel.channel) {
 177:dwm1000.c     **** 			case _1: case _2:
 178:dwm1000.c     **** 				int2Bytes(0x15355575U, txPower);
 179:dwm1000.c     **** 				break;
 180:dwm1000.c     **** 			case _3:
 181:dwm1000.c     **** 				int2Bytes(0x0F2F4F6FU, txPower);
 182:dwm1000.c     **** 				break;
 183:dwm1000.c     **** 			case _4:
 184:dwm1000.c     **** 				int2Bytes(0x1F1F3F5FU, txPower);
 185:dwm1000.c     **** 				break;
 186:dwm1000.c     **** 			case _5:
 187:dwm1000.c     **** 				int2Bytes(0x0E082848U, txPower);
 188:dwm1000.c     **** 				break;
 189:dwm1000.c     **** 			case _7:
 190:dwm1000.c     **** 				int2Bytes(0x32527292U, txPower);
 191:dwm1000.c     **** 				break;
 192:dwm1000.c     **** 			}
 193:dwm1000.c     **** 			break;
 194:dwm1000.c     **** 		case _64MHZ:
 195:dwm1000.c     **** 			switch (config.transmitter.channel.channel) {
 196:dwm1000.c     **** 			case _1: case _2:
 197:dwm1000.c     **** 				int2Bytes(0x07274767U, txPower);
 198:dwm1000.c     **** 				break;
 199:dwm1000.c     **** 			case _3:
 200:dwm1000.c     **** 				int2Bytes(0x2B4B6B8BU, txPower);
 201:dwm1000.c     **** 				break;
 202:dwm1000.c     **** 			case _4:
 203:dwm1000.c     **** 				int2Bytes(0x3A5A7A9AU, txPower);
 204:dwm1000.c     **** 				break;
 205:dwm1000.c     **** 			case _5:
 206:dwm1000.c     **** 				int2Bytes(0x25456585U, txPower);
 207:dwm1000.c     **** 				break;
 208:dwm1000.c     **** 			case _7:
 209:dwm1000.c     **** 				int2Bytes(0x5171B1D1U, txPower);
 210:dwm1000.c     **** 				break;
 211:dwm1000.c     **** 			}
 212:dwm1000.c     **** 			break;
 213:dwm1000.c     **** 		}
 214:dwm1000.c     **** 		break;
 215:dwm1000.c     **** 	default:
 216:dwm1000.c     **** 		switch (config.transmitter.channel.prf) {
 217:dwm1000.c     **** 		case _16MHZ:
ARM GAS  C:\Users\PIERRE~1\AppData\Local\Temp\ccqD7qlI.s 			page 11


 218:dwm1000.c     **** 			switch (config.transmitter.channel.channel) {
 219:dwm1000.c     **** 			case _1: case _2:
 220:dwm1000.c     **** 				int2Bytes(0x75757575U, txPower);
 221:dwm1000.c     **** 				break;
 222:dwm1000.c     **** 			case _3:
 223:dwm1000.c     **** 				int2Bytes(0x6F6F6F6FU, txPower);
 224:dwm1000.c     **** 				break;
 225:dwm1000.c     **** 			case _4:
 226:dwm1000.c     **** 				int2Bytes(0x5F5F5F5FU, txPower);
 227:dwm1000.c     **** 				break;
 228:dwm1000.c     **** 			case _5:
 229:dwm1000.c     **** 				int2Bytes(0x48484848U, txPower);
 230:dwm1000.c     **** 				break;
 231:dwm1000.c     **** 			case _7:
 232:dwm1000.c     **** 				int2Bytes(0x92929292U, txPower);
 233:dwm1000.c     **** 				break;
 234:dwm1000.c     **** 			}
 235:dwm1000.c     **** 			break;
 236:dwm1000.c     **** 		case _64MHZ:
 237:dwm1000.c     **** 			switch (config.transmitter.channel.channel) {
 238:dwm1000.c     **** 			case _1: case _2:
 239:dwm1000.c     **** 				int2Bytes(0x67676767U, txPower);
 240:dwm1000.c     **** 				break;
 241:dwm1000.c     **** 			case _3:
 242:dwm1000.c     **** 				int2Bytes(0x8B8B8B8BU, txPower);
 243:dwm1000.c     **** 				break;
 244:dwm1000.c     **** 			case _4:
 245:dwm1000.c     **** 				int2Bytes(0x9A9A9A9AU, txPower);
 246:dwm1000.c     **** 				break;
 247:dwm1000.c     **** 			case _5:
 248:dwm1000.c     **** 				int2Bytes(0x85858585U, txPower);
 249:dwm1000.c     **** 				break;
 250:dwm1000.c     **** 			case _7:
 251:dwm1000.c     **** 				int2Bytes(0xD1D1D1D1U, txPower);
 252:dwm1000.c     **** 				break;
 253:dwm1000.c     **** 			}
 254:dwm1000.c     **** 			break;
 255:dwm1000.c     **** 		}
 256:dwm1000.c     **** 		break;
 257:dwm1000.c     **** 	}
 258:dwm1000.c     **** 	DWM_WriteSPI_ext(TX_POWER, NO_SUB, txPower, 4);
 259:dwm1000.c     **** }
 260:dwm1000.c     **** 
 261:dwm1000.c     **** static void TRANSMITTER_UpdateChannel() {
 262:dwm1000.c     **** 	uint8_t tc[1];
 263:dwm1000.c     **** 	uint8_t txctrl[4];
 264:dwm1000.c     **** 	switch (config.transmitter.channel.channel) {
 265:dwm1000.c     **** 		case _1:
 266:dwm1000.c     **** 			int2Bytes(0x00005C40U, txctrl);
 267:dwm1000.c     **** 			tc[0] =  0xC9U;
 268:dwm1000.c     **** 			break;
 269:dwm1000.c     **** 		case _2:
 270:dwm1000.c     **** 			int2Bytes(0x00045CA0U, txctrl);
 271:dwm1000.c     **** 			tc[0] =  0xC2U;
 272:dwm1000.c     **** 			break;
 273:dwm1000.c     **** 		case _3:
 274:dwm1000.c     **** 			int2Bytes(0x00086CC0U, txctrl);
ARM GAS  C:\Users\PIERRE~1\AppData\Local\Temp\ccqD7qlI.s 			page 12


 275:dwm1000.c     **** 			tc[0] =  0xC5U;
 276:dwm1000.c     **** 			break;
 277:dwm1000.c     **** 		case _4:
 278:dwm1000.c     **** 			int2Bytes(0x00045C80U, txctrl);
 279:dwm1000.c     **** 			tc[0] =  0x95U;
 280:dwm1000.c     **** 			break;
 281:dwm1000.c     **** 		case _5:
 282:dwm1000.c     **** 			int2Bytes(0x001E3FE0U, txctrl);
 283:dwm1000.c     **** 			tc[0] =  0xC0U;
 284:dwm1000.c     **** 			break;
 285:dwm1000.c     **** 		case _7:
 286:dwm1000.c     **** 			int2Bytes(0x001E7DE0U, txctrl);
 287:dwm1000.c     **** 			tc[0] =  0x93U;
 288:dwm1000.c     **** 			break;
 289:dwm1000.c     **** 	}
 290:dwm1000.c     **** 	DWM_WriteSPI_ext(RF_CONF,  0x0C, txctrl,  3);
 291:dwm1000.c     **** 	DWM_WriteSPI_ext(TX_CAL,  0x0B, tc,  1);
 292:dwm1000.c     **** 	TRANSMITTER_UpdateTxPower();
 293:dwm1000.c     **** }
 294:dwm1000.c     **** 
 295:dwm1000.c     **** static void TRANSMITTER_UpdateBitrate(){
 296:dwm1000.c     **** 	DWM_WriteSPI_ext(TX_FCTRL,  1, (uint8_t[]){((config.transmitter.channel.bitRate << 5) | (1<<7))}, 
 297:dwm1000.c     **** 	TRANSMITTER_UpdateTxPower();
 298:dwm1000.c     **** }
 299:dwm1000.c     **** 
 300:dwm1000.c     **** static void TRANSMITTER_UpdatePreambleCode(){
 301:dwm1000.c     **** 	uint8_t chan[2];
 302:dwm1000.c     **** 	DWM_ReadSPI_ext(CHAN_CTRL, 2, chan, 2);
 303:dwm1000.c     **** 	uint8_t preambleCode = config.transmitter.channel.preambleCode;
 304:dwm1000.c     **** 	chan[0] &= 0x3F;
 305:dwm1000.c     **** 	chan[1] &= 0xF8;
 306:dwm1000.c     **** 	chan[0] |= preambleCode << 6;
 307:dwm1000.c     **** 	chan[1] |= preambleCode >> 2;
 308:dwm1000.c     **** 	DWM_WriteSPI_ext(CHAN_CTRL, 2, chan, 2);
 309:dwm1000.c     **** }
 310:dwm1000.c     **** 
 311:dwm1000.c     **** static void TRANSMITTER_UpdatePreambleSize(){
 312:dwm1000.c     **** 	DWM_WriteSPI_ext(TX_FCTRL, 2,(uint8_t[]){(config.transmitter.channel.prf |
 313:dwm1000.c     **** 			(config.transmitter.channel.preambleSize << 2))}, 1);
 314:dwm1000.c     **** }
 315:dwm1000.c     **** 
 316:dwm1000.c     **** static void TRANSMITTER_UpdatePrf(){
 317:dwm1000.c     **** 	DWM_WriteSPI_ext(TX_FCTRL, 2, (uint8_t[]){(config.transmitter.channel.prf |
 318:dwm1000.c     **** 			(config.transmitter.channel.preambleSize << 2))}, 1);
 319:dwm1000.c     **** 	TRANSMITTER_UpdateTxPower();
 320:dwm1000.c     **** }
 321:dwm1000.c     **** 
 322:dwm1000.c     **** void TRANSMITTER_SetPreambleCode(uint8_t preambleCode) {
 323:dwm1000.c     **** 	config.transmitter.channel.preambleCode = CHANNEL_ValidPreambleCode(&(config.transmitter.channel),
 324:dwm1000.c     **** 	TRANSMITTER_UpdatePreambleCode();
 325:dwm1000.c     **** }
 326:dwm1000.c     **** 
 327:dwm1000.c     **** void TRANSMITTER_SetPreambleSize(enum PE preambleSize) {
 328:dwm1000.c     **** 	config.transmitter.channel.preambleSize = CHANNEL_ValidPreambleSize(&(config.transmitter.channel),
 329:dwm1000.c     **** 	TRANSMITTER_UpdatePreambleSize();
 330:dwm1000.c     **** }
 331:dwm1000.c     **** 
ARM GAS  C:\Users\PIERRE~1\AppData\Local\Temp\ccqD7qlI.s 			page 13


 332:dwm1000.c     **** void TRANSMITTER_SetChannel(enum CHANNEL channel) {
 333:dwm1000.c     **** 	config.transmitter.channel.channel = channel;
 334:dwm1000.c     **** 	if (!CHANNEL_IsValidPreambleCode(&(config.transmitter.channel), config.transmitter.channel.preambl
 335:dwm1000.c     **** 		TRANSMITTER_SetPreambleCode(config.transmitter.channel.preambleCode);
 336:dwm1000.c     **** 	}
 337:dwm1000.c     **** 	TRANSMITTER_UpdateChannel();
 338:dwm1000.c     **** }
 339:dwm1000.c     **** 
 340:dwm1000.c     **** void TRANSMITTER_SetBitRate(enum BITRATE bitRate) {
 341:dwm1000.c     **** 	config.transmitter.channel.bitRate = bitRate;
 342:dwm1000.c     **** 	if (!CHANNEL_IsValidPreambleSize(&(config.transmitter.channel), config.transmitter.channel.preambl
 343:dwm1000.c     **** 		TRANSMITTER_SetPreambleSize(config.transmitter.channel.preambleSize);
 344:dwm1000.c     **** 	}
 345:dwm1000.c     **** 	TRANSMITTER_UpdateBitrate();
 346:dwm1000.c     **** }
 347:dwm1000.c     **** 
 348:dwm1000.c     **** void TRANSMITTER_SetPrf(enum PRF prf) {
 349:dwm1000.c     **** 	config.transmitter.channel.prf = prf;
 350:dwm1000.c     **** 	if (!CHANNEL_IsValidPreambleCode(&(config.transmitter.channel), config.transmitter.channel.preambl
 351:dwm1000.c     **** 		TRANSMITTER_SetPreambleCode(config.transmitter.channel.preambleCode);
 352:dwm1000.c     **** 	}
 353:dwm1000.c     **** 	TRANSMITTER_UpdatePrf();
 354:dwm1000.c     **** }
 355:dwm1000.c     **** 
 356:dwm1000.c     **** static void TRANSMITTER_Init(void) {
 357:dwm1000.c     **** 	CHANNEL_Init(&(config.transmitter.channel));
 358:dwm1000.c     **** 	TRANSMITTER_UpdateChannel();
 359:dwm1000.c     **** 	TRANSMITTER_UpdateBitrate();
 360:dwm1000.c     **** 	TRANSMITTER_UpdatePrf();
 361:dwm1000.c     **** 	TRANSMITTER_UpdatePreambleCode();
 362:dwm1000.c     **** 	TRANSMITTER_UpdatePreambleSize();
 363:dwm1000.c     **** }
 364:dwm1000.c     **** 
 365:dwm1000.c     **** static void RECEIVER_UpdateSFDTimeout() {
 366:dwm1000.c     **** 	uint16_t preambleSize = 4096;
 367:dwm1000.c     **** 	uint8_t timeout[2];
 368:dwm1000.c     **** 	switch(config.receiver.channel.preambleSize) {
 369:dwm1000.c     **** 		case _64:
 370:dwm1000.c     **** 			preambleSize = 64;
 371:dwm1000.c     **** 			break;
 372:dwm1000.c     **** 		case _128:
 373:dwm1000.c     **** 			preambleSize = 128;
 374:dwm1000.c     **** 			break;
 375:dwm1000.c     **** 		case _256:
 376:dwm1000.c     **** 			preambleSize = 256;
 377:dwm1000.c     **** 			break;
 378:dwm1000.c     **** 		case _512:
 379:dwm1000.c     **** 			preambleSize = 512;
 380:dwm1000.c     **** 			break;
 381:dwm1000.c     **** 		case _1024:
 382:dwm1000.c     **** 			preambleSize = 1024;
 383:dwm1000.c     **** 			break;
 384:dwm1000.c     **** 		case _1536:
 385:dwm1000.c     **** 			preambleSize = 1536;
 386:dwm1000.c     **** 			break;
 387:dwm1000.c     **** 		case _2048:
 388:dwm1000.c     **** 			preambleSize = 2048;
ARM GAS  C:\Users\PIERRE~1\AppData\Local\Temp\ccqD7qlI.s 			page 14


 389:dwm1000.c     **** 			break;
 390:dwm1000.c     **** 		case _4096:
 391:dwm1000.c     **** 			preambleSize = 4096;
 392:dwm1000.c     **** 			break;
 393:dwm1000.c     **** 	}
 394:dwm1000.c     **** 		short2Bytes(preambleSize + config.receiver.sfd + 1 - config.receiver.pac, timeout);
 395:dwm1000.c     ****         DWM_WriteSPI_ext(DRX_CONF, 0x20, timeout, 2);
 396:dwm1000.c     ****         //uint8 TimeOutPreambule[2]={0x00,0x00};
 397:dwm1000.c     ****         //DWM_WriteSPI_ext(DRX_CONF, 0x24, TimeOutPreambule, 2);
 398:dwm1000.c     **** }
 399:dwm1000.c     **** 
 400:dwm1000.c     **** static void RECEIVER_UpdatePacSize() {
 401:dwm1000.c     **** 	uint8_t drxTune2[4];
 402:dwm1000.c     **** 	switch (config.receiver.channel.prf) {
 403:dwm1000.c     **** 	case _16MHZ:
 404:dwm1000.c     **** 		switch (config.receiver.channel.preambleSize) {
 405:dwm1000.c     **** 		case _64: case _128:
 406:dwm1000.c     **** 			int2Bytes(0x311A002DU, drxTune2);
 407:dwm1000.c     **** 			config.receiver.pac = 8;
 408:dwm1000.c     **** 			break;
 409:dwm1000.c     **** 		case _256: case _512:
 410:dwm1000.c     **** 			int2Bytes(0x331A0052U, drxTune2);
 411:dwm1000.c     **** 			config.receiver.pac = 16;
 412:dwm1000.c     **** 			break;
 413:dwm1000.c     **** 		case _1024:
 414:dwm1000.c     **** 			int2Bytes(0x351A009AU, drxTune2);
 415:dwm1000.c     **** 			config.receiver.pac = 32;
 416:dwm1000.c     **** 			break;
 417:dwm1000.c     **** 		case _1536: case _2048: case _4096:
 418:dwm1000.c     **** 			int2Bytes(0x371A011DU, drxTune2);
 419:dwm1000.c     **** 			config.receiver.pac = 64;
 420:dwm1000.c     **** 			break;
 421:dwm1000.c     **** 		}
 422:dwm1000.c     **** 		break;
 423:dwm1000.c     **** 	case _64MHZ:
 424:dwm1000.c     **** 		switch (config.receiver.channel.preambleSize) {
 425:dwm1000.c     **** 		case _64: case _128:
 426:dwm1000.c     **** 			int2Bytes(0x313B006BU, drxTune2);
 427:dwm1000.c     **** 			config.receiver.pac = 8;
 428:dwm1000.c     **** 			break;
 429:dwm1000.c     **** 		case _256: case _512:
 430:dwm1000.c     **** 			int2Bytes(0x333B00BEU, drxTune2);
 431:dwm1000.c     **** 			config.receiver.pac = 16;
 432:dwm1000.c     **** 			break;
 433:dwm1000.c     **** 		case _1024:
 434:dwm1000.c     **** 			int2Bytes(0x353B015EU, drxTune2);
 435:dwm1000.c     **** 			config.receiver.pac = 32;
 436:dwm1000.c     **** 			break;
 437:dwm1000.c     **** 		case _1536: case _2048: case _4096:
 438:dwm1000.c     **** 			int2Bytes(0x373B0296U, drxTune2);
 439:dwm1000.c     **** 			config.receiver.pac = 64;
 440:dwm1000.c     **** 			break;
 441:dwm1000.c     **** 		}
 442:dwm1000.c     **** 		break;
 443:dwm1000.c     **** 	}
 444:dwm1000.c     **** 	DWM_WriteSPI_ext(DRX_CONF, 0x08, drxTune2, 4);
 445:dwm1000.c     **** }
ARM GAS  C:\Users\PIERRE~1\AppData\Local\Temp\ccqD7qlI.s 			page 15


 446:dwm1000.c     **** 
 447:dwm1000.c     **** static void RECEIVER_UpdateFrameTimeoutDelay() {
 448:dwm1000.c     **** 	uint8_t sysCfg[1];
 449:dwm1000.c     **** 	DWM_ReadSPI_ext(SYS_CFG, 0x03, sysCfg, 0x01);
 450:dwm1000.c     **** 	sysCfg[0] |= (1 << 4);
 451:dwm1000.c     **** 	uint8_t rxfwto[2];
 452:dwm1000.c     **** 	short2Bytes(config.receiver.frameTimeoutDelay, rxfwto);
 453:dwm1000.c     **** 	if (config.receiver.frameTimeoutDelay == 0) {
 454:dwm1000.c     **** 		sysCfg[0] &= ~(1 << 4);
 455:dwm1000.c     **** 	}
 456:dwm1000.c     **** 
 457:dwm1000.c     **** 	DWM_WriteSPI_ext(RX_FWTO, NO_SUB, rxfwto, 0x02);
 458:dwm1000.c     **** 	DWM_WriteSPI_ext(SYS_CFG, 0x03, sysCfg, 0x01);
 459:dwm1000.c     **** }
 460:dwm1000.c     **** 
 461:dwm1000.c     **** static void RECEIVER_UpdateChannel() {
 462:dwm1000.c     **** 	uint8_t rxCtrl[1];
 463:dwm1000.c     **** 	switch (config.receiver.channel.channel) {
 464:dwm1000.c     **** 	case _1: case _2: case _3: case _5:
 465:dwm1000.c     **** 		rxCtrl[0] = 0xD8;
 466:dwm1000.c     **** 		break;
 467:dwm1000.c     **** 	case _4: case _7:
 468:dwm1000.c     **** 		rxCtrl[0] = 0xBC;
 469:dwm1000.c     **** 		break;
 470:dwm1000.c     **** 	}
 471:dwm1000.c     **** 	DWM_WriteSPI_ext(RF_CONF, 0x0B, rxCtrl, 1);
 472:dwm1000.c     **** }
 473:dwm1000.c     **** 
 474:dwm1000.c     **** static void RECEIVER_UpdateBitrate() {
 475:dwm1000.c     **** 	uint8_t sys[1] = {0};
 476:dwm1000.c     **** 	uint8_t drxTune0b[2];
 477:dwm1000.c     **** 	switch (config.receiver.channel.bitRate) {
 478:dwm1000.c     **** 	case _110KBPS:
 479:dwm1000.c     **** 		short2Bytes(0x000AU, drxTune0b);
 480:dwm1000.c     **** 		sys[0] = 1 << 6;
 481:dwm1000.c     **** 		config.receiver.sfd = 64;
 482:dwm1000.c     **** 		break;
 483:dwm1000.c     **** 	case _850KBPS: case _6800KBPS:
 484:dwm1000.c     **** 		short2Bytes(0x0001U, drxTune0b);
 485:dwm1000.c     **** 		config.receiver.sfd = 8;
 486:dwm1000.c     **** 		break;
 487:dwm1000.c     **** 	}
 488:dwm1000.c     **** 	DWM_WriteSPI_ext(SYS_CFG, 2, sys, 1);
 489:dwm1000.c     **** 	DWM_WriteSPI_ext(DRX_CONF, 0x02, drxTune0b, 2);
 490:dwm1000.c     **** 	RECEIVER_UpdateSFDTimeout();
 491:dwm1000.c     **** }
 492:dwm1000.c     **** 
 493:dwm1000.c     **** static void RECEIVER_UpdatePreambleCode() {
 494:dwm1000.c     **** 	uint8_t chan[1];
 495:dwm1000.c     **** 	DWM_ReadSPI_ext(CHAN_CTRL, 3, chan, 1);
 496:dwm1000.c     **** 	uint8_t preambleCode = config.receiver.channel.preambleCode;
 497:dwm1000.c     **** 	chan[0] &= 0x07;
 498:dwm1000.c     **** 	chan[0] |= preambleCode << 3;
 499:dwm1000.c     **** 	DWM_WriteSPI_ext(CHAN_CTRL, 3, chan, 1);
 500:dwm1000.c     **** }
 501:dwm1000.c     **** 
 502:dwm1000.c     **** static void RECEIVER_UpdatePreambleSize() {
ARM GAS  C:\Users\PIERRE~1\AppData\Local\Temp\ccqD7qlI.s 			page 16


 503:dwm1000.c     **** 	uint8_t drx_tune1b[2] = {0};
 504:dwm1000.c     **** 	uint8_t drx_tune4h[2] = {0};
 505:dwm1000.c     **** 	switch (config.receiver.channel.preambleSize) {
 506:dwm1000.c     **** 	case _64:
 507:dwm1000.c     **** 		short2Bytes(0x0010, drx_tune1b);	// for 6800 kbps
 508:dwm1000.c     **** 		short2Bytes(0x0010, drx_tune4h);
 509:dwm1000.c     **** 		break;
 510:dwm1000.c     **** 	case _128: case _256: case _512: case _1024:	// for 850 kbps & 6800 kbps
 511:dwm1000.c     **** 		short2Bytes(0x0020, drx_tune1b);
 512:dwm1000.c     **** 		short2Bytes(0x0028, drx_tune4h);
 513:dwm1000.c     **** 		break;
 514:dwm1000.c     **** 	case _1536: case _2048: case _4096:			// for 110 kbps
 515:dwm1000.c     **** 		short2Bytes(0x0064, drx_tune1b);
 516:dwm1000.c     **** 		short2Bytes(0x0028, drx_tune4h);
 517:dwm1000.c     **** 		break;
 518:dwm1000.c     **** 	}
 519:dwm1000.c     **** 	DWM_WriteSPI_ext(DRX_CONF, 0x06, drx_tune1b, 2);
 520:dwm1000.c     **** 	DWM_WriteSPI_ext(DRX_CONF, 0x26, drx_tune4h, 2);
 521:dwm1000.c     **** 	RECEIVER_UpdatePacSize();
 522:dwm1000.c     **** 	RECEIVER_UpdateSFDTimeout();
 523:dwm1000.c     **** }
 524:dwm1000.c     **** 
 525:dwm1000.c     **** static void RECEIVER_UpdatePrf() {
 526:dwm1000.c     **** 	uint8_t prf[1];
 527:dwm1000.c     **** 	DWM_ReadSPI_ext(CHAN_CTRL, 2, prf, 1);
 528:dwm1000.c     **** 	prf[0] &= 0xF3;
 529:dwm1000.c     **** 	prf[0] |= config.receiver.channel.prf << 2;
 530:dwm1000.c     **** 	DWM_WriteSPI_ext(CHAN_CTRL, 2, prf, 1);
 531:dwm1000.c     **** 	uint8_t drxTune1a[2];
 532:dwm1000.c     **** 	uint8_t agcTune1[2];
 533:dwm1000.c     **** 	uint8_t ldeCfg2[2];
 534:dwm1000.c     **** 	switch (config.receiver.channel.prf) {
 535:dwm1000.c     **** 	case _16MHZ:
 536:dwm1000.c     **** 		short2Bytes(0x0087U, drxTune1a);
 537:dwm1000.c     **** 		short2Bytes(0x8870U, agcTune1);
 538:dwm1000.c     **** 		short2Bytes(0x1607U, ldeCfg2);
 539:dwm1000.c     **** 		break;
 540:dwm1000.c     **** 	case _64MHZ:
 541:dwm1000.c     **** 		short2Bytes(0x008DU, drxTune1a);
 542:dwm1000.c     **** 		short2Bytes(0x889BU, agcTune1);
 543:dwm1000.c     **** 		short2Bytes(0x0607U, ldeCfg2);
 544:dwm1000.c     **** 		break;
 545:dwm1000.c     **** 	}
 546:dwm1000.c     **** 	DWM_WriteSPI_ext(DRX_CONF, 0x04, drxTune1a, 2);
 547:dwm1000.c     **** 	DWM_WriteSPI_ext(AGC_CTRL, 0x04, agcTune1, 2);
 548:dwm1000.c     **** 	DWM_WriteSPI_ext(LDE_CTRL, 0x1806, ldeCfg2, 2);
 549:dwm1000.c     **** 	RECEIVER_UpdatePacSize();
 550:dwm1000.c     **** }
 551:dwm1000.c     **** 
 552:dwm1000.c     **** void RECEIVER_SetPreambleCode(uint8_t preambleCode) {
 553:dwm1000.c     **** 	config.receiver.channel.preambleCode = CHANNEL_ValidPreambleCode(&(config.receiver.channel), pream
 554:dwm1000.c     **** 	RECEIVER_UpdatePreambleCode();
 555:dwm1000.c     **** }
 556:dwm1000.c     **** 
 557:dwm1000.c     **** void RECEIVER_SetPreambleSize(enum PE preambleSize) {
 558:dwm1000.c     **** 	config.receiver.channel.preambleSize = CHANNEL_ValidPreambleSize(&(config.receiver.channel), pream
 559:dwm1000.c     **** 	RECEIVER_UpdatePreambleSize();
ARM GAS  C:\Users\PIERRE~1\AppData\Local\Temp\ccqD7qlI.s 			page 17


 560:dwm1000.c     **** }
 561:dwm1000.c     **** 
 562:dwm1000.c     **** void RECEIVER_SetChannel(enum CHANNEL channel) {
 563:dwm1000.c     **** 	config.receiver.channel.channel = channel;
 564:dwm1000.c     **** 	if (!CHANNEL_IsValidPreambleCode(&(config.receiver.channel), config.receiver.channel.preambleCode)
 565:dwm1000.c     **** 		RECEIVER_SetPreambleCode(config.receiver.channel.preambleCode);
 566:dwm1000.c     **** 	}
 567:dwm1000.c     **** 
 568:dwm1000.c     **** 	RECEIVER_UpdateChannel();
 569:dwm1000.c     **** }
 570:dwm1000.c     **** 
 571:dwm1000.c     **** void RECEIVER_SetBitRate(enum BITRATE bitRate) {
 572:dwm1000.c     **** 	config.receiver.channel.bitRate = bitRate;
 573:dwm1000.c     **** 	if (!CHANNEL_IsValidPreambleSize(&(config.receiver.channel), config.receiver.channel.preambleSize)
 574:dwm1000.c     **** 		RECEIVER_SetPreambleSize(config.receiver.channel.preambleSize);
 575:dwm1000.c     **** 	}
 576:dwm1000.c     **** 	RECEIVER_UpdateBitrate();
 577:dwm1000.c     **** }
 578:dwm1000.c     **** 
 579:dwm1000.c     **** void RECEIVER_SetPrf(enum PRF prf) {
 580:dwm1000.c     **** 	config.receiver.channel.prf = prf;
 581:dwm1000.c     **** 	if (!CHANNEL_IsValidPreambleCode(&(config.receiver.channel), config.receiver.channel.preambleCode)
 582:dwm1000.c     **** 		RECEIVER_SetPreambleCode(config.receiver.channel.preambleCode);
 583:dwm1000.c     **** 	}
 584:dwm1000.c     **** 	RECEIVER_UpdatePrf();
 585:dwm1000.c     **** }
 586:dwm1000.c     **** 
 587:dwm1000.c     **** void RECEIVER_SetRrameTimeoutDelay(uint16_t timeoutDelay) {
 588:dwm1000.c     **** 	config.receiver.frameTimeoutDelay = timeoutDelay;
 589:dwm1000.c     **** 	RECEIVER_UpdateFrameTimeoutDelay();
 590:dwm1000.c     **** 
 591:dwm1000.c     **** }
 592:dwm1000.c     **** 
 593:dwm1000.c     **** static void RECEIVER_Init(void) {
 594:dwm1000.c     **** 	CHANNEL_Init(&(config.receiver.channel));
 595:dwm1000.c     **** 	config.receiver.frameTimeoutDelay = 0;
 596:dwm1000.c     **** 	RECEIVER_UpdateChannel();
 597:dwm1000.c     **** 	RECEIVER_UpdateBitrate();
 598:dwm1000.c     **** 	RECEIVER_UpdatePrf();
 599:dwm1000.c     **** 	RECEIVER_UpdatePreambleCode();
 600:dwm1000.c     **** 	RECEIVER_UpdatePreambleSize();
 601:dwm1000.c     **** 	RECEIVER_UpdateFrameTimeoutDelay();
 602:dwm1000.c     **** }
 603:dwm1000.c     **** 
 604:dwm1000.c     **** void DWM_SetChannel(enum CHANNEL channel) {
 605:dwm1000.c     **** 	config.channel = channel;
 606:dwm1000.c     **** 	TRANSMITTER_SetChannel(channel);
 607:dwm1000.c     **** 	RECEIVER_SetChannel(channel);
 608:dwm1000.c     **** 	DWM_UpdateChannel();
 609:dwm1000.c     **** }
 610:dwm1000.c     **** 
 611:dwm1000.c     **** static void CONFIG_Init(void) {
 612:dwm1000.c     **** 	DWM_Reset();
 613:dwm1000.c     **** 	TRANSMITTER_Init();
 614:dwm1000.c     **** 	RECEIVER_Init();
 615:dwm1000.c     **** 	config.channel = _5;
 616:dwm1000.c     **** 	DWM_UpdateChannel();
ARM GAS  C:\Users\PIERRE~1\AppData\Local\Temp\ccqD7qlI.s 			page 18


 617:dwm1000.c     **** 
 618:dwm1000.c     **** }
 619:dwm1000.c     **** 
 620:dwm1000.c     **** 
 621:dwm1000.c     **** /* ---------------------- Functions -------------------------------------- */
 622:dwm1000.c     **** 
 623:dwm1000.c     **** /* ------------------------------------- */
 624:dwm1000.c     **** /* STATE MANAGEMENT FUNCTION             */
 625:dwm1000.c     **** /* ------------------------------------- */
 626:dwm1000.c     **** 
 627:dwm1000.c     **** void DWM_Init(void){
 628:dwm1000.c     ****     CONFIG_Init();
 629:dwm1000.c     **** 	uint8_t SPIRxBuffer8[4];
 630:dwm1000.c     **** 
 631:dwm1000.c     ****     // Check DW ID
 632:dwm1000.c     **** 	DWM_ReadSPI_ext(DEV_ID, NO_SUB, SPIRxBuffer8, DEV_ID_LEN);
 633:dwm1000.c     **** 	uint32_t deviceID =(SPIRxBuffer8[3] << 24) | (SPIRxBuffer8[2] << 16) | (SPIRxBuffer8[1] << 8) | SP
 634:dwm1000.c     ****     if (deviceID != 0xDECA0130){
 635:dwm1000.c     **** 		//printf("Wrong DW ID \n");
 636:dwm1000.c     **** 		//printf("%" PRIx32 "\n", deviceID);
 637:dwm1000.c     **** 		// infinite loop
 638:dwm1000.c     **** 		while (1){
 639:dwm1000.c     **** 			CyDelay(100u);
 640:dwm1000.c     **** 		}
 641:dwm1000.c     **** 	}
 642:dwm1000.c     **** 	
 643:dwm1000.c     **** 	/****************************************************************************************
 644:dwm1000.c     **** 	 * *************************************************************************************/
 645:dwm1000.c     **** 	// DEFAULT CONFIGURATION THAT SOULD BE MODIFIED (SECTION 2.5.5 OF USER MANUAL)
 646:dwm1000.c     **** 
 647:dwm1000.c     **** 	//AGC_TUNE2
 648:dwm1000.c     **** 	uint8_t agc_tune2[] = {0x07, 0xA9, 0x02, 0x25};
 649:dwm1000.c     **** 	DWM_WriteSPI_ext(AGC_CTRL, 0x0C, agc_tune2, 4);
 650:dwm1000.c     **** 
 651:dwm1000.c     ****     // LDE_CFG1: NTM
 652:dwm1000.c     ****     uint8_t lde_cfg1[] = {0x6d};	// LOS CONFIGURATION
 653:dwm1000.c     **** 	//uint8_t lde_cfg1[] = {0x07};	// NLOS CONFIGURATION
 654:dwm1000.c     ****     DWM_WriteSPI_ext(LDE_CTRL, 0x0806, lde_cfg1, 1);
 655:dwm1000.c     **** 
 656:dwm1000.c     ****         // LDE_CFG2
 657:dwm1000.c     ****         //uint8_t lde_cfg2[] = {0x07, 0x16};
 658:dwm1000.c     ****         // NLOS CONFIGURATION
 659:dwm1000.c     ****         //uint8_t lde_cfg2[] = {0x03, 0x00};
 660:dwm1000.c     ****         //DWM_WriteSPI_ext(LDE_CTRL, 0x1806, lde_cfg2, 2);
 661:dwm1000.c     **** 		
 662:dwm1000.c     **** 	/****************************************************************************************
 663:dwm1000.c     **** 	 * *************************************************************************************/
 664:dwm1000.c     **** 	// setup of the irq
 665:dwm1000.c     **** 	uint8_t sysMask[SYS_MASK_LEN]={0};
 666:dwm1000.c     **** 	DWM_ReadSPI_ext(SYS_MASK, NO_SUB, sysMask, SYS_MASK_LEN);
 667:dwm1000.c     **** 	setBit(sysMask,SYS_MASK_LEN,7,1);// TX OK
 668:dwm1000.c     **** 	//setBit(sysMask,SYS_MASK_LEN,10,1);// RX OK
 669:dwm1000.c     **** 	setBit(sysMask,SYS_MASK_LEN,13,1);// RX OK
 670:dwm1000.c     **** 	//setBit(sysMask,SYS_MASK_LEN,14,1);// RX OK
 671:dwm1000.c     **** 	setBit(sysMask,SYS_MASK_LEN,12,1);// RX ERROR
 672:dwm1000.c     **** 	setBit(sysMask,SYS_MASK_LEN,15,1);// RX ERROR
 673:dwm1000.c     **** 	setBit(sysMask,SYS_MASK_LEN,16,1);// RX ERROR
ARM GAS  C:\Users\PIERRE~1\AppData\Local\Temp\ccqD7qlI.s 			page 19


 674:dwm1000.c     **** 	setBit(sysMask,SYS_MASK_LEN,17,1);// RX TIMEOUT
 675:dwm1000.c     **** 	setBit(sysMask,SYS_MASK_LEN,18,1);// RX ERROR
 676:dwm1000.c     **** 	setBit(sysMask,SYS_MASK_LEN,21,1);// RX ERROR
 677:dwm1000.c     **** 	setBit(sysMask,SYS_MASK_LEN,26,1);// RX ERROR
 678:dwm1000.c     **** 	DWM_WriteSPI_ext(SYS_MASK, NO_SUB, sysMask, SYS_MASK_LEN);
 679:dwm1000.c     ****     
 680:dwm1000.c     ****     
 681:dwm1000.c     **** 	// antenna delay
 682:dwm1000.c     **** 	uint8_t delayuint8[2];
 683:dwm1000.c     ****     uint16_t antennaDelay = ANTENNA_DELAY >> 1;
 684:dwm1000.c     ****     delayuint8[1] = (antennaDelay & 0xFF00) >>8;
 685:dwm1000.c     ****     delayuint8[0] = (antennaDelay & 0xFF);
 686:dwm1000.c     ****     DWM_WriteSPI_ext(TX_ANTD, NO_SUB, delayuint8, 2);
 687:dwm1000.c     ****     DWM_WriteSPI_ext(LDE_CTRL, 0x1804, delayuint8, 2);
 688:dwm1000.c     **** 	
 689:dwm1000.c     **** 	CyDelay(100u);
 690:dwm1000.c     **** 	DWM_ReadSPI_ext(DEV_ID, NO_SUB, SPIRxBuffer8, DEV_ID_LEN);
 691:dwm1000.c     **** 	deviceID =(SPIRxBuffer8[3] << 24) | (SPIRxBuffer8[2] << 16) | (SPIRxBuffer8[1] << 8) | SPIRxBuffer
 692:dwm1000.c     **** 
 693:dwm1000.c     **** 	if (deviceID != 0xDECA0130){
 694:dwm1000.c     **** 		//printf("Wrong DW ID \n");
 695:dwm1000.c     **** 		//printf("%" PRIx32 "\n", deviceID);
 696:dwm1000.c     **** 		// infinite loop
 697:dwm1000.c     **** 		while (1){
 698:dwm1000.c     **** 			CyDelay(100u);
 699:dwm1000.c     **** 		}
 700:dwm1000.c     **** 	}
 701:dwm1000.c     ****     
 702:dwm1000.c     **** }
 703:dwm1000.c     **** 	
 704:dwm1000.c     **** 
 705:dwm1000.c     **** void idle() {
 706:dwm1000.c     **** 	// Set the device in IDLE mode
 707:dwm1000.c     **** 	uint8_t sysCtrl[4] = {1 << TRXOFF_BIT};
 708:dwm1000.c     **** 	uint8_t ack[4] = {0};
 709:dwm1000.c     **** 	// Update the DWM1000 module
 710:dwm1000.c     **** 	uint8_t prim = IRQ_GetState();
 711:dwm1000.c     **** 	IRQ_Disable();
 712:dwm1000.c     **** 	DWM_WriteSPI_ext(SYS_CTRL, NO_SUB, sysCtrl, 4);
 713:dwm1000.c     **** 
 714:dwm1000.c     **** 	setBit(ack, 4, TX_OK_BIT, 1);
 715:dwm1000.c     **** 	uint32_t Rx_mask = RX_FINISHED_MASK | RX_ERROR_MASK;
 716:dwm1000.c     **** 	ack[0] |= Rx_mask;
 717:dwm1000.c     **** 	ack[1] |= Rx_mask >> 8;
 718:dwm1000.c     **** 	ack[2] |= Rx_mask >> 16;
 719:dwm1000.c     **** 	ack[3] |= Rx_mask >> 24;
 720:dwm1000.c     **** 	// clear IRQ flags on DW
 721:dwm1000.c     **** 	DWM_WriteSPI_ext(SYS_STATUS, NO_SUB, ack, 4);
 722:dwm1000.c     **** 	if(prim){IRQ_Enable();}
 723:dwm1000.c     **** }
 724:dwm1000.c     **** 
 725:dwm1000.c     **** 
 726:dwm1000.c     **** static void DWM_Reset(void){
 727:dwm1000.c     **** 	uint8_t pmscCtrl0[2];
 728:dwm1000.c     **** 
 729:dwm1000.c     **** 	// Set SYSCLKS bits to 01
 730:dwm1000.c     **** 	pmscCtrl0[0] = 0x01;
ARM GAS  C:\Users\PIERRE~1\AppData\Local\Temp\ccqD7qlI.s 			page 20


 731:dwm1000.c     **** 	DWM_WriteSPI_ext(PMSC, PMSC_CTRL0, pmscCtrl0, 1);
 732:dwm1000.c     **** 	CyDelay(1u);
 733:dwm1000.c     **** 
 734:dwm1000.c     **** 	// Clear SOFTRESET bits
 735:dwm1000.c     **** 	pmscCtrl0[0] = 0x00;
 736:dwm1000.c     **** 	DWM_WriteSPI_ext(PMSC, 0x03, pmscCtrl0, 1),
 737:dwm1000.c     **** 	CyDelay(1u);
 738:dwm1000.c     **** 
 739:dwm1000.c     **** 	// Set SOFTRESET bits
 740:dwm1000.c     **** 	pmscCtrl0[0] = 0xF0;
 741:dwm1000.c     **** 	DWM_WriteSPI_ext(PMSC, 0x03, pmscCtrl0, 1);
 742:dwm1000.c     **** 	CyDelay(5u);
 743:dwm1000.c     **** 
 744:dwm1000.c     ****     // Load the LDE algorithm microcode into LDE RAM or disable LDE execution (clear LDERUNE)
 745:dwm1000.c     **** 	pmscCtrl0[0] = 0x01;
 746:dwm1000.c     **** 	pmscCtrl0[1] = 0x03;
 747:dwm1000.c     **** 	DWM_WriteSPI_ext(PMSC, PMSC_CTRL0, pmscCtrl0, 2);
 748:dwm1000.c     **** 	CyDelay(1u);
 749:dwm1000.c     **** 
 750:dwm1000.c     **** 	uint8_t opt_ctrl[2];
 751:dwm1000.c     **** 	opt_ctrl[0] = 0x00;
 752:dwm1000.c     **** 	opt_ctrl[1] = 0x80;
 753:dwm1000.c     **** 	DWM_WriteSPI_ext(OTP_IF, 0x06, opt_ctrl, 2);
 754:dwm1000.c     **** 	CyDelay(1u);
 755:dwm1000.c     **** 
 756:dwm1000.c     **** 	pmscCtrl0[0] = 0x00;
 757:dwm1000.c     **** 	pmscCtrl0[1] = 0x02;
 758:dwm1000.c     **** 	DWM_WriteSPI_ext(PMSC, PMSC_CTRL0, pmscCtrl0, 2);
 759:dwm1000.c     **** }
 760:dwm1000.c     **** 
 761:dwm1000.c     **** void DWM_Reset_Rx(){
 762:dwm1000.c     **** 	uint8_t pmscCtrl0[] = {0xE0};
 763:dwm1000.c     **** 	DWM_WriteSPI_ext(PMSC, 0x03, pmscCtrl0, 1);
 764:dwm1000.c     **** 
 765:dwm1000.c     **** 	pmscCtrl0[0] = 0xF0;
 766:dwm1000.c     **** 	DWM_WriteSPI_ext(PMSC, 0x03, pmscCtrl0, 1);
 767:dwm1000.c     **** }
 768:dwm1000.c     **** 
 769:dwm1000.c     **** void DWM_Enable_Rx(void){
 770:dwm1000.c     **** 	uint8_t TxBuf8[4] = {0};
 771:dwm1000.c     **** 	setBit(TxBuf8,4,8,1);
 772:dwm1000.c     **** 	DWM_WriteSPI_ext(SYS_CTRL, NO_SUB, TxBuf8, 4);
 773:dwm1000.c     **** }
 774:dwm1000.c     **** 
 775:dwm1000.c     **** /* ------------------------------------- */
 776:dwm1000.c     **** /*  BITs AND BYTEs  FUNCTIONS            */
 777:dwm1000.c     **** /* ------------------------------------- */
 778:dwm1000.c     **** 
 779:dwm1000.c     **** void setBit(uint8_t *data, uint16_t len, uint8_t bit, uint8_t val) {
 346              		.loc 1 779 0
 347              		.cfi_startproc
 348              		@ args = 0, pretend = 0, frame = 0
 349              		@ frame_needed = 0, uses_anonymous_args = 0
 350              		@ link register save eliminated.
 351              	.LVL29:
 352 0000 30B4     		push	{r4, r5}
 353              		.cfi_def_cfa_offset 8
ARM GAS  C:\Users\PIERRE~1\AppData\Local\Temp\ccqD7qlI.s 			page 21


 354              		.cfi_offset 4, -8
 355              		.cfi_offset 5, -4
 780:dwm1000.c     **** 	uint16_t idx;
 781:dwm1000.c     **** 	uint8_t shift;
 782:dwm1000.c     **** 	
 783:dwm1000.c     **** 	idx = bit>>3;
 356              		.loc 1 783 0
 357 0002 D408     		lsrs	r4, r2, #3
 358 0004 A5B2     		uxth	r5, r4
 359              	.LVL30:
 784:dwm1000.c     **** 	if (idx >= len) return;
 360              		.loc 1 784 0
 361 0006 8D42     		cmp	r5, r1
 362 0008 10D2     		bcs	.L36
 363              	.LVL31:
 785:dwm1000.c     **** 	
 786:dwm1000.c     **** 	uint8_t* targetByte = &data[idx];
 787:dwm1000.c     **** 	shift = bit%8;
 364              		.loc 1 787 0
 365 000a 02F00702 		and	r2, r2, #7
 366              	.LVL32:
 788:dwm1000.c     **** 	if (val) {
 367              		.loc 1 788 0
 368 000e 33B1     		cbz	r3, .L38
 789:dwm1000.c     **** 		Bitset(*targetByte, shift);
 369              		.loc 1 789 0
 370 0010 0123     		movs	r3, #1
 371              	.LVL33:
 372 0012 03FA02F2 		lsl	r2, r3, r2
 373              	.LVL34:
 374 0016 035D     		ldrb	r3, [r0, r4]	@ zero_extendqisi2
 375 0018 1A43     		orrs	r2, r2, r3
 376 001a 0255     		strb	r2, [r0, r4]
 377 001c 06E0     		b	.L36
 378              	.LVL35:
 379              	.L38:
 790:dwm1000.c     **** 	} else {
 791:dwm1000.c     **** 		Bitclear(*targetByte, shift);
 380              		.loc 1 791 0
 381 001e 0123     		movs	r3, #1
 382              	.LVL36:
 383 0020 03FA02F2 		lsl	r2, r3, r2
 384              	.LVL37:
 385 0024 035D     		ldrb	r3, [r0, r4]	@ zero_extendqisi2
 386 0026 23EA0202 		bic	r2, r3, r2
 387 002a 0255     		strb	r2, [r0, r4]
 388              	.LVL38:
 389              	.L36:
 792:dwm1000.c     **** 	}
 793:dwm1000.c     **** }
 390              		.loc 1 793 0
 391 002c 30BC     		pop	{r4, r5}
 392              		.cfi_restore 5
 393              		.cfi_restore 4
 394              		.cfi_def_cfa_offset 0
 395              	.LVL39:
 396 002e 7047     		bx	lr
ARM GAS  C:\Users\PIERRE~1\AppData\Local\Temp\ccqD7qlI.s 			page 22


 397              		.cfi_endproc
 398              	.LFE103:
 399              		.size	setBit, .-setBit
 400              		.section	.text.int2Bytes,"ax",%progbits
 401              		.align	2
 402              		.global	int2Bytes
 403              		.thumb
 404              		.thumb_func
 405              		.type	int2Bytes, %function
 406              	int2Bytes:
 407              	.LFB104:
 794:dwm1000.c     **** 
 795:dwm1000.c     **** void int2Bytes(const uint32_t dataInt, uint8_t data[4]) {
 408              		.loc 1 795 0
 409              		.cfi_startproc
 410              		@ args = 0, pretend = 0, frame = 0
 411              		@ frame_needed = 0, uses_anonymous_args = 0
 412              		@ link register save eliminated.
 413              	.LVL40:
 796:dwm1000.c     **** 	data[0] = dataInt;
 414              		.loc 1 796 0
 415 0000 0870     		strb	r0, [r1]
 797:dwm1000.c     **** 	data[1] = dataInt >> 8;
 416              		.loc 1 797 0
 417 0002 030A     		lsrs	r3, r0, #8
 418 0004 4B70     		strb	r3, [r1, #1]
 798:dwm1000.c     **** 	data[2] = dataInt >> 16;
 419              		.loc 1 798 0
 420 0006 030C     		lsrs	r3, r0, #16
 421 0008 8B70     		strb	r3, [r1, #2]
 799:dwm1000.c     **** 	data[3] = dataInt >> 24;
 422              		.loc 1 799 0
 423 000a 000E     		lsrs	r0, r0, #24
 424              	.LVL41:
 425 000c C870     		strb	r0, [r1, #3]
 426 000e 7047     		bx	lr
 427              		.cfi_endproc
 428              	.LFE104:
 429              		.size	int2Bytes, .-int2Bytes
 430              		.section	.text.short2Bytes,"ax",%progbits
 431              		.align	2
 432              		.global	short2Bytes
 433              		.thumb
 434              		.thumb_func
 435              		.type	short2Bytes, %function
 436              	short2Bytes:
 437              	.LFB105:
 800:dwm1000.c     **** }
 801:dwm1000.c     **** 
 802:dwm1000.c     **** void short2Bytes(const uint16_t	dataShort, uint8_t data[2]) {
 438              		.loc 1 802 0
 439              		.cfi_startproc
 440              		@ args = 0, pretend = 0, frame = 0
 441              		@ frame_needed = 0, uses_anonymous_args = 0
 442              		@ link register save eliminated.
 443              	.LVL42:
 803:dwm1000.c     **** 	data[0] = dataShort;
ARM GAS  C:\Users\PIERRE~1\AppData\Local\Temp\ccqD7qlI.s 			page 23


 444              		.loc 1 803 0
 445 0000 0870     		strb	r0, [r1]
 804:dwm1000.c     **** 	data[1] = dataShort >> 8;
 446              		.loc 1 804 0
 447 0002 000A     		lsrs	r0, r0, #8
 448              	.LVL43:
 449 0004 4870     		strb	r0, [r1, #1]
 450 0006 7047     		bx	lr
 451              		.cfi_endproc
 452              	.LFE105:
 453              		.size	short2Bytes, .-short2Bytes
 454              		.section	.text.DWM_ReadSPI_ext,"ax",%progbits
 455              		.align	2
 456              		.global	DWM_ReadSPI_ext
 457              		.thumb
 458              		.thumb_func
 459              		.type	DWM_ReadSPI_ext, %function
 460              	DWM_ReadSPI_ext:
 461              	.LFB106:
 805:dwm1000.c     **** }
 806:dwm1000.c     **** 
 807:dwm1000.c     **** /* ------------------------------------- */
 808:dwm1000.c     **** /*  RAW READ-WRITE FUNCTIONS             */
 809:dwm1000.c     **** /* ------------------------------------- */
 810:dwm1000.c     **** 
 811:dwm1000.c     **** void DWM_ReadSPI_ext(uint8_t address, uint16_t offset, uint8_t *data, uint16_t len) {
 462              		.loc 1 811 0
 463              		.cfi_startproc
 464              		@ args = 0, pretend = 0, frame = 8
 465              		@ frame_needed = 0, uses_anonymous_args = 0
 466              	.LVL44:
 467 0000 2DE9F043 		push	{r4, r5, r6, r7, r8, r9, lr}
 468              		.cfi_def_cfa_offset 28
 469              		.cfi_offset 4, -28
 470              		.cfi_offset 5, -24
 471              		.cfi_offset 6, -20
 472              		.cfi_offset 7, -16
 473              		.cfi_offset 8, -12
 474              		.cfi_offset 9, -8
 475              		.cfi_offset 14, -4
 476 0004 83B0     		sub	sp, sp, #12
 477              		.cfi_def_cfa_offset 40
 478 0006 1646     		mov	r6, r2
 479 0008 1D46     		mov	r5, r3
 812:dwm1000.c     **** 	uint8_t header[3] = {0};
 480              		.loc 1 812 0
 481 000a 0023     		movs	r3, #0
 482              	.LVL45:
 483 000c ADF80430 		strh	r3, [sp, #4]	@ movhi
 484 0010 8DF80630 		strb	r3, [sp, #6]
 485              	.LVL46:
 813:dwm1000.c     **** 	uint16_t i = 0;
 814:dwm1000.c     **** 	uint8_t headerLen = 1;
 815:dwm1000.c     ****     if (offset == NO_SUB) {
 486              		.loc 1 815 0
 487 0014 4FF6FF73 		movw	r3, #65535
 488 0018 9942     		cmp	r1, r3
ARM GAS  C:\Users\PIERRE~1\AppData\Local\Temp\ccqD7qlI.s 			page 24


 489 001a 04D1     		bne	.L43
 816:dwm1000.c     **** 		header[0] = address | READ;
 490              		.loc 1 816 0
 491 001c 8DF80400 		strb	r0, [sp, #4]
 814:dwm1000.c     ****     if (offset == NO_SUB) {
 492              		.loc 1 814 0
 493 0020 4FF00109 		mov	r9, #1
 494 0024 14E0     		b	.L44
 495              	.L43:
 817:dwm1000.c     **** 	} else {
 818:dwm1000.c     **** 		header[0] = address | READ_SUB;
 496              		.loc 1 818 0
 497 0026 40F04000 		orr	r0, r0, #64
 498              	.LVL47:
 499 002a 8DF80400 		strb	r0, [sp, #4]
 819:dwm1000.c     **** 		if(offset < 128) {
 500              		.loc 1 819 0
 501 002e 7F29     		cmp	r1, #127
 502 0030 04D8     		bhi	.L45
 820:dwm1000.c     **** 			header[1] = (uint8_t)offset;
 503              		.loc 1 820 0
 504 0032 8DF80510 		strb	r1, [sp, #5]
 505              	.LVL48:
 821:dwm1000.c     **** 			headerLen++;
 506              		.loc 1 821 0
 507 0036 4FF00209 		mov	r9, #2
 508 003a 09E0     		b	.L44
 509              	.LVL49:
 510              	.L45:
 822:dwm1000.c     **** 		} else {
 823:dwm1000.c     **** 			header[1] = (uint8_t)offset | RW_SUB_EXT;
 511              		.loc 1 823 0
 512 003c 61F07F03 		orn	r3, r1, #127
 513 0040 8DF80530 		strb	r3, [sp, #5]
 824:dwm1000.c     **** 			header[2] = (uint8_t)(offset >> 7);
 514              		.loc 1 824 0
 515 0044 C1F3C711 		ubfx	r1, r1, #7, #8
 516              	.LVL50:
 517 0048 8DF80610 		strb	r1, [sp, #6]
 518              	.LVL51:
 825:dwm1000.c     **** 			headerLen += 2;
 519              		.loc 1 825 0
 520 004c 4FF00309 		mov	r9, #3
 521              	.LVL52:
 522              	.L44:
 826:dwm1000.c     **** 		}
 827:dwm1000.c     **** 	}
 828:dwm1000.c     **** 	uint8_t prim = IRQ_GetState();
 523              		.loc 1 828 0
 524 0050 FFF7FEFF 		bl	IRQ_GetState
 525              	.LVL53:
 526 0054 0746     		mov	r7, r0
 527              	.LVL54:
 829:dwm1000.c     **** 	IRQ_Disable();
 528              		.loc 1 829 0
 529 0056 FFF7FEFF 		bl	IRQ_Disable
 530              	.LVL55:
ARM GAS  C:\Users\PIERRE~1\AppData\Local\Temp\ccqD7qlI.s 			page 25


 830:dwm1000.c     **** 	// Hack write byte by byte to avoid hardfault on HAL_SPI_Transmit with non 2 bytes aligned data
 831:dwm1000.c     ****     for(i=0;i<headerLen;i++){
 531              		.loc 1 831 0
 532 005a 0024     		movs	r4, #0
 533 005c 07E0     		b	.L46
 534              	.LVL56:
 535              	.L47:
 832:dwm1000.c     ****         SPIM_WriteTxData(header[i]); //demande
 536              		.loc 1 832 0 discriminator 3
 537 005e 02AB     		add	r3, sp, #8
 538 0060 2344     		add	r3, r3, r4
 539 0062 13F8040C 		ldrb	r0, [r3, #-4]	@ zero_extendqisi2
 540 0066 FFF7FEFF 		bl	SPIM_WriteTxData
 541              	.LVL57:
 831:dwm1000.c     ****         SPIM_WriteTxData(header[i]); //demande
 542              		.loc 1 831 0 discriminator 3
 543 006a 0134     		adds	r4, r4, #1
 544              	.LVL58:
 545 006c A4B2     		uxth	r4, r4
 546              	.LVL59:
 547              	.L46:
 831:dwm1000.c     ****         SPIM_WriteTxData(header[i]); //demande
 548              		.loc 1 831 0 is_stmt 0 discriminator 1
 549 006e 1FFA89F8 		uxth	r8, r9
 550 0072 4445     		cmp	r4, r8
 551 0074 F3D3     		bcc	.L47
 552 0076 0024     		movs	r4, #0
 553              	.LVL60:
 554 0078 04E0     		b	.L48
 555              	.LVL61:
 556              	.L49:
 833:dwm1000.c     ****     }
 834:dwm1000.c     ****     for(i=0;i<len;i++){    
 835:dwm1000.c     ****         SPIM_WriteTxData(0x00u);
 557              		.loc 1 835 0 is_stmt 1 discriminator 3
 558 007a 0020     		movs	r0, #0
 559 007c FFF7FEFF 		bl	SPIM_WriteTxData
 560              	.LVL62:
 834:dwm1000.c     ****         SPIM_WriteTxData(0x00u);
 561              		.loc 1 834 0 discriminator 3
 562 0080 0134     		adds	r4, r4, #1
 563              	.LVL63:
 564 0082 A4B2     		uxth	r4, r4
 565              	.LVL64:
 566              	.L48:
 834:dwm1000.c     ****         SPIM_WriteTxData(0x00u);
 567              		.loc 1 834 0 is_stmt 0 discriminator 1
 568 0084 AC42     		cmp	r4, r5
 569 0086 F8D3     		bcc	.L49
 570              	.L50:
 836:dwm1000.c     ****     }
 837:dwm1000.c     ****     while(!(SPIM_ReadTxStatus() & SPIM_STS_SPI_DONE));  
 571              		.loc 1 837 0 is_stmt 1 discriminator 1
 572 0088 FFF7FEFF 		bl	SPIM_ReadTxStatus
 573              	.LVL65:
 574 008c 10F0010F 		tst	r0, #1
 575 0090 FAD0     		beq	.L50
ARM GAS  C:\Users\PIERRE~1\AppData\Local\Temp\ccqD7qlI.s 			page 26


 576 0092 0024     		movs	r4, #0
 577              	.LVL66:
 578 0094 03E0     		b	.L51
 579              	.LVL67:
 580              	.L52:
 838:dwm1000.c     ****     for(i=0;i<headerLen;i++){    
 839:dwm1000.c     ****         SPIM_ReadRxData();
 581              		.loc 1 839 0 discriminator 3
 582 0096 FFF7FEFF 		bl	SPIM_ReadRxData
 583              	.LVL68:
 838:dwm1000.c     ****     for(i=0;i<headerLen;i++){    
 584              		.loc 1 838 0 discriminator 3
 585 009a 0134     		adds	r4, r4, #1
 586              	.LVL69:
 587 009c A4B2     		uxth	r4, r4
 588              	.LVL70:
 589              	.L51:
 838:dwm1000.c     ****     for(i=0;i<headerLen;i++){    
 590              		.loc 1 838 0 is_stmt 0 discriminator 1
 591 009e 4445     		cmp	r4, r8
 592 00a0 F9D3     		bcc	.L52
 593 00a2 0024     		movs	r4, #0
 594              	.LVL71:
 595 00a4 04E0     		b	.L53
 596              	.LVL72:
 597              	.L54:
 840:dwm1000.c     ****     }
 841:dwm1000.c     ****     for (i=0; i<len; i++) {
 842:dwm1000.c     **** 		data[i] = SPIM_ReadRxData();
 598              		.loc 1 842 0 is_stmt 1 discriminator 3
 599 00a6 FFF7FEFF 		bl	SPIM_ReadRxData
 600              	.LVL73:
 601 00aa 3055     		strb	r0, [r6, r4]
 841:dwm1000.c     **** 		data[i] = SPIM_ReadRxData();
 602              		.loc 1 841 0 discriminator 3
 603 00ac 0134     		adds	r4, r4, #1
 604              	.LVL74:
 605 00ae A4B2     		uxth	r4, r4
 606              	.LVL75:
 607              	.L53:
 841:dwm1000.c     **** 		data[i] = SPIM_ReadRxData();
 608              		.loc 1 841 0 is_stmt 0 discriminator 1
 609 00b0 AC42     		cmp	r4, r5
 610 00b2 F8D3     		bcc	.L54
 843:dwm1000.c     **** 	}
 844:dwm1000.c     **** 	if(prim){IRQ_Enable();}
 611              		.loc 1 844 0 is_stmt 1
 612 00b4 0FB1     		cbz	r7, .L42
 613              		.loc 1 844 0 is_stmt 0 discriminator 1
 614 00b6 FFF7FEFF 		bl	IRQ_Enable
 615              	.LVL76:
 616              	.L42:
 845:dwm1000.c     **** }
 617              		.loc 1 845 0 is_stmt 1
 618 00ba 03B0     		add	sp, sp, #12
 619              		.cfi_def_cfa_offset 28
 620              		@ sp needed
ARM GAS  C:\Users\PIERRE~1\AppData\Local\Temp\ccqD7qlI.s 			page 27


 621 00bc BDE8F083 		pop	{r4, r5, r6, r7, r8, r9, pc}
 622              		.cfi_endproc
 623              	.LFE106:
 624              		.size	DWM_ReadSPI_ext, .-DWM_ReadSPI_ext
 625              		.section	.text.DWM_WriteSPI_ext,"ax",%progbits
 626              		.align	2
 627              		.global	DWM_WriteSPI_ext
 628              		.thumb
 629              		.thumb_func
 630              		.type	DWM_WriteSPI_ext, %function
 631              	DWM_WriteSPI_ext:
 632              	.LFB107:
 846:dwm1000.c     **** 
 847:dwm1000.c     **** void DWM_WriteSPI_ext(uint8_t address, uint16_t offset, uint8_t *data, uint16_t len) {
 633              		.loc 1 847 0
 634              		.cfi_startproc
 635              		@ args = 0, pretend = 0, frame = 8
 636              		@ frame_needed = 0, uses_anonymous_args = 0
 637              	.LVL77:
 638 0000 2DE9F041 		push	{r4, r5, r6, r7, r8, lr}
 639              		.cfi_def_cfa_offset 24
 640              		.cfi_offset 4, -24
 641              		.cfi_offset 5, -20
 642              		.cfi_offset 6, -16
 643              		.cfi_offset 7, -12
 644              		.cfi_offset 8, -8
 645              		.cfi_offset 14, -4
 646 0004 82B0     		sub	sp, sp, #8
 647              		.cfi_def_cfa_offset 32
 648 0006 9046     		mov	r8, r2
 649 0008 1D46     		mov	r5, r3
 650              	.LVL78:
 848:dwm1000.c     **** 	uint8_t header[3];
 849:dwm1000.c     **** 	uint8_t headerLen = 1;
 850:dwm1000.c     **** 	uint16_t i = 0;
 851:dwm1000.c     **** 	if (offset == NO_SUB) {
 651              		.loc 1 851 0
 652 000a 4FF6FF73 		movw	r3, #65535
 653              	.LVL79:
 654 000e 9942     		cmp	r1, r3
 655 0010 05D1     		bne	.L58
 852:dwm1000.c     **** 		header[0] = address | WRITE;
 656              		.loc 1 852 0
 657 0012 60F07F00 		orn	r0, r0, #127
 658              	.LVL80:
 659 0016 8DF80400 		strb	r0, [sp, #4]
 849:dwm1000.c     **** 	uint16_t i = 0;
 660              		.loc 1 849 0
 661 001a 0126     		movs	r6, #1
 662 001c 12E0     		b	.L59
 663              	.LVL81:
 664              	.L58:
 853:dwm1000.c     **** 	} else {
 854:dwm1000.c     **** 		header[0] = address | WRITE_SUB;
 665              		.loc 1 854 0
 666 001e 60F03F00 		orn	r0, r0, #63
 667              	.LVL82:
ARM GAS  C:\Users\PIERRE~1\AppData\Local\Temp\ccqD7qlI.s 			page 28


 668 0022 8DF80400 		strb	r0, [sp, #4]
 855:dwm1000.c     **** 		if(offset < 128) {
 669              		.loc 1 855 0
 670 0026 7F29     		cmp	r1, #127
 671 0028 03D8     		bhi	.L60
 856:dwm1000.c     **** 			header[1] = (uint8_t)offset;
 672              		.loc 1 856 0
 673 002a 8DF80510 		strb	r1, [sp, #5]
 674              	.LVL83:
 857:dwm1000.c     **** 			headerLen++;
 675              		.loc 1 857 0
 676 002e 0226     		movs	r6, #2
 677 0030 08E0     		b	.L59
 678              	.LVL84:
 679              	.L60:
 858:dwm1000.c     **** 		} else {
 859:dwm1000.c     **** 			header[1] = (uint8_t)offset | RW_SUB_EXT;
 680              		.loc 1 859 0
 681 0032 61F07F03 		orn	r3, r1, #127
 682 0036 8DF80530 		strb	r3, [sp, #5]
 860:dwm1000.c     **** 			header[2] = (uint8_t)(offset >> 7);
 683              		.loc 1 860 0
 684 003a C1F3C711 		ubfx	r1, r1, #7, #8
 685              	.LVL85:
 686 003e 8DF80610 		strb	r1, [sp, #6]
 687              	.LVL86:
 861:dwm1000.c     **** 			headerLen += 2;
 688              		.loc 1 861 0
 689 0042 0326     		movs	r6, #3
 690              	.LVL87:
 691              	.L59:
 862:dwm1000.c     **** 		}
 863:dwm1000.c     **** 	}
 864:dwm1000.c     **** 	uint8_t prim = IRQ_GetState();
 692              		.loc 1 864 0
 693 0044 FFF7FEFF 		bl	IRQ_GetState
 694              	.LVL88:
 695 0048 0746     		mov	r7, r0
 696              	.LVL89:
 865:dwm1000.c     **** 	IRQ_Disable();
 697              		.loc 1 865 0
 698 004a FFF7FEFF 		bl	IRQ_Disable
 699              	.LVL90:
 866:dwm1000.c     **** 	// Hack write byte by byte to avoid hardfault on HAL_SPI_Transmit with non 2 bytes aligned data
 867:dwm1000.c     **** 	for (i=0; i < headerLen; i++) {
 700              		.loc 1 867 0
 701 004e 0024     		movs	r4, #0
 702 0050 07E0     		b	.L61
 703              	.LVL91:
 704              	.L62:
 868:dwm1000.c     **** 		SPIM_WriteTxData(header[i]);
 705              		.loc 1 868 0 discriminator 3
 706 0052 02AB     		add	r3, sp, #8
 707 0054 2344     		add	r3, r3, r4
 708 0056 13F8040C 		ldrb	r0, [r3, #-4]	@ zero_extendqisi2
 709 005a FFF7FEFF 		bl	SPIM_WriteTxData
 710              	.LVL92:
ARM GAS  C:\Users\PIERRE~1\AppData\Local\Temp\ccqD7qlI.s 			page 29


 867:dwm1000.c     **** 		SPIM_WriteTxData(header[i]);
 711              		.loc 1 867 0 discriminator 3
 712 005e 0134     		adds	r4, r4, #1
 713              	.LVL93:
 714 0060 A4B2     		uxth	r4, r4
 715              	.LVL94:
 716              	.L61:
 867:dwm1000.c     **** 		SPIM_WriteTxData(header[i]);
 717              		.loc 1 867 0 is_stmt 0 discriminator 1
 718 0062 B3B2     		uxth	r3, r6
 719 0064 9C42     		cmp	r4, r3
 720 0066 F4D3     		bcc	.L62
 721 0068 0024     		movs	r4, #0
 722              	.LVL95:
 723 006a 05E0     		b	.L63
 724              	.LVL96:
 725              	.L64:
 869:dwm1000.c     **** 	}
 870:dwm1000.c     **** 	for (i=0; i < len; i++) {
 871:dwm1000.c     **** 		SPIM_WriteTxData(data[i]);
 726              		.loc 1 871 0 is_stmt 1 discriminator 3
 727 006c 18F80400 		ldrb	r0, [r8, r4]	@ zero_extendqisi2
 728 0070 FFF7FEFF 		bl	SPIM_WriteTxData
 729              	.LVL97:
 870:dwm1000.c     **** 		SPIM_WriteTxData(data[i]);
 730              		.loc 1 870 0 discriminator 3
 731 0074 0134     		adds	r4, r4, #1
 732              	.LVL98:
 733 0076 A4B2     		uxth	r4, r4
 734              	.LVL99:
 735              	.L63:
 870:dwm1000.c     **** 		SPIM_WriteTxData(data[i]);
 736              		.loc 1 870 0 is_stmt 0 discriminator 1
 737 0078 AC42     		cmp	r4, r5
 738 007a F7D3     		bcc	.L64
 739              	.L65:
 872:dwm1000.c     **** 	}
 873:dwm1000.c     ****     while(!(SPIM_ReadTxStatus() & SPIM_STS_SPI_DONE));  
 740              		.loc 1 873 0 is_stmt 1 discriminator 1
 741 007c FFF7FEFF 		bl	SPIM_ReadTxStatus
 742              	.LVL100:
 743 0080 10F0010F 		tst	r0, #1
 744 0084 FAD0     		beq	.L65
 745 0086 0024     		movs	r4, #0
 746              	.LVL101:
 747 0088 03E0     		b	.L66
 748              	.LVL102:
 749              	.L67:
 874:dwm1000.c     ****     for(i=0;i<(headerLen+len);i++){    
 875:dwm1000.c     ****         SPIM_ReadRxData();
 750              		.loc 1 875 0 discriminator 3
 751 008a FFF7FEFF 		bl	SPIM_ReadRxData
 752              	.LVL103:
 874:dwm1000.c     ****     for(i=0;i<(headerLen+len);i++){    
 753              		.loc 1 874 0 discriminator 3
 754 008e 0134     		adds	r4, r4, #1
 755              	.LVL104:
ARM GAS  C:\Users\PIERRE~1\AppData\Local\Temp\ccqD7qlI.s 			page 30


 756 0090 A4B2     		uxth	r4, r4
 757              	.LVL105:
 758              	.L66:
 874:dwm1000.c     ****     for(i=0;i<(headerLen+len);i++){    
 759              		.loc 1 874 0 is_stmt 0 discriminator 1
 760 0092 7319     		adds	r3, r6, r5
 761 0094 9C42     		cmp	r4, r3
 762 0096 F8DB     		blt	.L67
 876:dwm1000.c     ****     }
 877:dwm1000.c     **** 	if(prim){IRQ_Enable();}
 763              		.loc 1 877 0 is_stmt 1
 764 0098 0FB1     		cbz	r7, .L57
 765              		.loc 1 877 0 is_stmt 0 discriminator 1
 766 009a FFF7FEFF 		bl	IRQ_Enable
 767              	.LVL106:
 768              	.L57:
 878:dwm1000.c     **** }
 769              		.loc 1 878 0 is_stmt 1
 770 009e 02B0     		add	sp, sp, #8
 771              		.cfi_def_cfa_offset 24
 772              		@ sp needed
 773 00a0 BDE8F081 		pop	{r4, r5, r6, r7, r8, pc}
 774              		.cfi_endproc
 775              	.LFE107:
 776              		.size	DWM_WriteSPI_ext, .-DWM_WriteSPI_ext
 777              		.section	.text.TRANSMITTER_UpdatePreambleCode,"ax",%progbits
 778              		.align	2
 779              		.thumb
 780              		.thumb_func
 781              		.type	TRANSMITTER_UpdatePreambleCode, %function
 782              	TRANSMITTER_UpdatePreambleCode:
 783              	.LFB72:
 300:dwm1000.c     **** 	uint8_t chan[2];
 784              		.loc 1 300 0
 785              		.cfi_startproc
 786              		@ args = 0, pretend = 0, frame = 8
 787              		@ frame_needed = 0, uses_anonymous_args = 0
 788 0000 00B5     		push	{lr}
 789              		.cfi_def_cfa_offset 4
 790              		.cfi_offset 14, -4
 791 0002 83B0     		sub	sp, sp, #12
 792              		.cfi_def_cfa_offset 16
 302:dwm1000.c     **** 	uint8_t preambleCode = config.transmitter.channel.preambleCode;
 793              		.loc 1 302 0
 794 0004 0223     		movs	r3, #2
 795 0006 01AA     		add	r2, sp, #4
 796 0008 1946     		mov	r1, r3
 797 000a 1F20     		movs	r0, #31
 798 000c FFF7FEFF 		bl	DWM_ReadSPI_ext
 799              	.LVL107:
 303:dwm1000.c     **** 	chan[0] &= 0x3F;
 800              		.loc 1 303 0
 801 0010 0D4B     		ldr	r3, .L72
 802 0012 5978     		ldrb	r1, [r3, #1]	@ zero_extendqisi2
 803              	.LVL108:
 304:dwm1000.c     **** 	chan[1] &= 0xF8;
 804              		.loc 1 304 0
ARM GAS  C:\Users\PIERRE~1\AppData\Local\Temp\ccqD7qlI.s 			page 31


 805 0014 9DF80420 		ldrb	r2, [sp, #4]	@ zero_extendqisi2
 806 0018 02F03F02 		and	r2, r2, #63
 305:dwm1000.c     **** 	chan[0] |= preambleCode << 6;
 807              		.loc 1 305 0
 808 001c 9DF80530 		ldrb	r3, [sp, #5]	@ zero_extendqisi2
 809 0020 03F0F803 		and	r3, r3, #248
 306:dwm1000.c     **** 	chan[1] |= preambleCode >> 2;
 810              		.loc 1 306 0
 811 0024 42EA8112 		orr	r2, r2, r1, lsl #6
 812 0028 8DF80420 		strb	r2, [sp, #4]
 307:dwm1000.c     **** 	DWM_WriteSPI_ext(CHAN_CTRL, 2, chan, 2);
 813              		.loc 1 307 0
 814 002c 43EA9103 		orr	r3, r3, r1, lsr #2
 815 0030 8DF80530 		strb	r3, [sp, #5]
 308:dwm1000.c     **** }
 816              		.loc 1 308 0
 817 0034 0223     		movs	r3, #2
 818 0036 01AA     		add	r2, sp, #4
 819 0038 1946     		mov	r1, r3
 820              	.LVL109:
 821 003a 1F20     		movs	r0, #31
 822 003c FFF7FEFF 		bl	DWM_WriteSPI_ext
 823              	.LVL110:
 309:dwm1000.c     **** 
 824              		.loc 1 309 0
 825 0040 03B0     		add	sp, sp, #12
 826              		.cfi_def_cfa_offset 4
 827              		@ sp needed
 828 0042 5DF804FB 		ldr	pc, [sp], #4
 829              	.L73:
 830 0046 00BF     		.align	2
 831              	.L72:
 832 0048 00000000 		.word	.LANCHOR0
 833              		.cfi_endproc
 834              	.LFE72:
 835              		.size	TRANSMITTER_UpdatePreambleCode, .-TRANSMITTER_UpdatePreambleCode
 836              		.section	.text.TRANSMITTER_SetPreambleCode,"ax",%progbits
 837              		.align	2
 838              		.global	TRANSMITTER_SetPreambleCode
 839              		.thumb
 840              		.thumb_func
 841              		.type	TRANSMITTER_SetPreambleCode, %function
 842              	TRANSMITTER_SetPreambleCode:
 843              	.LFB75:
 322:dwm1000.c     **** 	config.transmitter.channel.preambleCode = CHANNEL_ValidPreambleCode(&(config.transmitter.channel),
 844              		.loc 1 322 0
 845              		.cfi_startproc
 846              		@ args = 0, pretend = 0, frame = 0
 847              		@ frame_needed = 0, uses_anonymous_args = 0
 848              	.LVL111:
 849 0000 10B5     		push	{r4, lr}
 850              		.cfi_def_cfa_offset 8
 851              		.cfi_offset 4, -8
 852              		.cfi_offset 14, -4
 323:dwm1000.c     **** 	TRANSMITTER_UpdatePreambleCode();
 853              		.loc 1 323 0
 854 0002 044C     		ldr	r4, .L76
ARM GAS  C:\Users\PIERRE~1\AppData\Local\Temp\ccqD7qlI.s 			page 32


 855 0004 0146     		mov	r1, r0
 856 0006 2046     		mov	r0, r4
 857              	.LVL112:
 858 0008 FFF7FEFF 		bl	CHANNEL_ValidPreambleCode
 859              	.LVL113:
 860 000c 6070     		strb	r0, [r4, #1]
 324:dwm1000.c     **** }
 861              		.loc 1 324 0
 862 000e FFF7FEFF 		bl	TRANSMITTER_UpdatePreambleCode
 863              	.LVL114:
 864 0012 10BD     		pop	{r4, pc}
 865              	.L77:
 866              		.align	2
 867              	.L76:
 868 0014 00000000 		.word	.LANCHOR0
 869              		.cfi_endproc
 870              	.LFE75:
 871              		.size	TRANSMITTER_SetPreambleCode, .-TRANSMITTER_SetPreambleCode
 872              		.section	.text.TRANSMITTER_UpdatePreambleSize,"ax",%progbits
 873              		.align	2
 874              		.thumb
 875              		.thumb_func
 876              		.type	TRANSMITTER_UpdatePreambleSize, %function
 877              	TRANSMITTER_UpdatePreambleSize:
 878              	.LFB73:
 311:dwm1000.c     **** 	DWM_WriteSPI_ext(TX_FCTRL, 2,(uint8_t[]){(config.transmitter.channel.prf |
 879              		.loc 1 311 0
 880              		.cfi_startproc
 881              		@ args = 0, pretend = 0, frame = 8
 882              		@ frame_needed = 0, uses_anonymous_args = 0
 883 0000 00B5     		push	{lr}
 884              		.cfi_def_cfa_offset 4
 885              		.cfi_offset 14, -4
 886 0002 83B0     		sub	sp, sp, #12
 887              		.cfi_def_cfa_offset 16
 312:dwm1000.c     **** 			(config.transmitter.channel.preambleSize << 2))}, 1);
 888              		.loc 1 312 0
 889 0004 074A     		ldr	r2, .L80
 890 0006 1379     		ldrb	r3, [r2, #4]	@ zero_extendqisi2
 313:dwm1000.c     **** }
 891              		.loc 1 313 0
 892 0008 9278     		ldrb	r2, [r2, #2]	@ zero_extendqisi2
 312:dwm1000.c     **** 			(config.transmitter.channel.preambleSize << 2))}, 1);
 893              		.loc 1 312 0
 894 000a 43EA8203 		orr	r3, r3, r2, lsl #2
 895 000e 02AA     		add	r2, sp, #8
 896 0010 02F8043D 		strb	r3, [r2, #-4]!
 897 0014 0123     		movs	r3, #1
 898 0016 0221     		movs	r1, #2
 899 0018 0820     		movs	r0, #8
 900 001a FFF7FEFF 		bl	DWM_WriteSPI_ext
 901              	.LVL115:
 314:dwm1000.c     **** 
 902              		.loc 1 314 0
 903 001e 03B0     		add	sp, sp, #12
 904              		.cfi_def_cfa_offset 4
 905              		@ sp needed
ARM GAS  C:\Users\PIERRE~1\AppData\Local\Temp\ccqD7qlI.s 			page 33


 906 0020 5DF804FB 		ldr	pc, [sp], #4
 907              	.L81:
 908              		.align	2
 909              	.L80:
 910 0024 00000000 		.word	.LANCHOR0
 911              		.cfi_endproc
 912              	.LFE73:
 913              		.size	TRANSMITTER_UpdatePreambleSize, .-TRANSMITTER_UpdatePreambleSize
 914              		.section	.text.TRANSMITTER_SetPreambleSize,"ax",%progbits
 915              		.align	2
 916              		.global	TRANSMITTER_SetPreambleSize
 917              		.thumb
 918              		.thumb_func
 919              		.type	TRANSMITTER_SetPreambleSize, %function
 920              	TRANSMITTER_SetPreambleSize:
 921              	.LFB76:
 327:dwm1000.c     **** 	config.transmitter.channel.preambleSize = CHANNEL_ValidPreambleSize(&(config.transmitter.channel),
 922              		.loc 1 327 0
 923              		.cfi_startproc
 924              		@ args = 0, pretend = 0, frame = 0
 925              		@ frame_needed = 0, uses_anonymous_args = 0
 926              	.LVL116:
 927 0000 10B5     		push	{r4, lr}
 928              		.cfi_def_cfa_offset 8
 929              		.cfi_offset 4, -8
 930              		.cfi_offset 14, -4
 328:dwm1000.c     **** 	TRANSMITTER_UpdatePreambleSize();
 931              		.loc 1 328 0
 932 0002 044C     		ldr	r4, .L84
 933 0004 0146     		mov	r1, r0
 934 0006 2046     		mov	r0, r4
 935              	.LVL117:
 936 0008 FFF7FEFF 		bl	CHANNEL_ValidPreambleSize
 937              	.LVL118:
 938 000c A070     		strb	r0, [r4, #2]
 329:dwm1000.c     **** }
 939              		.loc 1 329 0
 940 000e FFF7FEFF 		bl	TRANSMITTER_UpdatePreambleSize
 941              	.LVL119:
 942 0012 10BD     		pop	{r4, pc}
 943              	.L85:
 944              		.align	2
 945              	.L84:
 946 0014 00000000 		.word	.LANCHOR0
 947              		.cfi_endproc
 948              	.LFE76:
 949              		.size	TRANSMITTER_SetPreambleSize, .-TRANSMITTER_SetPreambleSize
 950              		.section	.text.TRANSMITTER_UpdateTxPower,"ax",%progbits
 951              		.align	2
 952              		.thumb
 953              		.thumb_func
 954              		.type	TRANSMITTER_UpdateTxPower, %function
 955              	TRANSMITTER_UpdateTxPower:
 956              	.LFB69:
 170:dwm1000.c     **** 	uint8_t txPower[4];
 957              		.loc 1 170 0
 958              		.cfi_startproc
ARM GAS  C:\Users\PIERRE~1\AppData\Local\Temp\ccqD7qlI.s 			page 34


 959              		@ args = 0, pretend = 0, frame = 8
 960              		@ frame_needed = 0, uses_anonymous_args = 0
 961 0000 00B5     		push	{lr}
 962              		.cfi_def_cfa_offset 4
 963              		.cfi_offset 14, -4
 964 0002 83B0     		sub	sp, sp, #12
 965              		.cfi_def_cfa_offset 16
 172:dwm1000.c     **** 	case _6800KBPS:
 966              		.loc 1 172 0
 967 0004 5B4B     		ldr	r3, .L120
 968 0006 DB78     		ldrb	r3, [r3, #3]	@ zero_extendqisi2
 969 0008 022B     		cmp	r3, #2
 970 000a 4FD1     		bne	.L118
 174:dwm1000.c     **** 		case _16MHZ:
 971              		.loc 1 174 0
 972 000c 594B     		ldr	r3, .L120
 973 000e 1B79     		ldrb	r3, [r3, #4]	@ zero_extendqisi2
 974 0010 012B     		cmp	r3, #1
 975 0012 02D0     		beq	.L90
 976 0014 022B     		cmp	r3, #2
 977 0016 25D0     		beq	.L91
 978 0018 A0E0     		b	.L89
 979              	.L90:
 176:dwm1000.c     **** 			case _1: case _2:
 980              		.loc 1 176 0
 981 001a 564B     		ldr	r3, .L120
 982 001c 1B78     		ldrb	r3, [r3]	@ zero_extendqisi2
 983 001e 013B     		subs	r3, r3, #1
 984 0020 062B     		cmp	r3, #6
 985 0022 00F29B80 		bhi	.L89
 986 0026 DFE803F0 		tbb	[pc, r3]
 987              	.L93:
 988 002a 04       		.byte	(.L92-.L93)/2
 989 002b 04       		.byte	(.L92-.L93)/2
 990 002c 09       		.byte	(.L94-.L93)/2
 991 002d 0E       		.byte	(.L95-.L93)/2
 992 002e 13       		.byte	(.L96-.L93)/2
 993 002f 99       		.byte	(.L89-.L93)/2
 994 0030 18       		.byte	(.L97-.L93)/2
 995 0031 00       		.p2align 1
 996              	.L92:
 178:dwm1000.c     **** 				break;
 997              		.loc 1 178 0
 998 0032 01A9     		add	r1, sp, #4
 999 0034 5048     		ldr	r0, .L120+4
 1000 0036 FFF7FEFF 		bl	int2Bytes
 1001              	.LVL120:
 179:dwm1000.c     **** 			case _3:
 1002              		.loc 1 179 0
 1003 003a 8FE0     		b	.L89
 1004              	.L94:
 181:dwm1000.c     **** 				break;
 1005              		.loc 1 181 0
 1006 003c 01A9     		add	r1, sp, #4
 1007 003e 4F48     		ldr	r0, .L120+8
 1008 0040 FFF7FEFF 		bl	int2Bytes
 1009              	.LVL121:
ARM GAS  C:\Users\PIERRE~1\AppData\Local\Temp\ccqD7qlI.s 			page 35


 182:dwm1000.c     **** 			case _4:
 1010              		.loc 1 182 0
 1011 0044 8AE0     		b	.L89
 1012              	.L95:
 184:dwm1000.c     **** 				break;
 1013              		.loc 1 184 0
 1014 0046 01A9     		add	r1, sp, #4
 1015 0048 4D48     		ldr	r0, .L120+12
 1016 004a FFF7FEFF 		bl	int2Bytes
 1017              	.LVL122:
 185:dwm1000.c     **** 			case _5:
 1018              		.loc 1 185 0
 1019 004e 85E0     		b	.L89
 1020              	.L96:
 187:dwm1000.c     **** 				break;
 1021              		.loc 1 187 0
 1022 0050 01A9     		add	r1, sp, #4
 1023 0052 4C48     		ldr	r0, .L120+16
 1024 0054 FFF7FEFF 		bl	int2Bytes
 1025              	.LVL123:
 188:dwm1000.c     **** 			case _7:
 1026              		.loc 1 188 0
 1027 0058 80E0     		b	.L89
 1028              	.L97:
 190:dwm1000.c     **** 				break;
 1029              		.loc 1 190 0
 1030 005a 01A9     		add	r1, sp, #4
 1031 005c 4A48     		ldr	r0, .L120+20
 1032 005e FFF7FEFF 		bl	int2Bytes
 1033              	.LVL124:
 191:dwm1000.c     **** 			}
 1034              		.loc 1 191 0
 1035 0062 7BE0     		b	.L89
 1036              	.L91:
 195:dwm1000.c     **** 			case _1: case _2:
 1037              		.loc 1 195 0
 1038 0064 434B     		ldr	r3, .L120
 1039 0066 1B78     		ldrb	r3, [r3]	@ zero_extendqisi2
 1040 0068 013B     		subs	r3, r3, #1
 1041 006a 062B     		cmp	r3, #6
 1042 006c 76D8     		bhi	.L89
 1043 006e DFE803F0 		tbb	[pc, r3]
 1044              	.L99:
 1045 0072 04       		.byte	(.L98-.L99)/2
 1046 0073 04       		.byte	(.L98-.L99)/2
 1047 0074 09       		.byte	(.L100-.L99)/2
 1048 0075 0E       		.byte	(.L101-.L99)/2
 1049 0076 13       		.byte	(.L102-.L99)/2
 1050 0077 75       		.byte	(.L89-.L99)/2
 1051 0078 18       		.byte	(.L103-.L99)/2
 1052 0079 00       		.p2align 1
 1053              	.L98:
 197:dwm1000.c     **** 				break;
 1054              		.loc 1 197 0
 1055 007a 01A9     		add	r1, sp, #4
 1056 007c 4348     		ldr	r0, .L120+24
 1057 007e FFF7FEFF 		bl	int2Bytes
ARM GAS  C:\Users\PIERRE~1\AppData\Local\Temp\ccqD7qlI.s 			page 36


 1058              	.LVL125:
 198:dwm1000.c     **** 			case _3:
 1059              		.loc 1 198 0
 1060 0082 6BE0     		b	.L89
 1061              	.L100:
 200:dwm1000.c     **** 				break;
 1062              		.loc 1 200 0
 1063 0084 01A9     		add	r1, sp, #4
 1064 0086 4248     		ldr	r0, .L120+28
 1065 0088 FFF7FEFF 		bl	int2Bytes
 1066              	.LVL126:
 201:dwm1000.c     **** 			case _4:
 1067              		.loc 1 201 0
 1068 008c 66E0     		b	.L89
 1069              	.L101:
 203:dwm1000.c     **** 				break;
 1070              		.loc 1 203 0
 1071 008e 01A9     		add	r1, sp, #4
 1072 0090 4048     		ldr	r0, .L120+32
 1073 0092 FFF7FEFF 		bl	int2Bytes
 1074              	.LVL127:
 204:dwm1000.c     **** 			case _5:
 1075              		.loc 1 204 0
 1076 0096 61E0     		b	.L89
 1077              	.L102:
 206:dwm1000.c     **** 				break;
 1078              		.loc 1 206 0
 1079 0098 01A9     		add	r1, sp, #4
 1080 009a 3F48     		ldr	r0, .L120+36
 1081 009c FFF7FEFF 		bl	int2Bytes
 1082              	.LVL128:
 207:dwm1000.c     **** 			case _7:
 1083              		.loc 1 207 0
 1084 00a0 5CE0     		b	.L89
 1085              	.L103:
 209:dwm1000.c     **** 				break;
 1086              		.loc 1 209 0
 1087 00a2 01A9     		add	r1, sp, #4
 1088 00a4 3D48     		ldr	r0, .L120+40
 1089 00a6 FFF7FEFF 		bl	int2Bytes
 1090              	.LVL129:
 210:dwm1000.c     **** 			}
 1091              		.loc 1 210 0
 1092 00aa 57E0     		b	.L89
 1093              	.L118:
 216:dwm1000.c     **** 		case _16MHZ:
 1094              		.loc 1 216 0
 1095 00ac 314B     		ldr	r3, .L120
 1096 00ae 1B79     		ldrb	r3, [r3, #4]	@ zero_extendqisi2
 1097 00b0 012B     		cmp	r3, #1
 1098 00b2 02D0     		beq	.L104
 1099 00b4 022B     		cmp	r3, #2
 1100 00b6 29D0     		beq	.L105
 1101 00b8 50E0     		b	.L89
 1102              	.L104:
 218:dwm1000.c     **** 			case _1: case _2:
 1103              		.loc 1 218 0
ARM GAS  C:\Users\PIERRE~1\AppData\Local\Temp\ccqD7qlI.s 			page 37


 1104 00ba 2E4B     		ldr	r3, .L120
 1105 00bc 1B78     		ldrb	r3, [r3]	@ zero_extendqisi2
 1106 00be 013B     		subs	r3, r3, #1
 1107 00c0 062B     		cmp	r3, #6
 1108 00c2 4BD8     		bhi	.L89
 1109 00c4 DFE803F0 		tbb	[pc, r3]
 1110              	.L107:
 1111 00c8 04       		.byte	(.L106-.L107)/2
 1112 00c9 04       		.byte	(.L106-.L107)/2
 1113 00ca 0A       		.byte	(.L108-.L107)/2
 1114 00cb 10       		.byte	(.L109-.L107)/2
 1115 00cc 16       		.byte	(.L110-.L107)/2
 1116 00cd 4A       		.byte	(.L89-.L107)/2
 1117 00ce 1C       		.byte	(.L111-.L107)/2
 1118 00cf 00       		.p2align 1
 1119              	.L106:
 220:dwm1000.c     **** 				break;
 1120              		.loc 1 220 0
 1121 00d0 01A9     		add	r1, sp, #4
 1122 00d2 4FF07530 		mov	r0, #1970632053
 1123 00d6 FFF7FEFF 		bl	int2Bytes
 1124              	.LVL130:
 221:dwm1000.c     **** 			case _3:
 1125              		.loc 1 221 0
 1126 00da 3FE0     		b	.L89
 1127              	.L108:
 223:dwm1000.c     **** 				break;
 1128              		.loc 1 223 0
 1129 00dc 01A9     		add	r1, sp, #4
 1130 00de 4FF06F30 		mov	r0, #1869573999
 1131 00e2 FFF7FEFF 		bl	int2Bytes
 1132              	.LVL131:
 224:dwm1000.c     **** 			case _4:
 1133              		.loc 1 224 0
 1134 00e6 39E0     		b	.L89
 1135              	.L109:
 226:dwm1000.c     **** 				break;
 1136              		.loc 1 226 0
 1137 00e8 01A9     		add	r1, sp, #4
 1138 00ea 4FF05F30 		mov	r0, #1600085855
 1139 00ee FFF7FEFF 		bl	int2Bytes
 1140              	.LVL132:
 227:dwm1000.c     **** 			case _5:
 1141              		.loc 1 227 0
 1142 00f2 33E0     		b	.L89
 1143              	.L110:
 229:dwm1000.c     **** 				break;
 1144              		.loc 1 229 0
 1145 00f4 01A9     		add	r1, sp, #4
 1146 00f6 4FF04830 		mov	r0, #1212696648
 1147 00fa FFF7FEFF 		bl	int2Bytes
 1148              	.LVL133:
 230:dwm1000.c     **** 			case _7:
 1149              		.loc 1 230 0
 1150 00fe 2DE0     		b	.L89
 1151              	.L111:
 232:dwm1000.c     **** 				break;
ARM GAS  C:\Users\PIERRE~1\AppData\Local\Temp\ccqD7qlI.s 			page 38


 1152              		.loc 1 232 0
 1153 0100 01A9     		add	r1, sp, #4
 1154 0102 4FF09230 		mov	r0, #-1835887982
 1155 0106 FFF7FEFF 		bl	int2Bytes
 1156              	.LVL134:
 233:dwm1000.c     **** 			}
 1157              		.loc 1 233 0
 1158 010a 27E0     		b	.L89
 1159              	.L105:
 237:dwm1000.c     **** 			case _1: case _2:
 1160              		.loc 1 237 0
 1161 010c 194B     		ldr	r3, .L120
 1162 010e 1B78     		ldrb	r3, [r3]	@ zero_extendqisi2
 1163 0110 013B     		subs	r3, r3, #1
 1164 0112 062B     		cmp	r3, #6
 1165 0114 22D8     		bhi	.L89
 1166 0116 DFE803F0 		tbb	[pc, r3]
 1167              	.L113:
 1168 011a 04       		.byte	(.L112-.L113)/2
 1169 011b 04       		.byte	(.L112-.L113)/2
 1170 011c 0A       		.byte	(.L114-.L113)/2
 1171 011d 10       		.byte	(.L115-.L113)/2
 1172 011e 16       		.byte	(.L116-.L113)/2
 1173 011f 21       		.byte	(.L89-.L113)/2
 1174 0120 1C       		.byte	(.L117-.L113)/2
 1175 0121 00       		.p2align 1
 1176              	.L112:
 239:dwm1000.c     **** 				break;
 1177              		.loc 1 239 0
 1178 0122 01A9     		add	r1, sp, #4
 1179 0124 4FF06730 		mov	r0, #1734829927
 1180 0128 FFF7FEFF 		bl	int2Bytes
 1181              	.LVL135:
 240:dwm1000.c     **** 			case _3:
 1182              		.loc 1 240 0
 1183 012c 16E0     		b	.L89
 1184              	.L114:
 242:dwm1000.c     **** 				break;
 1185              		.loc 1 242 0
 1186 012e 01A9     		add	r1, sp, #4
 1187 0130 4FF08B30 		mov	r0, #-1953789045
 1188 0134 FFF7FEFF 		bl	int2Bytes
 1189              	.LVL136:
 243:dwm1000.c     **** 			case _4:
 1190              		.loc 1 243 0
 1191 0138 10E0     		b	.L89
 1192              	.L115:
 245:dwm1000.c     **** 				break;
 1193              		.loc 1 245 0
 1194 013a 01A9     		add	r1, sp, #4
 1195 013c 4FF09A30 		mov	r0, #-1701143910
 1196 0140 FFF7FEFF 		bl	int2Bytes
 1197              	.LVL137:
 246:dwm1000.c     **** 			case _5:
 1198              		.loc 1 246 0
 1199 0144 0AE0     		b	.L89
 1200              	.L116:
ARM GAS  C:\Users\PIERRE~1\AppData\Local\Temp\ccqD7qlI.s 			page 39


 248:dwm1000.c     **** 				break;
 1201              		.loc 1 248 0
 1202 0146 01A9     		add	r1, sp, #4
 1203 0148 4FF08530 		mov	r0, #-2054847099
 1204 014c FFF7FEFF 		bl	int2Bytes
 1205              	.LVL138:
 249:dwm1000.c     **** 			case _7:
 1206              		.loc 1 249 0
 1207 0150 04E0     		b	.L89
 1208              	.L117:
 251:dwm1000.c     **** 				break;
 1209              		.loc 1 251 0
 1210 0152 01A9     		add	r1, sp, #4
 1211 0154 4FF0D130 		mov	r0, #-774778415
 1212 0158 FFF7FEFF 		bl	int2Bytes
 1213              	.LVL139:
 1214              	.L89:
 258:dwm1000.c     **** }
 1215              		.loc 1 258 0
 1216 015c 0423     		movs	r3, #4
 1217 015e 0DEB0302 		add	r2, sp, r3
 1218 0162 4FF6FF71 		movw	r1, #65535
 1219 0166 1E20     		movs	r0, #30
 1220 0168 FFF7FEFF 		bl	DWM_WriteSPI_ext
 1221              	.LVL140:
 259:dwm1000.c     **** 
 1222              		.loc 1 259 0
 1223 016c 03B0     		add	sp, sp, #12
 1224              		.cfi_def_cfa_offset 4
 1225              		@ sp needed
 1226 016e 5DF804FB 		ldr	pc, [sp], #4
 1227              	.L121:
 1228 0172 00BF     		.align	2
 1229              	.L120:
 1230 0174 00000000 		.word	.LANCHOR0
 1231 0178 75553515 		.word	355816821
 1232 017c 6F4F2F0F 		.word	254758767
 1233 0180 5F3F1F1F 		.word	522141535
 1234 0184 4828080E 		.word	235415624
 1235 0188 92725232 		.word	844264082
 1236 018c 67472707 		.word	120014695
 1237 0190 8B6B4B2B 		.word	726363019
 1238 0194 9A7A5A3A 		.word	979008154
 1239 0198 85654525 		.word	625304965
 1240 019c D1B17151 		.word	1366405585
 1241              		.cfi_endproc
 1242              	.LFE69:
 1243              		.size	TRANSMITTER_UpdateTxPower, .-TRANSMITTER_UpdateTxPower
 1244              		.section	.text.TRANSMITTER_UpdateChannel,"ax",%progbits
 1245              		.align	2
 1246              		.thumb
 1247              		.thumb_func
 1248              		.type	TRANSMITTER_UpdateChannel, %function
 1249              	TRANSMITTER_UpdateChannel:
 1250              	.LFB70:
 261:dwm1000.c     **** 	uint8_t tc[1];
 1251              		.loc 1 261 0
ARM GAS  C:\Users\PIERRE~1\AppData\Local\Temp\ccqD7qlI.s 			page 40


 1252              		.cfi_startproc
 1253              		@ args = 0, pretend = 0, frame = 8
 1254              		@ frame_needed = 0, uses_anonymous_args = 0
 1255 0000 00B5     		push	{lr}
 1256              		.cfi_def_cfa_offset 4
 1257              		.cfi_offset 14, -4
 1258 0002 83B0     		sub	sp, sp, #12
 1259              		.cfi_def_cfa_offset 16
 264:dwm1000.c     **** 		case _1:
 1260              		.loc 1 264 0
 1261 0004 254B     		ldr	r3, .L132
 1262 0006 1B78     		ldrb	r3, [r3]	@ zero_extendqisi2
 1263 0008 013B     		subs	r3, r3, #1
 1264 000a 062B     		cmp	r3, #6
 1265 000c 35D8     		bhi	.L123
 1266 000e DFE803F0 		tbb	[pc, r3]
 1267              	.L125:
 1268 0012 04       		.byte	(.L124-.L125)/2
 1269 0013 0D       		.byte	(.L126-.L125)/2
 1270 0014 15       		.byte	(.L127-.L125)/2
 1271 0015 1D       		.byte	(.L128-.L125)/2
 1272 0016 25       		.byte	(.L129-.L125)/2
 1273 0017 34       		.byte	(.L123-.L125)/2
 1274 0018 2D       		.byte	(.L130-.L125)/2
 1275 0019 00       		.p2align 1
 1276              	.L124:
 266:dwm1000.c     **** 			tc[0] =  0xC9U;
 1277              		.loc 1 266 0
 1278 001a 6946     		mov	r1, sp
 1279 001c 45F64040 		movw	r0, #23616
 1280 0020 FFF7FEFF 		bl	int2Bytes
 1281              	.LVL141:
 267:dwm1000.c     **** 			break;
 1282              		.loc 1 267 0
 1283 0024 C923     		movs	r3, #201
 1284 0026 8DF80430 		strb	r3, [sp, #4]
 268:dwm1000.c     **** 		case _2:
 1285              		.loc 1 268 0
 1286 002a 26E0     		b	.L123
 1287              	.L126:
 270:dwm1000.c     **** 			tc[0] =  0xC2U;
 1288              		.loc 1 270 0
 1289 002c 6946     		mov	r1, sp
 1290 002e 1C48     		ldr	r0, .L132+4
 1291 0030 FFF7FEFF 		bl	int2Bytes
 1292              	.LVL142:
 271:dwm1000.c     **** 			break;
 1293              		.loc 1 271 0
 1294 0034 C223     		movs	r3, #194
 1295 0036 8DF80430 		strb	r3, [sp, #4]
 272:dwm1000.c     **** 		case _3:
 1296              		.loc 1 272 0
 1297 003a 1EE0     		b	.L123
 1298              	.L127:
 274:dwm1000.c     **** 			tc[0] =  0xC5U;
 1299              		.loc 1 274 0
 1300 003c 6946     		mov	r1, sp
ARM GAS  C:\Users\PIERRE~1\AppData\Local\Temp\ccqD7qlI.s 			page 41


 1301 003e 1948     		ldr	r0, .L132+8
 1302 0040 FFF7FEFF 		bl	int2Bytes
 1303              	.LVL143:
 275:dwm1000.c     **** 			break;
 1304              		.loc 1 275 0
 1305 0044 C523     		movs	r3, #197
 1306 0046 8DF80430 		strb	r3, [sp, #4]
 276:dwm1000.c     **** 		case _4:
 1307              		.loc 1 276 0
 1308 004a 16E0     		b	.L123
 1309              	.L128:
 278:dwm1000.c     **** 			tc[0] =  0x95U;
 1310              		.loc 1 278 0
 1311 004c 6946     		mov	r1, sp
 1312 004e 1648     		ldr	r0, .L132+12
 1313 0050 FFF7FEFF 		bl	int2Bytes
 1314              	.LVL144:
 279:dwm1000.c     **** 			break;
 1315              		.loc 1 279 0
 1316 0054 9523     		movs	r3, #149
 1317 0056 8DF80430 		strb	r3, [sp, #4]
 280:dwm1000.c     **** 		case _5:
 1318              		.loc 1 280 0
 1319 005a 0EE0     		b	.L123
 1320              	.L129:
 282:dwm1000.c     **** 			tc[0] =  0xC0U;
 1321              		.loc 1 282 0
 1322 005c 6946     		mov	r1, sp
 1323 005e 1348     		ldr	r0, .L132+16
 1324 0060 FFF7FEFF 		bl	int2Bytes
 1325              	.LVL145:
 283:dwm1000.c     **** 			break;
 1326              		.loc 1 283 0
 1327 0064 C023     		movs	r3, #192
 1328 0066 8DF80430 		strb	r3, [sp, #4]
 284:dwm1000.c     **** 		case _7:
 1329              		.loc 1 284 0
 1330 006a 06E0     		b	.L123
 1331              	.L130:
 286:dwm1000.c     **** 			tc[0] =  0x93U;
 1332              		.loc 1 286 0
 1333 006c 6946     		mov	r1, sp
 1334 006e 1048     		ldr	r0, .L132+20
 1335 0070 FFF7FEFF 		bl	int2Bytes
 1336              	.LVL146:
 287:dwm1000.c     **** 			break;
 1337              		.loc 1 287 0
 1338 0074 9323     		movs	r3, #147
 1339 0076 8DF80430 		strb	r3, [sp, #4]
 1340              	.L123:
 290:dwm1000.c     **** 	DWM_WriteSPI_ext(TX_CAL,  0x0B, tc,  1);
 1341              		.loc 1 290 0
 1342 007a 0323     		movs	r3, #3
 1343 007c 6A46     		mov	r2, sp
 1344 007e 0C21     		movs	r1, #12
 1345 0080 2820     		movs	r0, #40
 1346 0082 FFF7FEFF 		bl	DWM_WriteSPI_ext
ARM GAS  C:\Users\PIERRE~1\AppData\Local\Temp\ccqD7qlI.s 			page 42


 1347              	.LVL147:
 291:dwm1000.c     **** 	TRANSMITTER_UpdateTxPower();
 1348              		.loc 1 291 0
 1349 0086 0123     		movs	r3, #1
 1350 0088 01AA     		add	r2, sp, #4
 1351 008a 0B21     		movs	r1, #11
 1352 008c 2A20     		movs	r0, #42
 1353 008e FFF7FEFF 		bl	DWM_WriteSPI_ext
 1354              	.LVL148:
 292:dwm1000.c     **** }
 1355              		.loc 1 292 0
 1356 0092 FFF7FEFF 		bl	TRANSMITTER_UpdateTxPower
 1357              	.LVL149:
 293:dwm1000.c     **** 
 1358              		.loc 1 293 0
 1359 0096 03B0     		add	sp, sp, #12
 1360              		.cfi_def_cfa_offset 4
 1361              		@ sp needed
 1362 0098 5DF804FB 		ldr	pc, [sp], #4
 1363              	.L133:
 1364              		.align	2
 1365              	.L132:
 1366 009c 00000000 		.word	.LANCHOR0
 1367 00a0 A05C0400 		.word	285856
 1368 00a4 C06C0800 		.word	552128
 1369 00a8 805C0400 		.word	285824
 1370 00ac E03F1E00 		.word	1982432
 1371 00b0 E07D1E00 		.word	1998304
 1372              		.cfi_endproc
 1373              	.LFE70:
 1374              		.size	TRANSMITTER_UpdateChannel, .-TRANSMITTER_UpdateChannel
 1375              		.section	.text.TRANSMITTER_SetChannel,"ax",%progbits
 1376              		.align	2
 1377              		.global	TRANSMITTER_SetChannel
 1378              		.thumb
 1379              		.thumb_func
 1380              		.type	TRANSMITTER_SetChannel, %function
 1381              	TRANSMITTER_SetChannel:
 1382              	.LFB77:
 332:dwm1000.c     **** 	config.transmitter.channel.channel = channel;
 1383              		.loc 1 332 0
 1384              		.cfi_startproc
 1385              		@ args = 0, pretend = 0, frame = 0
 1386              		@ frame_needed = 0, uses_anonymous_args = 0
 1387              	.LVL150:
 1388 0000 10B5     		push	{r4, lr}
 1389              		.cfi_def_cfa_offset 8
 1390              		.cfi_offset 4, -8
 1391              		.cfi_offset 14, -4
 333:dwm1000.c     **** 	if (!CHANNEL_IsValidPreambleCode(&(config.transmitter.channel), config.transmitter.channel.preambl
 1392              		.loc 1 333 0
 1393 0002 074B     		ldr	r3, .L137
 1394 0004 1870     		strb	r0, [r3]
 334:dwm1000.c     **** 		TRANSMITTER_SetPreambleCode(config.transmitter.channel.preambleCode);
 1395              		.loc 1 334 0
 1396 0006 5C78     		ldrb	r4, [r3, #1]	@ zero_extendqisi2
 1397 0008 2146     		mov	r1, r4
ARM GAS  C:\Users\PIERRE~1\AppData\Local\Temp\ccqD7qlI.s 			page 43


 1398 000a 1846     		mov	r0, r3
 1399              	.LVL151:
 1400 000c FFF7FEFF 		bl	CHANNEL_IsValidPreambleCode
 1401              	.LVL152:
 1402 0010 10B9     		cbnz	r0, .L135
 335:dwm1000.c     **** 	}
 1403              		.loc 1 335 0
 1404 0012 2046     		mov	r0, r4
 1405 0014 FFF7FEFF 		bl	TRANSMITTER_SetPreambleCode
 1406              	.LVL153:
 1407              	.L135:
 337:dwm1000.c     **** }
 1408              		.loc 1 337 0
 1409 0018 FFF7FEFF 		bl	TRANSMITTER_UpdateChannel
 1410              	.LVL154:
 1411 001c 10BD     		pop	{r4, pc}
 1412              	.L138:
 1413 001e 00BF     		.align	2
 1414              	.L137:
 1415 0020 00000000 		.word	.LANCHOR0
 1416              		.cfi_endproc
 1417              	.LFE77:
 1418              		.size	TRANSMITTER_SetChannel, .-TRANSMITTER_SetChannel
 1419              		.section	.text.TRANSMITTER_UpdateBitrate,"ax",%progbits
 1420              		.align	2
 1421              		.thumb
 1422              		.thumb_func
 1423              		.type	TRANSMITTER_UpdateBitrate, %function
 1424              	TRANSMITTER_UpdateBitrate:
 1425              	.LFB71:
 295:dwm1000.c     **** 	DWM_WriteSPI_ext(TX_FCTRL,  1, (uint8_t[]){((config.transmitter.channel.bitRate << 5) | (1<<7))}, 
 1426              		.loc 1 295 0
 1427              		.cfi_startproc
 1428              		@ args = 0, pretend = 0, frame = 8
 1429              		@ frame_needed = 0, uses_anonymous_args = 0
 1430 0000 00B5     		push	{lr}
 1431              		.cfi_def_cfa_offset 4
 1432              		.cfi_offset 14, -4
 1433 0002 83B0     		sub	sp, sp, #12
 1434              		.cfi_def_cfa_offset 16
 296:dwm1000.c     **** 	TRANSMITTER_UpdateTxPower();
 1435              		.loc 1 296 0
 1436 0004 084B     		ldr	r3, .L141
 1437 0006 DB78     		ldrb	r3, [r3, #3]	@ zero_extendqisi2
 1438 0008 5B01     		lsls	r3, r3, #5
 1439 000a 63F07F03 		orn	r3, r3, #127
 1440 000e 02AA     		add	r2, sp, #8
 1441 0010 02F8043D 		strb	r3, [r2, #-4]!
 1442 0014 0123     		movs	r3, #1
 1443 0016 1946     		mov	r1, r3
 1444 0018 0820     		movs	r0, #8
 1445 001a FFF7FEFF 		bl	DWM_WriteSPI_ext
 1446              	.LVL155:
 297:dwm1000.c     **** }
 1447              		.loc 1 297 0
 1448 001e FFF7FEFF 		bl	TRANSMITTER_UpdateTxPower
 1449              	.LVL156:
ARM GAS  C:\Users\PIERRE~1\AppData\Local\Temp\ccqD7qlI.s 			page 44


 298:dwm1000.c     **** 
 1450              		.loc 1 298 0
 1451 0022 03B0     		add	sp, sp, #12
 1452              		.cfi_def_cfa_offset 4
 1453              		@ sp needed
 1454 0024 5DF804FB 		ldr	pc, [sp], #4
 1455              	.L142:
 1456              		.align	2
 1457              	.L141:
 1458 0028 00000000 		.word	.LANCHOR0
 1459              		.cfi_endproc
 1460              	.LFE71:
 1461              		.size	TRANSMITTER_UpdateBitrate, .-TRANSMITTER_UpdateBitrate
 1462              		.section	.text.TRANSMITTER_SetBitRate,"ax",%progbits
 1463              		.align	2
 1464              		.global	TRANSMITTER_SetBitRate
 1465              		.thumb
 1466              		.thumb_func
 1467              		.type	TRANSMITTER_SetBitRate, %function
 1468              	TRANSMITTER_SetBitRate:
 1469              	.LFB78:
 340:dwm1000.c     **** 	config.transmitter.channel.bitRate = bitRate;
 1470              		.loc 1 340 0
 1471              		.cfi_startproc
 1472              		@ args = 0, pretend = 0, frame = 0
 1473              		@ frame_needed = 0, uses_anonymous_args = 0
 1474              	.LVL157:
 1475 0000 10B5     		push	{r4, lr}
 1476              		.cfi_def_cfa_offset 8
 1477              		.cfi_offset 4, -8
 1478              		.cfi_offset 14, -4
 341:dwm1000.c     **** 	if (!CHANNEL_IsValidPreambleSize(&(config.transmitter.channel), config.transmitter.channel.preambl
 1479              		.loc 1 341 0
 1480 0002 074B     		ldr	r3, .L146
 1481 0004 D870     		strb	r0, [r3, #3]
 342:dwm1000.c     **** 		TRANSMITTER_SetPreambleSize(config.transmitter.channel.preambleSize);
 1482              		.loc 1 342 0
 1483 0006 9C78     		ldrb	r4, [r3, #2]	@ zero_extendqisi2
 1484 0008 2146     		mov	r1, r4
 1485 000a 1846     		mov	r0, r3
 1486              	.LVL158:
 1487 000c FFF7FEFF 		bl	CHANNEL_IsValidPreambleSize
 1488              	.LVL159:
 1489 0010 10B9     		cbnz	r0, .L144
 343:dwm1000.c     **** 	}
 1490              		.loc 1 343 0
 1491 0012 2046     		mov	r0, r4
 1492 0014 FFF7FEFF 		bl	TRANSMITTER_SetPreambleSize
 1493              	.LVL160:
 1494              	.L144:
 345:dwm1000.c     **** }
 1495              		.loc 1 345 0
 1496 0018 FFF7FEFF 		bl	TRANSMITTER_UpdateBitrate
 1497              	.LVL161:
 1498 001c 10BD     		pop	{r4, pc}
 1499              	.L147:
 1500 001e 00BF     		.align	2
ARM GAS  C:\Users\PIERRE~1\AppData\Local\Temp\ccqD7qlI.s 			page 45


 1501              	.L146:
 1502 0020 00000000 		.word	.LANCHOR0
 1503              		.cfi_endproc
 1504              	.LFE78:
 1505              		.size	TRANSMITTER_SetBitRate, .-TRANSMITTER_SetBitRate
 1506              		.section	.text.TRANSMITTER_UpdatePrf,"ax",%progbits
 1507              		.align	2
 1508              		.thumb
 1509              		.thumb_func
 1510              		.type	TRANSMITTER_UpdatePrf, %function
 1511              	TRANSMITTER_UpdatePrf:
 1512              	.LFB74:
 316:dwm1000.c     **** 	DWM_WriteSPI_ext(TX_FCTRL, 2, (uint8_t[]){(config.transmitter.channel.prf |
 1513              		.loc 1 316 0
 1514              		.cfi_startproc
 1515              		@ args = 0, pretend = 0, frame = 8
 1516              		@ frame_needed = 0, uses_anonymous_args = 0
 1517 0000 00B5     		push	{lr}
 1518              		.cfi_def_cfa_offset 4
 1519              		.cfi_offset 14, -4
 1520 0002 83B0     		sub	sp, sp, #12
 1521              		.cfi_def_cfa_offset 16
 317:dwm1000.c     **** 			(config.transmitter.channel.preambleSize << 2))}, 1);
 1522              		.loc 1 317 0
 1523 0004 084A     		ldr	r2, .L150
 1524 0006 1379     		ldrb	r3, [r2, #4]	@ zero_extendqisi2
 318:dwm1000.c     **** 	TRANSMITTER_UpdateTxPower();
 1525              		.loc 1 318 0
 1526 0008 9278     		ldrb	r2, [r2, #2]	@ zero_extendqisi2
 317:dwm1000.c     **** 			(config.transmitter.channel.preambleSize << 2))}, 1);
 1527              		.loc 1 317 0
 1528 000a 43EA8203 		orr	r3, r3, r2, lsl #2
 1529 000e 02AA     		add	r2, sp, #8
 1530 0010 02F8043D 		strb	r3, [r2, #-4]!
 1531 0014 0123     		movs	r3, #1
 1532 0016 0221     		movs	r1, #2
 1533 0018 0820     		movs	r0, #8
 1534 001a FFF7FEFF 		bl	DWM_WriteSPI_ext
 1535              	.LVL162:
 319:dwm1000.c     **** }
 1536              		.loc 1 319 0
 1537 001e FFF7FEFF 		bl	TRANSMITTER_UpdateTxPower
 1538              	.LVL163:
 320:dwm1000.c     **** 
 1539              		.loc 1 320 0
 1540 0022 03B0     		add	sp, sp, #12
 1541              		.cfi_def_cfa_offset 4
 1542              		@ sp needed
 1543 0024 5DF804FB 		ldr	pc, [sp], #4
 1544              	.L151:
 1545              		.align	2
 1546              	.L150:
 1547 0028 00000000 		.word	.LANCHOR0
 1548              		.cfi_endproc
 1549              	.LFE74:
 1550              		.size	TRANSMITTER_UpdatePrf, .-TRANSMITTER_UpdatePrf
 1551              		.section	.text.TRANSMITTER_SetPrf,"ax",%progbits
ARM GAS  C:\Users\PIERRE~1\AppData\Local\Temp\ccqD7qlI.s 			page 46


 1552              		.align	2
 1553              		.global	TRANSMITTER_SetPrf
 1554              		.thumb
 1555              		.thumb_func
 1556              		.type	TRANSMITTER_SetPrf, %function
 1557              	TRANSMITTER_SetPrf:
 1558              	.LFB79:
 348:dwm1000.c     **** 	config.transmitter.channel.prf = prf;
 1559              		.loc 1 348 0
 1560              		.cfi_startproc
 1561              		@ args = 0, pretend = 0, frame = 0
 1562              		@ frame_needed = 0, uses_anonymous_args = 0
 1563              	.LVL164:
 1564 0000 10B5     		push	{r4, lr}
 1565              		.cfi_def_cfa_offset 8
 1566              		.cfi_offset 4, -8
 1567              		.cfi_offset 14, -4
 349:dwm1000.c     **** 	if (!CHANNEL_IsValidPreambleCode(&(config.transmitter.channel), config.transmitter.channel.preambl
 1568              		.loc 1 349 0
 1569 0002 074B     		ldr	r3, .L155
 1570 0004 1871     		strb	r0, [r3, #4]
 350:dwm1000.c     **** 		TRANSMITTER_SetPreambleCode(config.transmitter.channel.preambleCode);
 1571              		.loc 1 350 0
 1572 0006 5C78     		ldrb	r4, [r3, #1]	@ zero_extendqisi2
 1573 0008 2146     		mov	r1, r4
 1574 000a 1846     		mov	r0, r3
 1575              	.LVL165:
 1576 000c FFF7FEFF 		bl	CHANNEL_IsValidPreambleCode
 1577              	.LVL166:
 1578 0010 10B9     		cbnz	r0, .L153
 351:dwm1000.c     **** 	}
 1579              		.loc 1 351 0
 1580 0012 2046     		mov	r0, r4
 1581 0014 FFF7FEFF 		bl	TRANSMITTER_SetPreambleCode
 1582              	.LVL167:
 1583              	.L153:
 353:dwm1000.c     **** }
 1584              		.loc 1 353 0
 1585 0018 FFF7FEFF 		bl	TRANSMITTER_UpdatePrf
 1586              	.LVL168:
 1587 001c 10BD     		pop	{r4, pc}
 1588              	.L156:
 1589 001e 00BF     		.align	2
 1590              	.L155:
 1591 0020 00000000 		.word	.LANCHOR0
 1592              		.cfi_endproc
 1593              	.LFE79:
 1594              		.size	TRANSMITTER_SetPrf, .-TRANSMITTER_SetPrf
 1595              		.section	.text.TRANSMITTER_Init,"ax",%progbits
 1596              		.align	2
 1597              		.thumb
 1598              		.thumb_func
 1599              		.type	TRANSMITTER_Init, %function
 1600              	TRANSMITTER_Init:
 1601              	.LFB80:
 356:dwm1000.c     **** 	CHANNEL_Init(&(config.transmitter.channel));
 1602              		.loc 1 356 0
ARM GAS  C:\Users\PIERRE~1\AppData\Local\Temp\ccqD7qlI.s 			page 47


 1603              		.cfi_startproc
 1604              		@ args = 0, pretend = 0, frame = 0
 1605              		@ frame_needed = 0, uses_anonymous_args = 0
 1606 0000 08B5     		push	{r3, lr}
 1607              		.cfi_def_cfa_offset 8
 1608              		.cfi_offset 3, -8
 1609              		.cfi_offset 14, -4
 357:dwm1000.c     **** 	TRANSMITTER_UpdateChannel();
 1610              		.loc 1 357 0
 1611 0002 0748     		ldr	r0, .L159
 1612 0004 FFF7FEFF 		bl	CHANNEL_Init
 1613              	.LVL169:
 358:dwm1000.c     **** 	TRANSMITTER_UpdateBitrate();
 1614              		.loc 1 358 0
 1615 0008 FFF7FEFF 		bl	TRANSMITTER_UpdateChannel
 1616              	.LVL170:
 359:dwm1000.c     **** 	TRANSMITTER_UpdatePrf();
 1617              		.loc 1 359 0
 1618 000c FFF7FEFF 		bl	TRANSMITTER_UpdateBitrate
 1619              	.LVL171:
 360:dwm1000.c     **** 	TRANSMITTER_UpdatePreambleCode();
 1620              		.loc 1 360 0
 1621 0010 FFF7FEFF 		bl	TRANSMITTER_UpdatePrf
 1622              	.LVL172:
 361:dwm1000.c     **** 	TRANSMITTER_UpdatePreambleSize();
 1623              		.loc 1 361 0
 1624 0014 FFF7FEFF 		bl	TRANSMITTER_UpdatePreambleCode
 1625              	.LVL173:
 362:dwm1000.c     **** }
 1626              		.loc 1 362 0
 1627 0018 FFF7FEFF 		bl	TRANSMITTER_UpdatePreambleSize
 1628              	.LVL174:
 1629 001c 08BD     		pop	{r3, pc}
 1630              	.L160:
 1631 001e 00BF     		.align	2
 1632              	.L159:
 1633 0020 00000000 		.word	.LANCHOR0
 1634              		.cfi_endproc
 1635              	.LFE80:
 1636              		.size	TRANSMITTER_Init, .-TRANSMITTER_Init
 1637              		.section	.text.RECEIVER_UpdatePreambleCode,"ax",%progbits
 1638              		.align	2
 1639              		.thumb
 1640              		.thumb_func
 1641              		.type	RECEIVER_UpdatePreambleCode, %function
 1642              	RECEIVER_UpdatePreambleCode:
 1643              	.LFB86:
 493:dwm1000.c     **** 	uint8_t chan[1];
 1644              		.loc 1 493 0
 1645              		.cfi_startproc
 1646              		@ args = 0, pretend = 0, frame = 8
 1647              		@ frame_needed = 0, uses_anonymous_args = 0
 1648 0000 00B5     		push	{lr}
 1649              		.cfi_def_cfa_offset 4
 1650              		.cfi_offset 14, -4
 1651 0002 83B0     		sub	sp, sp, #12
 1652              		.cfi_def_cfa_offset 16
ARM GAS  C:\Users\PIERRE~1\AppData\Local\Temp\ccqD7qlI.s 			page 48


 495:dwm1000.c     **** 	uint8_t preambleCode = config.receiver.channel.preambleCode;
 1653              		.loc 1 495 0
 1654 0004 0123     		movs	r3, #1
 1655 0006 01AA     		add	r2, sp, #4
 1656 0008 0321     		movs	r1, #3
 1657 000a 1F20     		movs	r0, #31
 1658 000c FFF7FEFF 		bl	DWM_ReadSPI_ext
 1659              	.LVL175:
 496:dwm1000.c     **** 	chan[0] &= 0x07;
 1660              		.loc 1 496 0
 1661 0010 094B     		ldr	r3, .L163
 1662 0012 DA79     		ldrb	r2, [r3, #7]	@ zero_extendqisi2
 1663              	.LVL176:
 497:dwm1000.c     **** 	chan[0] |= preambleCode << 3;
 1664              		.loc 1 497 0
 1665 0014 9DF80430 		ldrb	r3, [sp, #4]	@ zero_extendqisi2
 1666 0018 03F00703 		and	r3, r3, #7
 498:dwm1000.c     **** 	DWM_WriteSPI_ext(CHAN_CTRL, 3, chan, 1);
 1667              		.loc 1 498 0
 1668 001c 43EAC203 		orr	r3, r3, r2, lsl #3
 1669 0020 8DF80430 		strb	r3, [sp, #4]
 499:dwm1000.c     **** }
 1670              		.loc 1 499 0
 1671 0024 0123     		movs	r3, #1
 1672 0026 01AA     		add	r2, sp, #4
 1673              	.LVL177:
 1674 0028 0321     		movs	r1, #3
 1675 002a 1F20     		movs	r0, #31
 1676 002c FFF7FEFF 		bl	DWM_WriteSPI_ext
 1677              	.LVL178:
 500:dwm1000.c     **** 
 1678              		.loc 1 500 0
 1679 0030 03B0     		add	sp, sp, #12
 1680              		.cfi_def_cfa_offset 4
 1681              		@ sp needed
 1682 0032 5DF804FB 		ldr	pc, [sp], #4
 1683              	.L164:
 1684 0036 00BF     		.align	2
 1685              	.L163:
 1686 0038 00000000 		.word	.LANCHOR0
 1687              		.cfi_endproc
 1688              	.LFE86:
 1689              		.size	RECEIVER_UpdatePreambleCode, .-RECEIVER_UpdatePreambleCode
 1690              		.section	.text.RECEIVER_SetPreambleCode,"ax",%progbits
 1691              		.align	2
 1692              		.global	RECEIVER_SetPreambleCode
 1693              		.thumb
 1694              		.thumb_func
 1695              		.type	RECEIVER_SetPreambleCode, %function
 1696              	RECEIVER_SetPreambleCode:
 1697              	.LFB89:
 552:dwm1000.c     **** 	config.receiver.channel.preambleCode = CHANNEL_ValidPreambleCode(&(config.receiver.channel), pream
 1698              		.loc 1 552 0
 1699              		.cfi_startproc
 1700              		@ args = 0, pretend = 0, frame = 0
 1701              		@ frame_needed = 0, uses_anonymous_args = 0
 1702              	.LVL179:
ARM GAS  C:\Users\PIERRE~1\AppData\Local\Temp\ccqD7qlI.s 			page 49


 1703 0000 10B5     		push	{r4, lr}
 1704              		.cfi_def_cfa_offset 8
 1705              		.cfi_offset 4, -8
 1706              		.cfi_offset 14, -4
 553:dwm1000.c     **** 	RECEIVER_UpdatePreambleCode();
 1707              		.loc 1 553 0
 1708 0002 044C     		ldr	r4, .L167
 1709 0004 0146     		mov	r1, r0
 1710 0006 A01D     		adds	r0, r4, #6
 1711              	.LVL180:
 1712 0008 FFF7FEFF 		bl	CHANNEL_ValidPreambleCode
 1713              	.LVL181:
 1714 000c E071     		strb	r0, [r4, #7]
 554:dwm1000.c     **** }
 1715              		.loc 1 554 0
 1716 000e FFF7FEFF 		bl	RECEIVER_UpdatePreambleCode
 1717              	.LVL182:
 1718 0012 10BD     		pop	{r4, pc}
 1719              	.L168:
 1720              		.align	2
 1721              	.L167:
 1722 0014 00000000 		.word	.LANCHOR0
 1723              		.cfi_endproc
 1724              	.LFE89:
 1725              		.size	RECEIVER_SetPreambleCode, .-RECEIVER_SetPreambleCode
 1726              		.section	.text.RECEIVER_UpdatePacSize,"ax",%progbits
 1727              		.align	2
 1728              		.thumb
 1729              		.thumb_func
 1730              		.type	RECEIVER_UpdatePacSize, %function
 1731              	RECEIVER_UpdatePacSize:
 1732              	.LFB82:
 400:dwm1000.c     **** 	uint8_t drxTune2[4];
 1733              		.loc 1 400 0
 1734              		.cfi_startproc
 1735              		@ args = 0, pretend = 0, frame = 8
 1736              		@ frame_needed = 0, uses_anonymous_args = 0
 1737 0000 00B5     		push	{lr}
 1738              		.cfi_def_cfa_offset 4
 1739              		.cfi_offset 14, -4
 1740 0002 83B0     		sub	sp, sp, #12
 1741              		.cfi_def_cfa_offset 16
 402:dwm1000.c     **** 	case _16MHZ:
 1742              		.loc 1 402 0
 1743 0004 354B     		ldr	r3, .L184
 1744 0006 9B7A     		ldrb	r3, [r3, #10]	@ zero_extendqisi2
 1745 0008 012B     		cmp	r3, #1
 1746 000a 02D0     		beq	.L171
 1747 000c 022B     		cmp	r3, #2
 1748 000e 2ED0     		beq	.L172
 1749 0010 5AE0     		b	.L170
 1750              	.L171:
 404:dwm1000.c     **** 		case _64: case _128:
 1751              		.loc 1 404 0
 1752 0012 324B     		ldr	r3, .L184
 1753 0014 1B7A     		ldrb	r3, [r3, #8]	@ zero_extendqisi2
 1754 0016 013B     		subs	r3, r3, #1
ARM GAS  C:\Users\PIERRE~1\AppData\Local\Temp\ccqD7qlI.s 			page 50


 1755 0018 0C2B     		cmp	r3, #12
 1756 001a 55D8     		bhi	.L170
 1757 001c DFE803F0 		tbb	[pc, r3]
 1758              	.L174:
 1759 0020 07       		.byte	(.L173-.L174)/2
 1760 0021 17       		.byte	(.L175-.L174)/2
 1761 0022 1F       		.byte	(.L176-.L174)/2
 1762 0023 54       		.byte	(.L170-.L174)/2
 1763 0024 07       		.byte	(.L173-.L174)/2
 1764 0025 1F       		.byte	(.L176-.L174)/2
 1765 0026 54       		.byte	(.L170-.L174)/2
 1766 0027 54       		.byte	(.L170-.L174)/2
 1767 0028 0F       		.byte	(.L177-.L174)/2
 1768 0029 1F       		.byte	(.L176-.L174)/2
 1769 002a 54       		.byte	(.L170-.L174)/2
 1770 002b 54       		.byte	(.L170-.L174)/2
 1771 002c 0F       		.byte	(.L177-.L174)/2
 1772 002d 00       		.p2align 1
 1773              	.L173:
 406:dwm1000.c     **** 			config.receiver.pac = 8;
 1774              		.loc 1 406 0
 1775 002e 01A9     		add	r1, sp, #4
 1776 0030 2B48     		ldr	r0, .L184+4
 1777 0032 FFF7FEFF 		bl	int2Bytes
 1778              	.LVL183:
 407:dwm1000.c     **** 			break;
 1779              		.loc 1 407 0
 1780 0036 0822     		movs	r2, #8
 1781 0038 284B     		ldr	r3, .L184
 1782 003a DA81     		strh	r2, [r3, #14]	@ movhi
 408:dwm1000.c     **** 		case _256: case _512:
 1783              		.loc 1 408 0
 1784 003c 44E0     		b	.L170
 1785              	.L177:
 410:dwm1000.c     **** 			config.receiver.pac = 16;
 1786              		.loc 1 410 0
 1787 003e 01A9     		add	r1, sp, #4
 1788 0040 2848     		ldr	r0, .L184+8
 1789 0042 FFF7FEFF 		bl	int2Bytes
 1790              	.LVL184:
 411:dwm1000.c     **** 			break;
 1791              		.loc 1 411 0
 1792 0046 1022     		movs	r2, #16
 1793 0048 244B     		ldr	r3, .L184
 1794 004a DA81     		strh	r2, [r3, #14]	@ movhi
 412:dwm1000.c     **** 		case _1024:
 1795              		.loc 1 412 0
 1796 004c 3CE0     		b	.L170
 1797              	.L175:
 414:dwm1000.c     **** 			config.receiver.pac = 32;
 1798              		.loc 1 414 0
 1799 004e 01A9     		add	r1, sp, #4
 1800 0050 2548     		ldr	r0, .L184+12
 1801 0052 FFF7FEFF 		bl	int2Bytes
 1802              	.LVL185:
 415:dwm1000.c     **** 			break;
 1803              		.loc 1 415 0
ARM GAS  C:\Users\PIERRE~1\AppData\Local\Temp\ccqD7qlI.s 			page 51


 1804 0056 2022     		movs	r2, #32
 1805 0058 204B     		ldr	r3, .L184
 1806 005a DA81     		strh	r2, [r3, #14]	@ movhi
 416:dwm1000.c     **** 		case _1536: case _2048: case _4096:
 1807              		.loc 1 416 0
 1808 005c 34E0     		b	.L170
 1809              	.L176:
 418:dwm1000.c     **** 			config.receiver.pac = 64;
 1810              		.loc 1 418 0
 1811 005e 01A9     		add	r1, sp, #4
 1812 0060 2248     		ldr	r0, .L184+16
 1813 0062 FFF7FEFF 		bl	int2Bytes
 1814              	.LVL186:
 419:dwm1000.c     **** 			break;
 1815              		.loc 1 419 0
 1816 0066 4022     		movs	r2, #64
 1817 0068 1C4B     		ldr	r3, .L184
 1818 006a DA81     		strh	r2, [r3, #14]	@ movhi
 420:dwm1000.c     **** 		}
 1819              		.loc 1 420 0
 1820 006c 2CE0     		b	.L170
 1821              	.L172:
 424:dwm1000.c     **** 		case _64: case _128:
 1822              		.loc 1 424 0
 1823 006e 1B4B     		ldr	r3, .L184
 1824 0070 1B7A     		ldrb	r3, [r3, #8]	@ zero_extendqisi2
 1825 0072 013B     		subs	r3, r3, #1
 1826 0074 0C2B     		cmp	r3, #12
 1827 0076 27D8     		bhi	.L170
 1828 0078 DFE803F0 		tbb	[pc, r3]
 1829              	.L179:
 1830 007c 07       		.byte	(.L178-.L179)/2
 1831 007d 17       		.byte	(.L180-.L179)/2
 1832 007e 1F       		.byte	(.L181-.L179)/2
 1833 007f 26       		.byte	(.L170-.L179)/2
 1834 0080 07       		.byte	(.L178-.L179)/2
 1835 0081 1F       		.byte	(.L181-.L179)/2
 1836 0082 26       		.byte	(.L170-.L179)/2
 1837 0083 26       		.byte	(.L170-.L179)/2
 1838 0084 0F       		.byte	(.L182-.L179)/2
 1839 0085 1F       		.byte	(.L181-.L179)/2
 1840 0086 26       		.byte	(.L170-.L179)/2
 1841 0087 26       		.byte	(.L170-.L179)/2
 1842 0088 0F       		.byte	(.L182-.L179)/2
 1843 0089 00       		.p2align 1
 1844              	.L178:
 426:dwm1000.c     **** 			config.receiver.pac = 8;
 1845              		.loc 1 426 0
 1846 008a 01A9     		add	r1, sp, #4
 1847 008c 1848     		ldr	r0, .L184+20
 1848 008e FFF7FEFF 		bl	int2Bytes
 1849              	.LVL187:
 427:dwm1000.c     **** 			break;
 1850              		.loc 1 427 0
 1851 0092 0822     		movs	r2, #8
 1852 0094 114B     		ldr	r3, .L184
 1853 0096 DA81     		strh	r2, [r3, #14]	@ movhi
ARM GAS  C:\Users\PIERRE~1\AppData\Local\Temp\ccqD7qlI.s 			page 52


 428:dwm1000.c     **** 		case _256: case _512:
 1854              		.loc 1 428 0
 1855 0098 16E0     		b	.L170
 1856              	.L182:
 430:dwm1000.c     **** 			config.receiver.pac = 16;
 1857              		.loc 1 430 0
 1858 009a 01A9     		add	r1, sp, #4
 1859 009c 1548     		ldr	r0, .L184+24
 1860 009e FFF7FEFF 		bl	int2Bytes
 1861              	.LVL188:
 431:dwm1000.c     **** 			break;
 1862              		.loc 1 431 0
 1863 00a2 1022     		movs	r2, #16
 1864 00a4 0D4B     		ldr	r3, .L184
 1865 00a6 DA81     		strh	r2, [r3, #14]	@ movhi
 432:dwm1000.c     **** 		case _1024:
 1866              		.loc 1 432 0
 1867 00a8 0EE0     		b	.L170
 1868              	.L180:
 434:dwm1000.c     **** 			config.receiver.pac = 32;
 1869              		.loc 1 434 0
 1870 00aa 01A9     		add	r1, sp, #4
 1871 00ac 1248     		ldr	r0, .L184+28
 1872 00ae FFF7FEFF 		bl	int2Bytes
 1873              	.LVL189:
 435:dwm1000.c     **** 			break;
 1874              		.loc 1 435 0
 1875 00b2 2022     		movs	r2, #32
 1876 00b4 094B     		ldr	r3, .L184
 1877 00b6 DA81     		strh	r2, [r3, #14]	@ movhi
 436:dwm1000.c     **** 		case _1536: case _2048: case _4096:
 1878              		.loc 1 436 0
 1879 00b8 06E0     		b	.L170
 1880              	.L181:
 438:dwm1000.c     **** 			config.receiver.pac = 64;
 1881              		.loc 1 438 0
 1882 00ba 01A9     		add	r1, sp, #4
 1883 00bc 0F48     		ldr	r0, .L184+32
 1884 00be FFF7FEFF 		bl	int2Bytes
 1885              	.LVL190:
 439:dwm1000.c     **** 			break;
 1886              		.loc 1 439 0
 1887 00c2 4022     		movs	r2, #64
 1888 00c4 054B     		ldr	r3, .L184
 1889 00c6 DA81     		strh	r2, [r3, #14]	@ movhi
 1890              	.L170:
 444:dwm1000.c     **** }
 1891              		.loc 1 444 0
 1892 00c8 0423     		movs	r3, #4
 1893 00ca 0DEB0302 		add	r2, sp, r3
 1894 00ce 0821     		movs	r1, #8
 1895 00d0 2720     		movs	r0, #39
 1896 00d2 FFF7FEFF 		bl	DWM_WriteSPI_ext
 1897              	.LVL191:
 445:dwm1000.c     **** 
 1898              		.loc 1 445 0
 1899 00d6 03B0     		add	sp, sp, #12
ARM GAS  C:\Users\PIERRE~1\AppData\Local\Temp\ccqD7qlI.s 			page 53


 1900              		.cfi_def_cfa_offset 4
 1901              		@ sp needed
 1902 00d8 5DF804FB 		ldr	pc, [sp], #4
 1903              	.L185:
 1904              		.align	2
 1905              	.L184:
 1906 00dc 00000000 		.word	.LANCHOR0
 1907 00e0 2D001A31 		.word	823787565
 1908 00e4 52001A33 		.word	857342034
 1909 00e8 9A001A35 		.word	890896538
 1910 00ec 1D011A37 		.word	924451101
 1911 00f0 6B003B31 		.word	825950315
 1912 00f4 BE003B33 		.word	859504830
 1913 00f8 5E013B35 		.word	893059422
 1914 00fc 96023B37 		.word	926614166
 1915              		.cfi_endproc
 1916              	.LFE82:
 1917              		.size	RECEIVER_UpdatePacSize, .-RECEIVER_UpdatePacSize
 1918              		.section	.text.RECEIVER_UpdateSFDTimeout,"ax",%progbits
 1919              		.align	2
 1920              		.thumb
 1921              		.thumb_func
 1922              		.type	RECEIVER_UpdateSFDTimeout, %function
 1923              	RECEIVER_UpdateSFDTimeout:
 1924              	.LFB81:
 365:dwm1000.c     **** 	uint16_t preambleSize = 4096;
 1925              		.loc 1 365 0
 1926              		.cfi_startproc
 1927              		@ args = 0, pretend = 0, frame = 8
 1928              		@ frame_needed = 0, uses_anonymous_args = 0
 1929 0000 00B5     		push	{lr}
 1930              		.cfi_def_cfa_offset 4
 1931              		.cfi_offset 14, -4
 1932 0002 83B0     		sub	sp, sp, #12
 1933              		.cfi_def_cfa_offset 16
 1934              	.LVL192:
 368:dwm1000.c     **** 		case _64:
 1935              		.loc 1 368 0
 1936 0004 1A4B     		ldr	r3, .L198
 1937 0006 1B7A     		ldrb	r3, [r3, #8]	@ zero_extendqisi2
 1938 0008 013B     		subs	r3, r3, #1
 1939 000a 0C2B     		cmp	r3, #12
 1940 000c 08D8     		bhi	.L187
 1941 000e DFE803F0 		tbb	[pc, r3]
 1942              	.L189:
 1943 0012 1B       		.byte	(.L196-.L189)/2
 1944 0013 12       		.byte	(.L190-.L189)/2
 1945 0014 07       		.byte	(.L187-.L189)/2
 1946 0015 07       		.byte	(.L187-.L189)/2
 1947 0016 0A       		.byte	(.L191-.L189)/2
 1948 0017 15       		.byte	(.L192-.L189)/2
 1949 0018 07       		.byte	(.L187-.L189)/2
 1950 0019 07       		.byte	(.L187-.L189)/2
 1951 001a 0C       		.byte	(.L193-.L189)/2
 1952 001b 18       		.byte	(.L194-.L189)/2
 1953 001c 07       		.byte	(.L187-.L189)/2
 1954 001d 07       		.byte	(.L187-.L189)/2
ARM GAS  C:\Users\PIERRE~1\AppData\Local\Temp\ccqD7qlI.s 			page 54


 1955 001e 0F       		.byte	(.L195-.L189)/2
 1956 001f 00       		.p2align 1
 1957              	.L187:
 366:dwm1000.c     **** 	uint8_t timeout[2];
 1958              		.loc 1 366 0
 1959 0020 4FF48050 		mov	r0, #4096
 1960 0024 11E0     		b	.L188
 1961              	.L191:
 1962              	.LVL193:
 373:dwm1000.c     **** 			break;
 1963              		.loc 1 373 0
 1964 0026 8020     		movs	r0, #128
 374:dwm1000.c     **** 		case _256:
 1965              		.loc 1 374 0
 1966 0028 0FE0     		b	.L188
 1967              	.LVL194:
 1968              	.L193:
 376:dwm1000.c     **** 			break;
 1969              		.loc 1 376 0
 1970 002a 4FF48070 		mov	r0, #256
 377:dwm1000.c     **** 		case _512:
 1971              		.loc 1 377 0
 1972 002e 0CE0     		b	.L188
 1973              	.LVL195:
 1974              	.L195:
 379:dwm1000.c     **** 			break;
 1975              		.loc 1 379 0
 1976 0030 4FF40070 		mov	r0, #512
 380:dwm1000.c     **** 		case _1024:
 1977              		.loc 1 380 0
 1978 0034 09E0     		b	.L188
 1979              	.LVL196:
 1980              	.L190:
 382:dwm1000.c     **** 			break;
 1981              		.loc 1 382 0
 1982 0036 4FF48060 		mov	r0, #1024
 383:dwm1000.c     **** 		case _1536:
 1983              		.loc 1 383 0
 1984 003a 06E0     		b	.L188
 1985              	.LVL197:
 1986              	.L192:
 385:dwm1000.c     **** 			break;
 1987              		.loc 1 385 0
 1988 003c 4FF4C060 		mov	r0, #1536
 386:dwm1000.c     **** 		case _2048:
 1989              		.loc 1 386 0
 1990 0040 03E0     		b	.L188
 1991              	.LVL198:
 1992              	.L194:
 388:dwm1000.c     **** 			break;
 1993              		.loc 1 388 0
 1994 0042 4FF40060 		mov	r0, #2048
 389:dwm1000.c     **** 		case _4096:
 1995              		.loc 1 389 0
 1996 0046 00E0     		b	.L188
 1997              	.LVL199:
 1998              	.L196:
ARM GAS  C:\Users\PIERRE~1\AppData\Local\Temp\ccqD7qlI.s 			page 55


 370:dwm1000.c     **** 			break;
 1999              		.loc 1 370 0
 2000 0048 4020     		movs	r0, #64
 2001              	.LVL200:
 2002              	.L188:
 394:dwm1000.c     ****         DWM_WriteSPI_ext(DRX_CONF, 0x20, timeout, 2);
 2003              		.loc 1 394 0
 2004 004a 094A     		ldr	r2, .L198
 2005 004c 138A     		ldrh	r3, [r2, #16]
 2006 004e D289     		ldrh	r2, [r2, #14]
 2007 0050 1844     		add	r0, r0, r3
 2008              	.LVL201:
 2009 0052 801A     		subs	r0, r0, r2
 2010 0054 0130     		adds	r0, r0, #1
 2011 0056 01A9     		add	r1, sp, #4
 2012 0058 80B2     		uxth	r0, r0
 2013 005a FFF7FEFF 		bl	short2Bytes
 2014              	.LVL202:
 395:dwm1000.c     ****         //uint8 TimeOutPreambule[2]={0x00,0x00};
 2015              		.loc 1 395 0
 2016 005e 0223     		movs	r3, #2
 2017 0060 01AA     		add	r2, sp, #4
 2018 0062 2021     		movs	r1, #32
 2019 0064 2720     		movs	r0, #39
 2020 0066 FFF7FEFF 		bl	DWM_WriteSPI_ext
 2021              	.LVL203:
 398:dwm1000.c     **** 
 2022              		.loc 1 398 0
 2023 006a 03B0     		add	sp, sp, #12
 2024              		.cfi_def_cfa_offset 4
 2025              		@ sp needed
 2026 006c 5DF804FB 		ldr	pc, [sp], #4
 2027              	.L199:
 2028              		.align	2
 2029              	.L198:
 2030 0070 00000000 		.word	.LANCHOR0
 2031              		.cfi_endproc
 2032              	.LFE81:
 2033              		.size	RECEIVER_UpdateSFDTimeout, .-RECEIVER_UpdateSFDTimeout
 2034              		.section	.text.RECEIVER_UpdatePreambleSize,"ax",%progbits
 2035              		.align	2
 2036              		.thumb
 2037              		.thumb_func
 2038              		.type	RECEIVER_UpdatePreambleSize, %function
 2039              	RECEIVER_UpdatePreambleSize:
 2040              	.LFB87:
 502:dwm1000.c     **** 	uint8_t drx_tune1b[2] = {0};
 2041              		.loc 1 502 0
 2042              		.cfi_startproc
 2043              		@ args = 0, pretend = 0, frame = 8
 2044              		@ frame_needed = 0, uses_anonymous_args = 0
 2045 0000 00B5     		push	{lr}
 2046              		.cfi_def_cfa_offset 4
 2047              		.cfi_offset 14, -4
 2048 0002 83B0     		sub	sp, sp, #12
 2049              		.cfi_def_cfa_offset 16
 503:dwm1000.c     **** 	uint8_t drx_tune4h[2] = {0};
ARM GAS  C:\Users\PIERRE~1\AppData\Local\Temp\ccqD7qlI.s 			page 56


 2050              		.loc 1 503 0
 2051 0004 0023     		movs	r3, #0
 2052 0006 ADF80430 		strh	r3, [sp, #4]	@ movhi
 504:dwm1000.c     **** 	switch (config.receiver.channel.preambleSize) {
 2053              		.loc 1 504 0
 2054 000a ADF80030 		strh	r3, [sp]	@ movhi
 505:dwm1000.c     **** 	case _64:
 2055              		.loc 1 505 0
 2056 000e 1D4B     		ldr	r3, .L207
 2057 0010 1B7A     		ldrb	r3, [r3, #8]	@ zero_extendqisi2
 2058 0012 013B     		subs	r3, r3, #1
 2059 0014 0C2B     		cmp	r3, #12
 2060 0016 22D8     		bhi	.L201
 2061 0018 DFE803F0 		tbb	[pc, r3]
 2062              	.L203:
 2063 001c 07       		.byte	(.L202-.L203)/2
 2064 001d 10       		.byte	(.L204-.L203)/2
 2065 001e 19       		.byte	(.L205-.L203)/2
 2066 001f 21       		.byte	(.L201-.L203)/2
 2067 0020 10       		.byte	(.L204-.L203)/2
 2068 0021 19       		.byte	(.L205-.L203)/2
 2069 0022 21       		.byte	(.L201-.L203)/2
 2070 0023 21       		.byte	(.L201-.L203)/2
 2071 0024 10       		.byte	(.L204-.L203)/2
 2072 0025 19       		.byte	(.L205-.L203)/2
 2073 0026 21       		.byte	(.L201-.L203)/2
 2074 0027 21       		.byte	(.L201-.L203)/2
 2075 0028 10       		.byte	(.L204-.L203)/2
 2076 0029 00       		.p2align 1
 2077              	.L202:
 507:dwm1000.c     **** 		short2Bytes(0x0010, drx_tune4h);
 2078              		.loc 1 507 0
 2079 002a 01A9     		add	r1, sp, #4
 2080 002c 1020     		movs	r0, #16
 2081 002e FFF7FEFF 		bl	short2Bytes
 2082              	.LVL204:
 508:dwm1000.c     **** 		break;
 2083              		.loc 1 508 0
 2084 0032 6946     		mov	r1, sp
 2085 0034 1020     		movs	r0, #16
 2086 0036 FFF7FEFF 		bl	short2Bytes
 2087              	.LVL205:
 509:dwm1000.c     **** 	case _128: case _256: case _512: case _1024:	// for 850 kbps & 6800 kbps
 2088              		.loc 1 509 0
 2089 003a 10E0     		b	.L201
 2090              	.L204:
 511:dwm1000.c     **** 		short2Bytes(0x0028, drx_tune4h);
 2091              		.loc 1 511 0
 2092 003c 01A9     		add	r1, sp, #4
 2093 003e 2020     		movs	r0, #32
 2094 0040 FFF7FEFF 		bl	short2Bytes
 2095              	.LVL206:
 512:dwm1000.c     **** 		break;
 2096              		.loc 1 512 0
 2097 0044 6946     		mov	r1, sp
 2098 0046 2820     		movs	r0, #40
 2099 0048 FFF7FEFF 		bl	short2Bytes
ARM GAS  C:\Users\PIERRE~1\AppData\Local\Temp\ccqD7qlI.s 			page 57


 2100              	.LVL207:
 513:dwm1000.c     **** 	case _1536: case _2048: case _4096:			// for 110 kbps
 2101              		.loc 1 513 0
 2102 004c 07E0     		b	.L201
 2103              	.L205:
 515:dwm1000.c     **** 		short2Bytes(0x0028, drx_tune4h);
 2104              		.loc 1 515 0
 2105 004e 01A9     		add	r1, sp, #4
 2106 0050 6420     		movs	r0, #100
 2107 0052 FFF7FEFF 		bl	short2Bytes
 2108              	.LVL208:
 516:dwm1000.c     **** 		break;
 2109              		.loc 1 516 0
 2110 0056 6946     		mov	r1, sp
 2111 0058 2820     		movs	r0, #40
 2112 005a FFF7FEFF 		bl	short2Bytes
 2113              	.LVL209:
 2114              	.L201:
 519:dwm1000.c     **** 	DWM_WriteSPI_ext(DRX_CONF, 0x26, drx_tune4h, 2);
 2115              		.loc 1 519 0
 2116 005e 0223     		movs	r3, #2
 2117 0060 01AA     		add	r2, sp, #4
 2118 0062 0621     		movs	r1, #6
 2119 0064 2720     		movs	r0, #39
 2120 0066 FFF7FEFF 		bl	DWM_WriteSPI_ext
 2121              	.LVL210:
 520:dwm1000.c     **** 	RECEIVER_UpdatePacSize();
 2122              		.loc 1 520 0
 2123 006a 0223     		movs	r3, #2
 2124 006c 6A46     		mov	r2, sp
 2125 006e 2621     		movs	r1, #38
 2126 0070 2720     		movs	r0, #39
 2127 0072 FFF7FEFF 		bl	DWM_WriteSPI_ext
 2128              	.LVL211:
 521:dwm1000.c     **** 	RECEIVER_UpdateSFDTimeout();
 2129              		.loc 1 521 0
 2130 0076 FFF7FEFF 		bl	RECEIVER_UpdatePacSize
 2131              	.LVL212:
 522:dwm1000.c     **** }
 2132              		.loc 1 522 0
 2133 007a FFF7FEFF 		bl	RECEIVER_UpdateSFDTimeout
 2134              	.LVL213:
 523:dwm1000.c     **** 
 2135              		.loc 1 523 0
 2136 007e 03B0     		add	sp, sp, #12
 2137              		.cfi_def_cfa_offset 4
 2138              		@ sp needed
 2139 0080 5DF804FB 		ldr	pc, [sp], #4
 2140              	.L208:
 2141              		.align	2
 2142              	.L207:
 2143 0084 00000000 		.word	.LANCHOR0
 2144              		.cfi_endproc
 2145              	.LFE87:
 2146              		.size	RECEIVER_UpdatePreambleSize, .-RECEIVER_UpdatePreambleSize
 2147              		.section	.text.RECEIVER_SetPreambleSize,"ax",%progbits
 2148              		.align	2
ARM GAS  C:\Users\PIERRE~1\AppData\Local\Temp\ccqD7qlI.s 			page 58


 2149              		.global	RECEIVER_SetPreambleSize
 2150              		.thumb
 2151              		.thumb_func
 2152              		.type	RECEIVER_SetPreambleSize, %function
 2153              	RECEIVER_SetPreambleSize:
 2154              	.LFB90:
 557:dwm1000.c     **** 	config.receiver.channel.preambleSize = CHANNEL_ValidPreambleSize(&(config.receiver.channel), pream
 2155              		.loc 1 557 0
 2156              		.cfi_startproc
 2157              		@ args = 0, pretend = 0, frame = 0
 2158              		@ frame_needed = 0, uses_anonymous_args = 0
 2159              	.LVL214:
 2160 0000 10B5     		push	{r4, lr}
 2161              		.cfi_def_cfa_offset 8
 2162              		.cfi_offset 4, -8
 2163              		.cfi_offset 14, -4
 558:dwm1000.c     **** 	RECEIVER_UpdatePreambleSize();
 2164              		.loc 1 558 0
 2165 0002 044C     		ldr	r4, .L211
 2166 0004 0146     		mov	r1, r0
 2167 0006 A01D     		adds	r0, r4, #6
 2168              	.LVL215:
 2169 0008 FFF7FEFF 		bl	CHANNEL_ValidPreambleSize
 2170              	.LVL216:
 2171 000c 2072     		strb	r0, [r4, #8]
 559:dwm1000.c     **** }
 2172              		.loc 1 559 0
 2173 000e FFF7FEFF 		bl	RECEIVER_UpdatePreambleSize
 2174              	.LVL217:
 2175 0012 10BD     		pop	{r4, pc}
 2176              	.L212:
 2177              		.align	2
 2178              	.L211:
 2179 0014 00000000 		.word	.LANCHOR0
 2180              		.cfi_endproc
 2181              	.LFE90:
 2182              		.size	RECEIVER_SetPreambleSize, .-RECEIVER_SetPreambleSize
 2183              		.section	.text.RECEIVER_UpdateChannel,"ax",%progbits
 2184              		.align	2
 2185              		.thumb
 2186              		.thumb_func
 2187              		.type	RECEIVER_UpdateChannel, %function
 2188              	RECEIVER_UpdateChannel:
 2189              	.LFB84:
 461:dwm1000.c     **** 	uint8_t rxCtrl[1];
 2190              		.loc 1 461 0
 2191              		.cfi_startproc
 2192              		@ args = 0, pretend = 0, frame = 8
 2193              		@ frame_needed = 0, uses_anonymous_args = 0
 2194 0000 00B5     		push	{lr}
 2195              		.cfi_def_cfa_offset 4
 2196              		.cfi_offset 14, -4
 2197 0002 83B0     		sub	sp, sp, #12
 2198              		.cfi_def_cfa_offset 16
 463:dwm1000.c     **** 	case _1: case _2: case _3: case _5:
 2199              		.loc 1 463 0
 2200 0004 0D4B     		ldr	r3, .L219
ARM GAS  C:\Users\PIERRE~1\AppData\Local\Temp\ccqD7qlI.s 			page 59


 2201 0006 9B79     		ldrb	r3, [r3, #6]	@ zero_extendqisi2
 2202 0008 013B     		subs	r3, r3, #1
 2203 000a 062B     		cmp	r3, #6
 2204 000c 0CD8     		bhi	.L214
 2205 000e DFE803F0 		tbb	[pc, r3]
 2206              	.L216:
 2207 0012 04       		.byte	(.L215-.L216)/2
 2208 0013 04       		.byte	(.L215-.L216)/2
 2209 0014 04       		.byte	(.L215-.L216)/2
 2210 0015 08       		.byte	(.L217-.L216)/2
 2211 0016 04       		.byte	(.L215-.L216)/2
 2212 0017 0B       		.byte	(.L214-.L216)/2
 2213 0018 08       		.byte	(.L217-.L216)/2
 2214 0019 00       		.p2align 1
 2215              	.L215:
 465:dwm1000.c     **** 		break;
 2216              		.loc 1 465 0
 2217 001a D823     		movs	r3, #216
 2218 001c 8DF80430 		strb	r3, [sp, #4]
 466:dwm1000.c     **** 	case _4: case _7:
 2219              		.loc 1 466 0
 2220 0020 02E0     		b	.L214
 2221              	.L217:
 468:dwm1000.c     **** 		break;
 2222              		.loc 1 468 0
 2223 0022 BC23     		movs	r3, #188
 2224 0024 8DF80430 		strb	r3, [sp, #4]
 2225              	.L214:
 471:dwm1000.c     **** }
 2226              		.loc 1 471 0
 2227 0028 0123     		movs	r3, #1
 2228 002a 01AA     		add	r2, sp, #4
 2229 002c 0B21     		movs	r1, #11
 2230 002e 2820     		movs	r0, #40
 2231 0030 FFF7FEFF 		bl	DWM_WriteSPI_ext
 2232              	.LVL218:
 472:dwm1000.c     **** 
 2233              		.loc 1 472 0
 2234 0034 03B0     		add	sp, sp, #12
 2235              		.cfi_def_cfa_offset 4
 2236              		@ sp needed
 2237 0036 5DF804FB 		ldr	pc, [sp], #4
 2238              	.L220:
 2239 003a 00BF     		.align	2
 2240              	.L219:
 2241 003c 00000000 		.word	.LANCHOR0
 2242              		.cfi_endproc
 2243              	.LFE84:
 2244              		.size	RECEIVER_UpdateChannel, .-RECEIVER_UpdateChannel
 2245              		.section	.text.RECEIVER_SetChannel,"ax",%progbits
 2246              		.align	2
 2247              		.global	RECEIVER_SetChannel
 2248              		.thumb
 2249              		.thumb_func
 2250              		.type	RECEIVER_SetChannel, %function
 2251              	RECEIVER_SetChannel:
 2252              	.LFB91:
ARM GAS  C:\Users\PIERRE~1\AppData\Local\Temp\ccqD7qlI.s 			page 60


 562:dwm1000.c     **** 	config.receiver.channel.channel = channel;
 2253              		.loc 1 562 0
 2254              		.cfi_startproc
 2255              		@ args = 0, pretend = 0, frame = 0
 2256              		@ frame_needed = 0, uses_anonymous_args = 0
 2257              	.LVL219:
 2258 0000 10B5     		push	{r4, lr}
 2259              		.cfi_def_cfa_offset 8
 2260              		.cfi_offset 4, -8
 2261              		.cfi_offset 14, -4
 563:dwm1000.c     **** 	if (!CHANNEL_IsValidPreambleCode(&(config.receiver.channel), config.receiver.channel.preambleCode)
 2262              		.loc 1 563 0
 2263 0002 074B     		ldr	r3, .L224
 2264 0004 9871     		strb	r0, [r3, #6]
 564:dwm1000.c     **** 		RECEIVER_SetPreambleCode(config.receiver.channel.preambleCode);
 2265              		.loc 1 564 0
 2266 0006 DC79     		ldrb	r4, [r3, #7]	@ zero_extendqisi2
 2267 0008 2146     		mov	r1, r4
 2268 000a 981D     		adds	r0, r3, #6
 2269              	.LVL220:
 2270 000c FFF7FEFF 		bl	CHANNEL_IsValidPreambleCode
 2271              	.LVL221:
 2272 0010 10B9     		cbnz	r0, .L222
 565:dwm1000.c     **** 	}
 2273              		.loc 1 565 0
 2274 0012 2046     		mov	r0, r4
 2275 0014 FFF7FEFF 		bl	RECEIVER_SetPreambleCode
 2276              	.LVL222:
 2277              	.L222:
 568:dwm1000.c     **** }
 2278              		.loc 1 568 0
 2279 0018 FFF7FEFF 		bl	RECEIVER_UpdateChannel
 2280              	.LVL223:
 2281 001c 10BD     		pop	{r4, pc}
 2282              	.L225:
 2283 001e 00BF     		.align	2
 2284              	.L224:
 2285 0020 00000000 		.word	.LANCHOR0
 2286              		.cfi_endproc
 2287              	.LFE91:
 2288              		.size	RECEIVER_SetChannel, .-RECEIVER_SetChannel
 2289              		.section	.text.RECEIVER_UpdateBitrate,"ax",%progbits
 2290              		.align	2
 2291              		.thumb
 2292              		.thumb_func
 2293              		.type	RECEIVER_UpdateBitrate, %function
 2294              	RECEIVER_UpdateBitrate:
 2295              	.LFB85:
 474:dwm1000.c     **** 	uint8_t sys[1] = {0};
 2296              		.loc 1 474 0
 2297              		.cfi_startproc
 2298              		@ args = 0, pretend = 0, frame = 8
 2299              		@ frame_needed = 0, uses_anonymous_args = 0
 2300 0000 00B5     		push	{lr}
 2301              		.cfi_def_cfa_offset 4
 2302              		.cfi_offset 14, -4
 2303 0002 83B0     		sub	sp, sp, #12
ARM GAS  C:\Users\PIERRE~1\AppData\Local\Temp\ccqD7qlI.s 			page 61


 2304              		.cfi_def_cfa_offset 16
 475:dwm1000.c     **** 	uint8_t drxTune0b[2];
 2305              		.loc 1 475 0
 2306 0004 0023     		movs	r3, #0
 2307 0006 8DF80430 		strb	r3, [sp, #4]
 477:dwm1000.c     **** 	case _110KBPS:
 2308              		.loc 1 477 0
 2309 000a 144B     		ldr	r3, .L232
 2310 000c 5B7A     		ldrb	r3, [r3, #9]	@ zero_extendqisi2
 2311 000e 13B1     		cbz	r3, .L228
 2312 0010 022B     		cmp	r3, #2
 2313 0012 11D8     		bhi	.L227
 2314 0014 09E0     		b	.L230
 2315              	.L228:
 479:dwm1000.c     **** 		sys[0] = 1 << 6;
 2316              		.loc 1 479 0
 2317 0016 6946     		mov	r1, sp
 2318 0018 0A20     		movs	r0, #10
 2319 001a FFF7FEFF 		bl	short2Bytes
 2320              	.LVL224:
 480:dwm1000.c     **** 		config.receiver.sfd = 64;
 2321              		.loc 1 480 0
 2322 001e 4023     		movs	r3, #64
 2323 0020 8DF80430 		strb	r3, [sp, #4]
 481:dwm1000.c     **** 		break;
 2324              		.loc 1 481 0
 2325 0024 0D4A     		ldr	r2, .L232
 2326 0026 1382     		strh	r3, [r2, #16]	@ movhi
 482:dwm1000.c     **** 	case _850KBPS: case _6800KBPS:
 2327              		.loc 1 482 0
 2328 0028 06E0     		b	.L227
 2329              	.L230:
 484:dwm1000.c     **** 		config.receiver.sfd = 8;
 2330              		.loc 1 484 0
 2331 002a 6946     		mov	r1, sp
 2332 002c 0120     		movs	r0, #1
 2333 002e FFF7FEFF 		bl	short2Bytes
 2334              	.LVL225:
 485:dwm1000.c     **** 		break;
 2335              		.loc 1 485 0
 2336 0032 0822     		movs	r2, #8
 2337 0034 094B     		ldr	r3, .L232
 2338 0036 1A82     		strh	r2, [r3, #16]	@ movhi
 2339              	.L227:
 488:dwm1000.c     **** 	DWM_WriteSPI_ext(DRX_CONF, 0x02, drxTune0b, 2);
 2340              		.loc 1 488 0
 2341 0038 0123     		movs	r3, #1
 2342 003a 01AA     		add	r2, sp, #4
 2343 003c 0221     		movs	r1, #2
 2344 003e 0420     		movs	r0, #4
 2345 0040 FFF7FEFF 		bl	DWM_WriteSPI_ext
 2346              	.LVL226:
 489:dwm1000.c     **** 	RECEIVER_UpdateSFDTimeout();
 2347              		.loc 1 489 0
 2348 0044 0223     		movs	r3, #2
 2349 0046 6A46     		mov	r2, sp
 2350 0048 1946     		mov	r1, r3
ARM GAS  C:\Users\PIERRE~1\AppData\Local\Temp\ccqD7qlI.s 			page 62


 2351 004a 2720     		movs	r0, #39
 2352 004c FFF7FEFF 		bl	DWM_WriteSPI_ext
 2353              	.LVL227:
 490:dwm1000.c     **** }
 2354              		.loc 1 490 0
 2355 0050 FFF7FEFF 		bl	RECEIVER_UpdateSFDTimeout
 2356              	.LVL228:
 491:dwm1000.c     **** 
 2357              		.loc 1 491 0
 2358 0054 03B0     		add	sp, sp, #12
 2359              		.cfi_def_cfa_offset 4
 2360              		@ sp needed
 2361 0056 5DF804FB 		ldr	pc, [sp], #4
 2362              	.L233:
 2363 005a 00BF     		.align	2
 2364              	.L232:
 2365 005c 00000000 		.word	.LANCHOR0
 2366              		.cfi_endproc
 2367              	.LFE85:
 2368              		.size	RECEIVER_UpdateBitrate, .-RECEIVER_UpdateBitrate
 2369              		.section	.text.RECEIVER_SetBitRate,"ax",%progbits
 2370              		.align	2
 2371              		.global	RECEIVER_SetBitRate
 2372              		.thumb
 2373              		.thumb_func
 2374              		.type	RECEIVER_SetBitRate, %function
 2375              	RECEIVER_SetBitRate:
 2376              	.LFB92:
 571:dwm1000.c     **** 	config.receiver.channel.bitRate = bitRate;
 2377              		.loc 1 571 0
 2378              		.cfi_startproc
 2379              		@ args = 0, pretend = 0, frame = 0
 2380              		@ frame_needed = 0, uses_anonymous_args = 0
 2381              	.LVL229:
 2382 0000 10B5     		push	{r4, lr}
 2383              		.cfi_def_cfa_offset 8
 2384              		.cfi_offset 4, -8
 2385              		.cfi_offset 14, -4
 572:dwm1000.c     **** 	if (!CHANNEL_IsValidPreambleSize(&(config.receiver.channel), config.receiver.channel.preambleSize)
 2386              		.loc 1 572 0
 2387 0002 074B     		ldr	r3, .L237
 2388 0004 5872     		strb	r0, [r3, #9]
 573:dwm1000.c     **** 		RECEIVER_SetPreambleSize(config.receiver.channel.preambleSize);
 2389              		.loc 1 573 0
 2390 0006 1C7A     		ldrb	r4, [r3, #8]	@ zero_extendqisi2
 2391 0008 2146     		mov	r1, r4
 2392 000a 981D     		adds	r0, r3, #6
 2393              	.LVL230:
 2394 000c FFF7FEFF 		bl	CHANNEL_IsValidPreambleSize
 2395              	.LVL231:
 2396 0010 10B9     		cbnz	r0, .L235
 574:dwm1000.c     **** 	}
 2397              		.loc 1 574 0
 2398 0012 2046     		mov	r0, r4
 2399 0014 FFF7FEFF 		bl	RECEIVER_SetPreambleSize
 2400              	.LVL232:
 2401              	.L235:
ARM GAS  C:\Users\PIERRE~1\AppData\Local\Temp\ccqD7qlI.s 			page 63


 576:dwm1000.c     **** }
 2402              		.loc 1 576 0
 2403 0018 FFF7FEFF 		bl	RECEIVER_UpdateBitrate
 2404              	.LVL233:
 2405 001c 10BD     		pop	{r4, pc}
 2406              	.L238:
 2407 001e 00BF     		.align	2
 2408              	.L237:
 2409 0020 00000000 		.word	.LANCHOR0
 2410              		.cfi_endproc
 2411              	.LFE92:
 2412              		.size	RECEIVER_SetBitRate, .-RECEIVER_SetBitRate
 2413              		.section	.text.RECEIVER_UpdatePrf,"ax",%progbits
 2414              		.align	2
 2415              		.thumb
 2416              		.thumb_func
 2417              		.type	RECEIVER_UpdatePrf, %function
 2418              	RECEIVER_UpdatePrf:
 2419              	.LFB88:
 525:dwm1000.c     **** 	uint8_t prf[1];
 2420              		.loc 1 525 0
 2421              		.cfi_startproc
 2422              		@ args = 0, pretend = 0, frame = 16
 2423              		@ frame_needed = 0, uses_anonymous_args = 0
 2424 0000 10B5     		push	{r4, lr}
 2425              		.cfi_def_cfa_offset 8
 2426              		.cfi_offset 4, -8
 2427              		.cfi_offset 14, -4
 2428 0002 84B0     		sub	sp, sp, #16
 2429              		.cfi_def_cfa_offset 24
 527:dwm1000.c     **** 	prf[0] &= 0xF3;
 2430              		.loc 1 527 0
 2431 0004 0123     		movs	r3, #1
 2432 0006 03AA     		add	r2, sp, #12
 2433 0008 0221     		movs	r1, #2
 2434 000a 1F20     		movs	r0, #31
 2435 000c FFF7FEFF 		bl	DWM_ReadSPI_ext
 2436              	.LVL234:
 528:dwm1000.c     **** 	prf[0] |= config.receiver.channel.prf << 2;
 2437              		.loc 1 528 0
 2438 0010 9DF80C30 		ldrb	r3, [sp, #12]	@ zero_extendqisi2
 2439 0014 03F0F303 		and	r3, r3, #243
 529:dwm1000.c     **** 	DWM_WriteSPI_ext(CHAN_CTRL, 2, prf, 1);
 2440              		.loc 1 529 0
 2441 0018 224C     		ldr	r4, .L244
 2442 001a A27A     		ldrb	r2, [r4, #10]	@ zero_extendqisi2
 2443 001c 43EA8203 		orr	r3, r3, r2, lsl #2
 2444 0020 8DF80C30 		strb	r3, [sp, #12]
 530:dwm1000.c     **** 	uint8_t drxTune1a[2];
 2445              		.loc 1 530 0
 2446 0024 0123     		movs	r3, #1
 2447 0026 03AA     		add	r2, sp, #12
 2448 0028 0221     		movs	r1, #2
 2449 002a 1F20     		movs	r0, #31
 2450 002c FFF7FEFF 		bl	DWM_WriteSPI_ext
 2451              	.LVL235:
 534:dwm1000.c     **** 	case _16MHZ:
ARM GAS  C:\Users\PIERRE~1\AppData\Local\Temp\ccqD7qlI.s 			page 64


 2452              		.loc 1 534 0
 2453 0030 A37A     		ldrb	r3, [r4, #10]	@ zero_extendqisi2
 2454 0032 012B     		cmp	r3, #1
 2455 0034 02D0     		beq	.L241
 2456 0036 022B     		cmp	r3, #2
 2457 0038 0FD0     		beq	.L242
 2458 003a 1CE0     		b	.L240
 2459              	.L241:
 536:dwm1000.c     **** 		short2Bytes(0x8870U, agcTune1);
 2460              		.loc 1 536 0
 2461 003c 02A9     		add	r1, sp, #8
 2462 003e 8720     		movs	r0, #135
 2463 0040 FFF7FEFF 		bl	short2Bytes
 2464              	.LVL236:
 537:dwm1000.c     **** 		short2Bytes(0x1607U, ldeCfg2);
 2465              		.loc 1 537 0
 2466 0044 01A9     		add	r1, sp, #4
 2467 0046 48F67000 		movw	r0, #34928
 2468 004a FFF7FEFF 		bl	short2Bytes
 2469              	.LVL237:
 538:dwm1000.c     **** 		break;
 2470              		.loc 1 538 0
 2471 004e 6946     		mov	r1, sp
 2472 0050 41F20760 		movw	r0, #5639
 2473 0054 FFF7FEFF 		bl	short2Bytes
 2474              	.LVL238:
 539:dwm1000.c     **** 	case _64MHZ:
 2475              		.loc 1 539 0
 2476 0058 0DE0     		b	.L240
 2477              	.L242:
 541:dwm1000.c     **** 		short2Bytes(0x889BU, agcTune1);
 2478              		.loc 1 541 0
 2479 005a 02A9     		add	r1, sp, #8
 2480 005c 8D20     		movs	r0, #141
 2481 005e FFF7FEFF 		bl	short2Bytes
 2482              	.LVL239:
 542:dwm1000.c     **** 		short2Bytes(0x0607U, ldeCfg2);
 2483              		.loc 1 542 0
 2484 0062 01A9     		add	r1, sp, #4
 2485 0064 48F69B00 		movw	r0, #34971
 2486 0068 FFF7FEFF 		bl	short2Bytes
 2487              	.LVL240:
 543:dwm1000.c     **** 		break;
 2488              		.loc 1 543 0
 2489 006c 6946     		mov	r1, sp
 2490 006e 40F20760 		movw	r0, #1543
 2491 0072 FFF7FEFF 		bl	short2Bytes
 2492              	.LVL241:
 2493              	.L240:
 546:dwm1000.c     **** 	DWM_WriteSPI_ext(AGC_CTRL, 0x04, agcTune1, 2);
 2494              		.loc 1 546 0
 2495 0076 0223     		movs	r3, #2
 2496 0078 02AA     		add	r2, sp, #8
 2497 007a 0421     		movs	r1, #4
 2498 007c 2720     		movs	r0, #39
 2499 007e FFF7FEFF 		bl	DWM_WriteSPI_ext
 2500              	.LVL242:
ARM GAS  C:\Users\PIERRE~1\AppData\Local\Temp\ccqD7qlI.s 			page 65


 547:dwm1000.c     **** 	DWM_WriteSPI_ext(LDE_CTRL, 0x1806, ldeCfg2, 2);
 2501              		.loc 1 547 0
 2502 0082 0223     		movs	r3, #2
 2503 0084 01AA     		add	r2, sp, #4
 2504 0086 0421     		movs	r1, #4
 2505 0088 2320     		movs	r0, #35
 2506 008a FFF7FEFF 		bl	DWM_WriteSPI_ext
 2507              	.LVL243:
 548:dwm1000.c     **** 	RECEIVER_UpdatePacSize();
 2508              		.loc 1 548 0
 2509 008e 0223     		movs	r3, #2
 2510 0090 6A46     		mov	r2, sp
 2511 0092 41F60601 		movw	r1, #6150
 2512 0096 2E20     		movs	r0, #46
 2513 0098 FFF7FEFF 		bl	DWM_WriteSPI_ext
 2514              	.LVL244:
 549:dwm1000.c     **** }
 2515              		.loc 1 549 0
 2516 009c FFF7FEFF 		bl	RECEIVER_UpdatePacSize
 2517              	.LVL245:
 550:dwm1000.c     **** 
 2518              		.loc 1 550 0
 2519 00a0 04B0     		add	sp, sp, #16
 2520              		.cfi_def_cfa_offset 8
 2521              		@ sp needed
 2522 00a2 10BD     		pop	{r4, pc}
 2523              	.L245:
 2524              		.align	2
 2525              	.L244:
 2526 00a4 00000000 		.word	.LANCHOR0
 2527              		.cfi_endproc
 2528              	.LFE88:
 2529              		.size	RECEIVER_UpdatePrf, .-RECEIVER_UpdatePrf
 2530              		.section	.text.RECEIVER_SetPrf,"ax",%progbits
 2531              		.align	2
 2532              		.global	RECEIVER_SetPrf
 2533              		.thumb
 2534              		.thumb_func
 2535              		.type	RECEIVER_SetPrf, %function
 2536              	RECEIVER_SetPrf:
 2537              	.LFB93:
 579:dwm1000.c     **** 	config.receiver.channel.prf = prf;
 2538              		.loc 1 579 0
 2539              		.cfi_startproc
 2540              		@ args = 0, pretend = 0, frame = 0
 2541              		@ frame_needed = 0, uses_anonymous_args = 0
 2542              	.LVL246:
 2543 0000 10B5     		push	{r4, lr}
 2544              		.cfi_def_cfa_offset 8
 2545              		.cfi_offset 4, -8
 2546              		.cfi_offset 14, -4
 580:dwm1000.c     **** 	if (!CHANNEL_IsValidPreambleCode(&(config.receiver.channel), config.receiver.channel.preambleCode)
 2547              		.loc 1 580 0
 2548 0002 074B     		ldr	r3, .L249
 2549 0004 9872     		strb	r0, [r3, #10]
 581:dwm1000.c     **** 		RECEIVER_SetPreambleCode(config.receiver.channel.preambleCode);
 2550              		.loc 1 581 0
ARM GAS  C:\Users\PIERRE~1\AppData\Local\Temp\ccqD7qlI.s 			page 66


 2551 0006 DC79     		ldrb	r4, [r3, #7]	@ zero_extendqisi2
 2552 0008 2146     		mov	r1, r4
 2553 000a 981D     		adds	r0, r3, #6
 2554              	.LVL247:
 2555 000c FFF7FEFF 		bl	CHANNEL_IsValidPreambleCode
 2556              	.LVL248:
 2557 0010 10B9     		cbnz	r0, .L247
 582:dwm1000.c     **** 	}
 2558              		.loc 1 582 0
 2559 0012 2046     		mov	r0, r4
 2560 0014 FFF7FEFF 		bl	RECEIVER_SetPreambleCode
 2561              	.LVL249:
 2562              	.L247:
 584:dwm1000.c     **** }
 2563              		.loc 1 584 0
 2564 0018 FFF7FEFF 		bl	RECEIVER_UpdatePrf
 2565              	.LVL250:
 2566 001c 10BD     		pop	{r4, pc}
 2567              	.L250:
 2568 001e 00BF     		.align	2
 2569              	.L249:
 2570 0020 00000000 		.word	.LANCHOR0
 2571              		.cfi_endproc
 2572              	.LFE93:
 2573              		.size	RECEIVER_SetPrf, .-RECEIVER_SetPrf
 2574              		.section	.text.RECEIVER_UpdateFrameTimeoutDelay,"ax",%progbits
 2575              		.align	2
 2576              		.thumb
 2577              		.thumb_func
 2578              		.type	RECEIVER_UpdateFrameTimeoutDelay, %function
 2579              	RECEIVER_UpdateFrameTimeoutDelay:
 2580              	.LFB83:
 447:dwm1000.c     **** 	uint8_t sysCfg[1];
 2581              		.loc 1 447 0
 2582              		.cfi_startproc
 2583              		@ args = 0, pretend = 0, frame = 8
 2584              		@ frame_needed = 0, uses_anonymous_args = 0
 2585 0000 10B5     		push	{r4, lr}
 2586              		.cfi_def_cfa_offset 8
 2587              		.cfi_offset 4, -8
 2588              		.cfi_offset 14, -4
 2589 0002 82B0     		sub	sp, sp, #8
 2590              		.cfi_def_cfa_offset 16
 449:dwm1000.c     **** 	sysCfg[0] |= (1 << 4);
 2591              		.loc 1 449 0
 2592 0004 0123     		movs	r3, #1
 2593 0006 01AA     		add	r2, sp, #4
 2594 0008 0321     		movs	r1, #3
 2595 000a 0420     		movs	r0, #4
 2596 000c FFF7FEFF 		bl	DWM_ReadSPI_ext
 2597              	.LVL251:
 450:dwm1000.c     **** 	uint8_t rxfwto[2];
 2598              		.loc 1 450 0
 2599 0010 9DF80430 		ldrb	r3, [sp, #4]	@ zero_extendqisi2
 2600 0014 43F01003 		orr	r3, r3, #16
 2601 0018 8DF80430 		strb	r3, [sp, #4]
 452:dwm1000.c     **** 	if (config.receiver.frameTimeoutDelay == 0) {
ARM GAS  C:\Users\PIERRE~1\AppData\Local\Temp\ccqD7qlI.s 			page 67


 2602              		.loc 1 452 0
 2603 001c 0D4C     		ldr	r4, .L254
 2604 001e 6946     		mov	r1, sp
 2605 0020 A089     		ldrh	r0, [r4, #12]
 2606 0022 FFF7FEFF 		bl	short2Bytes
 2607              	.LVL252:
 453:dwm1000.c     **** 		sysCfg[0] &= ~(1 << 4);
 2608              		.loc 1 453 0
 2609 0026 A389     		ldrh	r3, [r4, #12]
 2610 0028 2BB9     		cbnz	r3, .L252
 454:dwm1000.c     **** 	}
 2611              		.loc 1 454 0
 2612 002a 9DF80430 		ldrb	r3, [sp, #4]	@ zero_extendqisi2
 2613 002e 23F01003 		bic	r3, r3, #16
 2614 0032 8DF80430 		strb	r3, [sp, #4]
 2615              	.L252:
 457:dwm1000.c     **** 	DWM_WriteSPI_ext(SYS_CFG, 0x03, sysCfg, 0x01);
 2616              		.loc 1 457 0
 2617 0036 0223     		movs	r3, #2
 2618 0038 6A46     		mov	r2, sp
 2619 003a 4FF6FF71 		movw	r1, #65535
 2620 003e 0C20     		movs	r0, #12
 2621 0040 FFF7FEFF 		bl	DWM_WriteSPI_ext
 2622              	.LVL253:
 458:dwm1000.c     **** }
 2623              		.loc 1 458 0
 2624 0044 0123     		movs	r3, #1
 2625 0046 01AA     		add	r2, sp, #4
 2626 0048 0321     		movs	r1, #3
 2627 004a 0420     		movs	r0, #4
 2628 004c FFF7FEFF 		bl	DWM_WriteSPI_ext
 2629              	.LVL254:
 459:dwm1000.c     **** 
 2630              		.loc 1 459 0
 2631 0050 02B0     		add	sp, sp, #8
 2632              		.cfi_def_cfa_offset 8
 2633              		@ sp needed
 2634 0052 10BD     		pop	{r4, pc}
 2635              	.L255:
 2636              		.align	2
 2637              	.L254:
 2638 0054 00000000 		.word	.LANCHOR0
 2639              		.cfi_endproc
 2640              	.LFE83:
 2641              		.size	RECEIVER_UpdateFrameTimeoutDelay, .-RECEIVER_UpdateFrameTimeoutDelay
 2642              		.section	.text.RECEIVER_SetRrameTimeoutDelay,"ax",%progbits
 2643              		.align	2
 2644              		.global	RECEIVER_SetRrameTimeoutDelay
 2645              		.thumb
 2646              		.thumb_func
 2647              		.type	RECEIVER_SetRrameTimeoutDelay, %function
 2648              	RECEIVER_SetRrameTimeoutDelay:
 2649              	.LFB94:
 587:dwm1000.c     **** 	config.receiver.frameTimeoutDelay = timeoutDelay;
 2650              		.loc 1 587 0
 2651              		.cfi_startproc
 2652              		@ args = 0, pretend = 0, frame = 0
ARM GAS  C:\Users\PIERRE~1\AppData\Local\Temp\ccqD7qlI.s 			page 68


 2653              		@ frame_needed = 0, uses_anonymous_args = 0
 2654              	.LVL255:
 2655 0000 08B5     		push	{r3, lr}
 2656              		.cfi_def_cfa_offset 8
 2657              		.cfi_offset 3, -8
 2658              		.cfi_offset 14, -4
 588:dwm1000.c     **** 	RECEIVER_UpdateFrameTimeoutDelay();
 2659              		.loc 1 588 0
 2660 0002 024B     		ldr	r3, .L258
 2661 0004 9881     		strh	r0, [r3, #12]	@ movhi
 589:dwm1000.c     **** 
 2662              		.loc 1 589 0
 2663 0006 FFF7FEFF 		bl	RECEIVER_UpdateFrameTimeoutDelay
 2664              	.LVL256:
 2665 000a 08BD     		pop	{r3, pc}
 2666              	.L259:
 2667              		.align	2
 2668              	.L258:
 2669 000c 00000000 		.word	.LANCHOR0
 2670              		.cfi_endproc
 2671              	.LFE94:
 2672              		.size	RECEIVER_SetRrameTimeoutDelay, .-RECEIVER_SetRrameTimeoutDelay
 2673              		.section	.text.RECEIVER_Init,"ax",%progbits
 2674              		.align	2
 2675              		.thumb
 2676              		.thumb_func
 2677              		.type	RECEIVER_Init, %function
 2678              	RECEIVER_Init:
 2679              	.LFB95:
 593:dwm1000.c     **** 	CHANNEL_Init(&(config.receiver.channel));
 2680              		.loc 1 593 0
 2681              		.cfi_startproc
 2682              		@ args = 0, pretend = 0, frame = 0
 2683              		@ frame_needed = 0, uses_anonymous_args = 0
 2684 0000 10B5     		push	{r4, lr}
 2685              		.cfi_def_cfa_offset 8
 2686              		.cfi_offset 4, -8
 2687              		.cfi_offset 14, -4
 594:dwm1000.c     **** 	config.receiver.frameTimeoutDelay = 0;
 2688              		.loc 1 594 0
 2689 0002 094C     		ldr	r4, .L262
 2690 0004 A01D     		adds	r0, r4, #6
 2691 0006 FFF7FEFF 		bl	CHANNEL_Init
 2692              	.LVL257:
 595:dwm1000.c     **** 	RECEIVER_UpdateChannel();
 2693              		.loc 1 595 0
 2694 000a 0023     		movs	r3, #0
 2695 000c A381     		strh	r3, [r4, #12]	@ movhi
 596:dwm1000.c     **** 	RECEIVER_UpdateBitrate();
 2696              		.loc 1 596 0
 2697 000e FFF7FEFF 		bl	RECEIVER_UpdateChannel
 2698              	.LVL258:
 597:dwm1000.c     **** 	RECEIVER_UpdatePrf();
 2699              		.loc 1 597 0
 2700 0012 FFF7FEFF 		bl	RECEIVER_UpdateBitrate
 2701              	.LVL259:
 598:dwm1000.c     **** 	RECEIVER_UpdatePreambleCode();
ARM GAS  C:\Users\PIERRE~1\AppData\Local\Temp\ccqD7qlI.s 			page 69


 2702              		.loc 1 598 0
 2703 0016 FFF7FEFF 		bl	RECEIVER_UpdatePrf
 2704              	.LVL260:
 599:dwm1000.c     **** 	RECEIVER_UpdatePreambleSize();
 2705              		.loc 1 599 0
 2706 001a FFF7FEFF 		bl	RECEIVER_UpdatePreambleCode
 2707              	.LVL261:
 600:dwm1000.c     **** 	RECEIVER_UpdateFrameTimeoutDelay();
 2708              		.loc 1 600 0
 2709 001e FFF7FEFF 		bl	RECEIVER_UpdatePreambleSize
 2710              	.LVL262:
 601:dwm1000.c     **** }
 2711              		.loc 1 601 0
 2712 0022 FFF7FEFF 		bl	RECEIVER_UpdateFrameTimeoutDelay
 2713              	.LVL263:
 2714 0026 10BD     		pop	{r4, pc}
 2715              	.L263:
 2716              		.align	2
 2717              	.L262:
 2718 0028 00000000 		.word	.LANCHOR0
 2719              		.cfi_endproc
 2720              	.LFE95:
 2721              		.size	RECEIVER_Init, .-RECEIVER_Init
 2722              		.section	.text.DWM_UpdateChannel,"ax",%progbits
 2723              		.align	2
 2724              		.thumb
 2725              		.thumb_func
 2726              		.type	DWM_UpdateChannel, %function
 2727              	DWM_UpdateChannel:
 2728              	.LFB67:
 135:dwm1000.c     **** 	uint8_t chan[] = {((config.channel << 4)|config.channel)};
 2729              		.loc 1 135 0
 2730              		.cfi_startproc
 2731              		@ args = 0, pretend = 0, frame = 16
 2732              		@ frame_needed = 0, uses_anonymous_args = 0
 2733 0000 10B5     		push	{r4, lr}
 2734              		.cfi_def_cfa_offset 8
 2735              		.cfi_offset 4, -8
 2736              		.cfi_offset 14, -4
 2737 0002 84B0     		sub	sp, sp, #16
 2738              		.cfi_def_cfa_offset 24
 136:dwm1000.c     **** 	DWM_WriteSPI_ext(CHAN_CTRL, NO_SUB, chan, 1);
 2739              		.loc 1 136 0
 2740 0004 224C     		ldr	r4, .L272
 2741 0006 A37C     		ldrb	r3, [r4, #18]	@ zero_extendqisi2
 2742 0008 43EA0313 		orr	r3, r3, r3, lsl #4
 2743 000c 04AA     		add	r2, sp, #16
 2744 000e 02F8043D 		strb	r3, [r2, #-4]!
 137:dwm1000.c     **** 	uint8_t pllTune[1];
 2745              		.loc 1 137 0
 2746 0012 0123     		movs	r3, #1
 2747 0014 4FF6FF71 		movw	r1, #65535
 2748 0018 1F20     		movs	r0, #31
 2749 001a FFF7FEFF 		bl	DWM_WriteSPI_ext
 2750              	.LVL264:
 140:dwm1000.c     **** 		case _1:
 2751              		.loc 1 140 0
ARM GAS  C:\Users\PIERRE~1\AppData\Local\Temp\ccqD7qlI.s 			page 70


 2752 001e A37C     		ldrb	r3, [r4, #18]	@ zero_extendqisi2
 2753 0020 013B     		subs	r3, r3, #1
 2754 0022 062B     		cmp	r3, #6
 2755 0024 24D8     		bhi	.L265
 2756 0026 DFE803F0 		tbb	[pc, r3]
 2757              	.L267:
 2758 002a 04       		.byte	(.L266-.L267)/2
 2759 002b 0C       		.byte	(.L268-.L267)/2
 2760 002c 14       		.byte	(.L269-.L267)/2
 2761 002d 0C       		.byte	(.L268-.L267)/2
 2762 002e 1C       		.byte	(.L270-.L267)/2
 2763 002f 23       		.byte	(.L265-.L267)/2
 2764 0030 1C       		.byte	(.L270-.L267)/2
 2765 0031 00       		.p2align 1
 2766              	.L266:
 142:dwm1000.c     **** 			pllTune[0] = 0x1EU;
 2767              		.loc 1 142 0
 2768 0032 01A9     		add	r1, sp, #4
 2769 0034 1748     		ldr	r0, .L272+4
 2770 0036 FFF7FEFF 		bl	int2Bytes
 2771              	.LVL265:
 143:dwm1000.c     **** 			break;
 2772              		.loc 1 143 0
 2773 003a 1E23     		movs	r3, #30
 2774 003c 8DF80830 		strb	r3, [sp, #8]
 144:dwm1000.c     **** 		case _2: case _4:
 2775              		.loc 1 144 0
 2776 0040 16E0     		b	.L265
 2777              	.L268:
 146:dwm1000.c     **** 			pllTune[0] = 0x26U;
 2778              		.loc 1 146 0
 2779 0042 01A9     		add	r1, sp, #4
 2780 0044 1448     		ldr	r0, .L272+8
 2781 0046 FFF7FEFF 		bl	int2Bytes
 2782              	.LVL266:
 147:dwm1000.c     **** 			break;
 2783              		.loc 1 147 0
 2784 004a 2623     		movs	r3, #38
 2785 004c 8DF80830 		strb	r3, [sp, #8]
 148:dwm1000.c     **** 		case _3:
 2786              		.loc 1 148 0
 2787 0050 0EE0     		b	.L265
 2788              	.L269:
 150:dwm1000.c     **** 			pllTune[0] = 0x56U;
 2789              		.loc 1 150 0
 2790 0052 01A9     		add	r1, sp, #4
 2791 0054 1148     		ldr	r0, .L272+12
 2792 0056 FFF7FEFF 		bl	int2Bytes
 2793              	.LVL267:
 151:dwm1000.c     **** 			break;
 2794              		.loc 1 151 0
 2795 005a 5623     		movs	r3, #86
 2796 005c 8DF80830 		strb	r3, [sp, #8]
 152:dwm1000.c     **** 		case _5: case _7:
 2797              		.loc 1 152 0
 2798 0060 06E0     		b	.L265
 2799              	.L270:
ARM GAS  C:\Users\PIERRE~1\AppData\Local\Temp\ccqD7qlI.s 			page 71


 154:dwm1000.c     **** 			pllTune[0] = 0xBEU;
 2800              		.loc 1 154 0
 2801 0062 01A9     		add	r1, sp, #4
 2802 0064 0E48     		ldr	r0, .L272+16
 2803 0066 FFF7FEFF 		bl	int2Bytes
 2804              	.LVL268:
 155:dwm1000.c     **** 			break;
 2805              		.loc 1 155 0
 2806 006a BE23     		movs	r3, #190
 2807 006c 8DF80830 		strb	r3, [sp, #8]
 2808              	.L265:
 158:dwm1000.c     **** 	DWM_WriteSPI_ext(FS_CTRL, 0x0B, pllTune, 1);
 2809              		.loc 1 158 0
 2810 0070 0423     		movs	r3, #4
 2811 0072 0DEB0302 		add	r2, sp, r3
 2812 0076 0721     		movs	r1, #7
 2813 0078 2B20     		movs	r0, #43
 2814 007a FFF7FEFF 		bl	DWM_WriteSPI_ext
 2815              	.LVL269:
 159:dwm1000.c     **** }
 2816              		.loc 1 159 0
 2817 007e 0123     		movs	r3, #1
 2818 0080 02AA     		add	r2, sp, #8
 2819 0082 0B21     		movs	r1, #11
 2820 0084 2B20     		movs	r0, #43
 2821 0086 FFF7FEFF 		bl	DWM_WriteSPI_ext
 2822              	.LVL270:
 160:dwm1000.c     **** 
 2823              		.loc 1 160 0
 2824 008a 04B0     		add	sp, sp, #16
 2825              		.cfi_def_cfa_offset 8
 2826              		@ sp needed
 2827 008c 10BD     		pop	{r4, pc}
 2828              	.L273:
 2829 008e 00BF     		.align	2
 2830              	.L272:
 2831 0090 00000000 		.word	.LANCHOR0
 2832 0094 07040009 		.word	150995975
 2833 0098 08054008 		.word	138413320
 2834 009c 09104008 		.word	138416137
 2835 00a0 1D040008 		.word	134218781
 2836              		.cfi_endproc
 2837              	.LFE67:
 2838              		.size	DWM_UpdateChannel, .-DWM_UpdateChannel
 2839              		.section	.text.DWM_SetChannel,"ax",%progbits
 2840              		.align	2
 2841              		.global	DWM_SetChannel
 2842              		.thumb
 2843              		.thumb_func
 2844              		.type	DWM_SetChannel, %function
 2845              	DWM_SetChannel:
 2846              	.LFB96:
 604:dwm1000.c     **** 	config.channel = channel;
 2847              		.loc 1 604 0
 2848              		.cfi_startproc
 2849              		@ args = 0, pretend = 0, frame = 0
 2850              		@ frame_needed = 0, uses_anonymous_args = 0
ARM GAS  C:\Users\PIERRE~1\AppData\Local\Temp\ccqD7qlI.s 			page 72


 2851              	.LVL271:
 2852 0000 10B5     		push	{r4, lr}
 2853              		.cfi_def_cfa_offset 8
 2854              		.cfi_offset 4, -8
 2855              		.cfi_offset 14, -4
 2856 0002 0446     		mov	r4, r0
 605:dwm1000.c     **** 	TRANSMITTER_SetChannel(channel);
 2857              		.loc 1 605 0
 2858 0004 044B     		ldr	r3, .L276
 2859 0006 9874     		strb	r0, [r3, #18]
 606:dwm1000.c     **** 	RECEIVER_SetChannel(channel);
 2860              		.loc 1 606 0
 2861 0008 FFF7FEFF 		bl	TRANSMITTER_SetChannel
 2862              	.LVL272:
 607:dwm1000.c     **** 	DWM_UpdateChannel();
 2863              		.loc 1 607 0
 2864 000c 2046     		mov	r0, r4
 2865 000e FFF7FEFF 		bl	RECEIVER_SetChannel
 2866              	.LVL273:
 608:dwm1000.c     **** }
 2867              		.loc 1 608 0
 2868 0012 FFF7FEFF 		bl	DWM_UpdateChannel
 2869              	.LVL274:
 2870 0016 10BD     		pop	{r4, pc}
 2871              	.L277:
 2872              		.align	2
 2873              	.L276:
 2874 0018 00000000 		.word	.LANCHOR0
 2875              		.cfi_endproc
 2876              	.LFE96:
 2877              		.size	DWM_SetChannel, .-DWM_SetChannel
 2878              		.section	.text.DWM_Reset,"ax",%progbits
 2879              		.align	2
 2880              		.thumb
 2881              		.thumb_func
 2882              		.type	DWM_Reset, %function
 2883              	DWM_Reset:
 2884              	.LFB100:
 726:dwm1000.c     **** 	uint8_t pmscCtrl0[2];
 2885              		.loc 1 726 0
 2886              		.cfi_startproc
 2887              		@ args = 0, pretend = 0, frame = 8
 2888              		@ frame_needed = 0, uses_anonymous_args = 0
 2889 0000 70B5     		push	{r4, r5, r6, lr}
 2890              		.cfi_def_cfa_offset 16
 2891              		.cfi_offset 4, -16
 2892              		.cfi_offset 5, -12
 2893              		.cfi_offset 6, -8
 2894              		.cfi_offset 14, -4
 2895 0002 82B0     		sub	sp, sp, #8
 2896              		.cfi_def_cfa_offset 24
 730:dwm1000.c     **** 	DWM_WriteSPI_ext(PMSC, PMSC_CTRL0, pmscCtrl0, 1);
 2897              		.loc 1 730 0
 2898 0004 0124     		movs	r4, #1
 2899 0006 02AD     		add	r5, sp, #8
 2900 0008 05F8044D 		strb	r4, [r5, #-4]!
 731:dwm1000.c     **** 	CyDelay(1u);
ARM GAS  C:\Users\PIERRE~1\AppData\Local\Temp\ccqD7qlI.s 			page 73


 2901              		.loc 1 731 0
 2902 000c 2346     		mov	r3, r4
 2903 000e 2A46     		mov	r2, r5
 2904 0010 0021     		movs	r1, #0
 2905 0012 3620     		movs	r0, #54
 2906 0014 FFF7FEFF 		bl	DWM_WriteSPI_ext
 2907              	.LVL275:
 732:dwm1000.c     **** 
 2908              		.loc 1 732 0
 2909 0018 2046     		mov	r0, r4
 2910 001a FFF7FEFF 		bl	CyDelay
 2911              	.LVL276:
 735:dwm1000.c     **** 	DWM_WriteSPI_ext(PMSC, 0x03, pmscCtrl0, 1),
 2912              		.loc 1 735 0
 2913 001e 0026     		movs	r6, #0
 2914 0020 8DF80460 		strb	r6, [sp, #4]
 736:dwm1000.c     **** 	CyDelay(1u);
 2915              		.loc 1 736 0
 2916 0024 2346     		mov	r3, r4
 2917 0026 2A46     		mov	r2, r5
 2918 0028 0321     		movs	r1, #3
 2919 002a 3620     		movs	r0, #54
 2920 002c FFF7FEFF 		bl	DWM_WriteSPI_ext
 2921              	.LVL277:
 737:dwm1000.c     **** 
 2922              		.loc 1 737 0
 2923 0030 2046     		mov	r0, r4
 2924 0032 FFF7FEFF 		bl	CyDelay
 2925              	.LVL278:
 740:dwm1000.c     **** 	DWM_WriteSPI_ext(PMSC, 0x03, pmscCtrl0, 1);
 2926              		.loc 1 740 0
 2927 0036 F023     		movs	r3, #240
 2928 0038 8DF80430 		strb	r3, [sp, #4]
 741:dwm1000.c     **** 	CyDelay(5u);
 2929              		.loc 1 741 0
 2930 003c 2346     		mov	r3, r4
 2931 003e 2A46     		mov	r2, r5
 2932 0040 0321     		movs	r1, #3
 2933 0042 3620     		movs	r0, #54
 2934 0044 FFF7FEFF 		bl	DWM_WriteSPI_ext
 2935              	.LVL279:
 742:dwm1000.c     **** 
 2936              		.loc 1 742 0
 2937 0048 0520     		movs	r0, #5
 2938 004a FFF7FEFF 		bl	CyDelay
 2939              	.LVL280:
 745:dwm1000.c     **** 	pmscCtrl0[1] = 0x03;
 2940              		.loc 1 745 0
 2941 004e 8DF80440 		strb	r4, [sp, #4]
 746:dwm1000.c     **** 	DWM_WriteSPI_ext(PMSC, PMSC_CTRL0, pmscCtrl0, 2);
 2942              		.loc 1 746 0
 2943 0052 0323     		movs	r3, #3
 2944 0054 8DF80530 		strb	r3, [sp, #5]
 747:dwm1000.c     **** 	CyDelay(1u);
 2945              		.loc 1 747 0
 2946 0058 0223     		movs	r3, #2
 2947 005a 2A46     		mov	r2, r5
ARM GAS  C:\Users\PIERRE~1\AppData\Local\Temp\ccqD7qlI.s 			page 74


 2948 005c 3146     		mov	r1, r6
 2949 005e 3620     		movs	r0, #54
 2950 0060 FFF7FEFF 		bl	DWM_WriteSPI_ext
 2951              	.LVL281:
 748:dwm1000.c     **** 
 2952              		.loc 1 748 0
 2953 0064 2046     		mov	r0, r4
 2954 0066 FFF7FEFF 		bl	CyDelay
 2955              	.LVL282:
 751:dwm1000.c     **** 	opt_ctrl[1] = 0x80;
 2956              		.loc 1 751 0
 2957 006a 8DF80060 		strb	r6, [sp]
 752:dwm1000.c     **** 	DWM_WriteSPI_ext(OTP_IF, 0x06, opt_ctrl, 2);
 2958              		.loc 1 752 0
 2959 006e 8023     		movs	r3, #128
 2960 0070 8DF80130 		strb	r3, [sp, #1]
 753:dwm1000.c     **** 	CyDelay(1u);
 2961              		.loc 1 753 0
 2962 0074 0223     		movs	r3, #2
 2963 0076 6A46     		mov	r2, sp
 2964 0078 0621     		movs	r1, #6
 2965 007a 2D20     		movs	r0, #45
 2966 007c FFF7FEFF 		bl	DWM_WriteSPI_ext
 2967              	.LVL283:
 754:dwm1000.c     **** 
 2968              		.loc 1 754 0
 2969 0080 2046     		mov	r0, r4
 2970 0082 FFF7FEFF 		bl	CyDelay
 2971              	.LVL284:
 756:dwm1000.c     **** 	pmscCtrl0[1] = 0x02;
 2972              		.loc 1 756 0
 2973 0086 8DF80460 		strb	r6, [sp, #4]
 757:dwm1000.c     **** 	DWM_WriteSPI_ext(PMSC, PMSC_CTRL0, pmscCtrl0, 2);
 2974              		.loc 1 757 0
 2975 008a 0223     		movs	r3, #2
 2976 008c 8DF80530 		strb	r3, [sp, #5]
 758:dwm1000.c     **** }
 2977              		.loc 1 758 0
 2978 0090 2A46     		mov	r2, r5
 2979 0092 3146     		mov	r1, r6
 2980 0094 3620     		movs	r0, #54
 2981 0096 FFF7FEFF 		bl	DWM_WriteSPI_ext
 2982              	.LVL285:
 759:dwm1000.c     **** 
 2983              		.loc 1 759 0
 2984 009a 02B0     		add	sp, sp, #8
 2985              		.cfi_def_cfa_offset 16
 2986              		@ sp needed
 2987 009c 70BD     		pop	{r4, r5, r6, pc}
 2988              		.cfi_endproc
 2989              	.LFE100:
 2990              		.size	DWM_Reset, .-DWM_Reset
 2991 009e 00BF     		.section	.text.CONFIG_Init,"ax",%progbits
 2992              		.align	2
 2993              		.thumb
 2994              		.thumb_func
 2995              		.type	CONFIG_Init, %function
ARM GAS  C:\Users\PIERRE~1\AppData\Local\Temp\ccqD7qlI.s 			page 75


 2996              	CONFIG_Init:
 2997              	.LFB97:
 611:dwm1000.c     **** 	DWM_Reset();
 2998              		.loc 1 611 0
 2999              		.cfi_startproc
 3000              		@ args = 0, pretend = 0, frame = 0
 3001              		@ frame_needed = 0, uses_anonymous_args = 0
 3002 0000 08B5     		push	{r3, lr}
 3003              		.cfi_def_cfa_offset 8
 3004              		.cfi_offset 3, -8
 3005              		.cfi_offset 14, -4
 612:dwm1000.c     **** 	TRANSMITTER_Init();
 3006              		.loc 1 612 0
 3007 0002 FFF7FEFF 		bl	DWM_Reset
 3008              	.LVL286:
 613:dwm1000.c     **** 	RECEIVER_Init();
 3009              		.loc 1 613 0
 3010 0006 FFF7FEFF 		bl	TRANSMITTER_Init
 3011              	.LVL287:
 614:dwm1000.c     **** 	config.channel = _5;
 3012              		.loc 1 614 0
 3013 000a FFF7FEFF 		bl	RECEIVER_Init
 3014              	.LVL288:
 615:dwm1000.c     **** 	DWM_UpdateChannel();
 3015              		.loc 1 615 0
 3016 000e 0522     		movs	r2, #5
 3017 0010 024B     		ldr	r3, .L282
 3018 0012 9A74     		strb	r2, [r3, #18]
 616:dwm1000.c     **** 
 3019              		.loc 1 616 0
 3020 0014 FFF7FEFF 		bl	DWM_UpdateChannel
 3021              	.LVL289:
 3022 0018 08BD     		pop	{r3, pc}
 3023              	.L283:
 3024 001a 00BF     		.align	2
 3025              	.L282:
 3026 001c 00000000 		.word	.LANCHOR0
 3027              		.cfi_endproc
 3028              	.LFE97:
 3029              		.size	CONFIG_Init, .-CONFIG_Init
 3030              		.section	.text.DWM_Init,"ax",%progbits
 3031              		.align	2
 3032              		.global	DWM_Init
 3033              		.thumb
 3034              		.thumb_func
 3035              		.type	DWM_Init, %function
 3036              	DWM_Init:
 3037              	.LFB98:
 627:dwm1000.c     ****     CONFIG_Init();
 3038              		.loc 1 627 0
 3039              		.cfi_startproc
 3040              		@ args = 0, pretend = 0, frame = 24
 3041              		@ frame_needed = 0, uses_anonymous_args = 0
 3042 0000 30B5     		push	{r4, r5, lr}
 3043              		.cfi_def_cfa_offset 12
 3044              		.cfi_offset 4, -12
 3045              		.cfi_offset 5, -8
ARM GAS  C:\Users\PIERRE~1\AppData\Local\Temp\ccqD7qlI.s 			page 76


 3046              		.cfi_offset 14, -4
 3047 0002 87B0     		sub	sp, sp, #28
 3048              		.cfi_def_cfa_offset 40
 628:dwm1000.c     **** 	uint8_t SPIRxBuffer8[4];
 3049              		.loc 1 628 0
 3050 0004 FFF7FEFF 		bl	CONFIG_Init
 3051              	.LVL290:
 632:dwm1000.c     **** 	uint32_t deviceID =(SPIRxBuffer8[3] << 24) | (SPIRxBuffer8[2] << 16) | (SPIRxBuffer8[1] << 8) | SP
 3052              		.loc 1 632 0
 3053 0008 0423     		movs	r3, #4
 3054 000a 05AA     		add	r2, sp, #20
 3055 000c 4FF6FF71 		movw	r1, #65535
 3056 0010 0020     		movs	r0, #0
 3057 0012 FFF7FEFF 		bl	DWM_ReadSPI_ext
 3058              	.LVL291:
 633:dwm1000.c     ****     if (deviceID != 0xDECA0130){
 3059              		.loc 1 633 0
 3060 0016 9DF81720 		ldrb	r2, [sp, #23]	@ zero_extendqisi2
 3061 001a 9DF81630 		ldrb	r3, [sp, #22]	@ zero_extendqisi2
 3062 001e 1B04     		lsls	r3, r3, #16
 3063 0020 43EA0263 		orr	r3, r3, r2, lsl #24
 3064 0024 9DF81520 		ldrb	r2, [sp, #21]	@ zero_extendqisi2
 3065 0028 43EA0223 		orr	r3, r3, r2, lsl #8
 3066 002c 9DF81420 		ldrb	r2, [sp, #20]	@ zero_extendqisi2
 3067 0030 1343     		orrs	r3, r3, r2
 3068              	.LVL292:
 634:dwm1000.c     **** 		//printf("Wrong DW ID \n");
 3069              		.loc 1 634 0
 3070 0032 4C4A     		ldr	r2, .L290
 3071 0034 9342     		cmp	r3, r2
 3072 0036 03D0     		beq	.L285
 3073              	.LVL293:
 3074              	.L286:
 639:dwm1000.c     **** 		}
 3075              		.loc 1 639 0 discriminator 1
 3076 0038 6420     		movs	r0, #100
 3077 003a FFF7FEFF 		bl	CyDelay
 3078              	.LVL294:
 3079 003e FBE7     		b	.L286
 3080              	.LVL295:
 3081              	.L285:
 648:dwm1000.c     **** 	DWM_WriteSPI_ext(AGC_CTRL, 0x0C, agc_tune2, 4);
 3082              		.loc 1 648 0
 3083 0040 494B     		ldr	r3, .L290+4
 3084              	.LVL296:
 3085 0042 1868     		ldr	r0, [r3]	@ unaligned
 3086 0044 0490     		str	r0, [sp, #16]	@ unaligned
 649:dwm1000.c     **** 
 3087              		.loc 1 649 0
 3088 0046 0423     		movs	r3, #4
 3089 0048 04AA     		add	r2, sp, #16
 3090 004a 0C21     		movs	r1, #12
 3091 004c 2320     		movs	r0, #35
 3092 004e FFF7FEFF 		bl	DWM_WriteSPI_ext
 3093              	.LVL297:
 652:dwm1000.c     **** 	//uint8_t lde_cfg1[] = {0x07};	// NLOS CONFIGURATION
 3094              		.loc 1 652 0
ARM GAS  C:\Users\PIERRE~1\AppData\Local\Temp\ccqD7qlI.s 			page 77


 3095 0052 06AA     		add	r2, sp, #24
 3096 0054 6D23     		movs	r3, #109
 3097 0056 02F80C3D 		strb	r3, [r2, #-12]!
 654:dwm1000.c     **** 
 3098              		.loc 1 654 0
 3099 005a 0123     		movs	r3, #1
 3100 005c 40F60601 		movw	r1, #2054
 3101 0060 2E20     		movs	r0, #46
 3102 0062 FFF7FEFF 		bl	DWM_WriteSPI_ext
 3103              	.LVL298:
 665:dwm1000.c     **** 	DWM_ReadSPI_ext(SYS_MASK, NO_SUB, sysMask, SYS_MASK_LEN);
 3104              		.loc 1 665 0
 3105 0066 0025     		movs	r5, #0
 3106 0068 06AC     		add	r4, sp, #24
 3107 006a 44F8105D 		str	r5, [r4, #-16]!
 666:dwm1000.c     **** 	setBit(sysMask,SYS_MASK_LEN,7,1);// TX OK
 3108              		.loc 1 666 0
 3109 006e 0423     		movs	r3, #4
 3110 0070 2246     		mov	r2, r4
 3111 0072 4FF6FF71 		movw	r1, #65535
 3112 0076 0E20     		movs	r0, #14
 3113 0078 FFF7FEFF 		bl	DWM_ReadSPI_ext
 3114              	.LVL299:
 667:dwm1000.c     **** 	//setBit(sysMask,SYS_MASK_LEN,10,1);// RX OK
 3115              		.loc 1 667 0
 3116 007c 0123     		movs	r3, #1
 3117 007e 0722     		movs	r2, #7
 3118 0080 0421     		movs	r1, #4
 3119 0082 2046     		mov	r0, r4
 3120 0084 FFF7FEFF 		bl	setBit
 3121              	.LVL300:
 669:dwm1000.c     **** 	//setBit(sysMask,SYS_MASK_LEN,14,1);// RX OK
 3122              		.loc 1 669 0
 3123 0088 0123     		movs	r3, #1
 3124 008a 0D22     		movs	r2, #13
 3125 008c 0421     		movs	r1, #4
 3126 008e 2046     		mov	r0, r4
 3127 0090 FFF7FEFF 		bl	setBit
 3128              	.LVL301:
 671:dwm1000.c     **** 	setBit(sysMask,SYS_MASK_LEN,15,1);// RX ERROR
 3129              		.loc 1 671 0
 3130 0094 0123     		movs	r3, #1
 3131 0096 0C22     		movs	r2, #12
 3132 0098 0421     		movs	r1, #4
 3133 009a 2046     		mov	r0, r4
 3134 009c FFF7FEFF 		bl	setBit
 3135              	.LVL302:
 672:dwm1000.c     **** 	setBit(sysMask,SYS_MASK_LEN,16,1);// RX ERROR
 3136              		.loc 1 672 0
 3137 00a0 0123     		movs	r3, #1
 3138 00a2 0F22     		movs	r2, #15
 3139 00a4 0421     		movs	r1, #4
 3140 00a6 2046     		mov	r0, r4
 3141 00a8 FFF7FEFF 		bl	setBit
 3142              	.LVL303:
 673:dwm1000.c     **** 	setBit(sysMask,SYS_MASK_LEN,17,1);// RX TIMEOUT
 3143              		.loc 1 673 0
ARM GAS  C:\Users\PIERRE~1\AppData\Local\Temp\ccqD7qlI.s 			page 78


 3144 00ac 0123     		movs	r3, #1
 3145 00ae 1022     		movs	r2, #16
 3146 00b0 0421     		movs	r1, #4
 3147 00b2 2046     		mov	r0, r4
 3148 00b4 FFF7FEFF 		bl	setBit
 3149              	.LVL304:
 674:dwm1000.c     **** 	setBit(sysMask,SYS_MASK_LEN,18,1);// RX ERROR
 3150              		.loc 1 674 0
 3151 00b8 0123     		movs	r3, #1
 3152 00ba 1122     		movs	r2, #17
 3153 00bc 0421     		movs	r1, #4
 3154 00be 2046     		mov	r0, r4
 3155 00c0 FFF7FEFF 		bl	setBit
 3156              	.LVL305:
 675:dwm1000.c     **** 	setBit(sysMask,SYS_MASK_LEN,21,1);// RX ERROR
 3157              		.loc 1 675 0
 3158 00c4 0123     		movs	r3, #1
 3159 00c6 1222     		movs	r2, #18
 3160 00c8 0421     		movs	r1, #4
 3161 00ca 2046     		mov	r0, r4
 3162 00cc FFF7FEFF 		bl	setBit
 3163              	.LVL306:
 676:dwm1000.c     **** 	setBit(sysMask,SYS_MASK_LEN,26,1);// RX ERROR
 3164              		.loc 1 676 0
 3165 00d0 0123     		movs	r3, #1
 3166 00d2 1522     		movs	r2, #21
 3167 00d4 0421     		movs	r1, #4
 3168 00d6 2046     		mov	r0, r4
 3169 00d8 FFF7FEFF 		bl	setBit
 3170              	.LVL307:
 677:dwm1000.c     **** 	DWM_WriteSPI_ext(SYS_MASK, NO_SUB, sysMask, SYS_MASK_LEN);
 3171              		.loc 1 677 0
 3172 00dc 0123     		movs	r3, #1
 3173 00de 1A22     		movs	r2, #26
 3174 00e0 0421     		movs	r1, #4
 3175 00e2 2046     		mov	r0, r4
 3176 00e4 FFF7FEFF 		bl	setBit
 3177              	.LVL308:
 678:dwm1000.c     ****     
 3178              		.loc 1 678 0
 3179 00e8 0423     		movs	r3, #4
 3180 00ea 2246     		mov	r2, r4
 3181 00ec 4FF6FF71 		movw	r1, #65535
 3182 00f0 0E20     		movs	r0, #14
 3183 00f2 FFF7FEFF 		bl	DWM_WriteSPI_ext
 3184              	.LVL309:
 684:dwm1000.c     ****     delayuint8[0] = (antennaDelay & 0xFF);
 3185              		.loc 1 684 0
 3186 00f6 8023     		movs	r3, #128
 3187 00f8 8DF80530 		strb	r3, [sp, #5]
 685:dwm1000.c     ****     DWM_WriteSPI_ext(TX_ANTD, NO_SUB, delayuint8, 2);
 3188              		.loc 1 685 0
 3189 00fc 06AC     		add	r4, sp, #24
 3190 00fe 9D23     		movs	r3, #157
 3191 0100 04F8143D 		strb	r3, [r4, #-20]!
 686:dwm1000.c     ****     DWM_WriteSPI_ext(LDE_CTRL, 0x1804, delayuint8, 2);
 3192              		.loc 1 686 0
ARM GAS  C:\Users\PIERRE~1\AppData\Local\Temp\ccqD7qlI.s 			page 79


 3193 0104 0223     		movs	r3, #2
 3194 0106 2246     		mov	r2, r4
 3195 0108 4FF6FF71 		movw	r1, #65535
 3196 010c 1820     		movs	r0, #24
 3197 010e FFF7FEFF 		bl	DWM_WriteSPI_ext
 3198              	.LVL310:
 687:dwm1000.c     **** 	
 3199              		.loc 1 687 0
 3200 0112 0223     		movs	r3, #2
 3201 0114 2246     		mov	r2, r4
 3202 0116 41F60401 		movw	r1, #6148
 3203 011a 2E20     		movs	r0, #46
 3204 011c FFF7FEFF 		bl	DWM_WriteSPI_ext
 3205              	.LVL311:
 689:dwm1000.c     **** 	DWM_ReadSPI_ext(DEV_ID, NO_SUB, SPIRxBuffer8, DEV_ID_LEN);
 3206              		.loc 1 689 0
 3207 0120 6420     		movs	r0, #100
 3208 0122 FFF7FEFF 		bl	CyDelay
 3209              	.LVL312:
 690:dwm1000.c     **** 	deviceID =(SPIRxBuffer8[3] << 24) | (SPIRxBuffer8[2] << 16) | (SPIRxBuffer8[1] << 8) | SPIRxBuffer
 3210              		.loc 1 690 0
 3211 0126 0423     		movs	r3, #4
 3212 0128 05AA     		add	r2, sp, #20
 3213 012a 4FF6FF71 		movw	r1, #65535
 3214 012e 2846     		mov	r0, r5
 3215 0130 FFF7FEFF 		bl	DWM_ReadSPI_ext
 3216              	.LVL313:
 691:dwm1000.c     **** 
 3217              		.loc 1 691 0
 3218 0134 9DF81720 		ldrb	r2, [sp, #23]	@ zero_extendqisi2
 3219 0138 9DF81630 		ldrb	r3, [sp, #22]	@ zero_extendqisi2
 3220 013c 1B04     		lsls	r3, r3, #16
 3221 013e 43EA0263 		orr	r3, r3, r2, lsl #24
 3222 0142 9DF81520 		ldrb	r2, [sp, #21]	@ zero_extendqisi2
 3223 0146 43EA0223 		orr	r3, r3, r2, lsl #8
 3224 014a 9DF81420 		ldrb	r2, [sp, #20]	@ zero_extendqisi2
 3225 014e 1343     		orrs	r3, r3, r2
 3226              	.LVL314:
 693:dwm1000.c     **** 		//printf("Wrong DW ID \n");
 3227              		.loc 1 693 0
 3228 0150 044A     		ldr	r2, .L290
 3229 0152 9342     		cmp	r3, r2
 3230 0154 03D0     		beq	.L284
 3231              	.LVL315:
 3232              	.L288:
 698:dwm1000.c     **** 		}
 3233              		.loc 1 698 0 discriminator 1
 3234 0156 6420     		movs	r0, #100
 3235 0158 FFF7FEFF 		bl	CyDelay
 3236              	.LVL316:
 3237 015c FBE7     		b	.L288
 3238              	.LVL317:
 3239              	.L284:
 702:dwm1000.c     **** 	
 3240              		.loc 1 702 0
 3241 015e 07B0     		add	sp, sp, #28
 3242              		.cfi_def_cfa_offset 12
ARM GAS  C:\Users\PIERRE~1\AppData\Local\Temp\ccqD7qlI.s 			page 80


 3243              		@ sp needed
 3244 0160 30BD     		pop	{r4, r5, pc}
 3245              	.L291:
 3246 0162 00BF     		.align	2
 3247              	.L290:
 3248 0164 3001CADE 		.word	-557186768
 3249 0168 00000000 		.word	.LANCHOR1
 3250              		.cfi_endproc
 3251              	.LFE98:
 3252              		.size	DWM_Init, .-DWM_Init
 3253              		.section	.text.idle,"ax",%progbits
 3254              		.align	2
 3255              		.global	idle
 3256              		.thumb
 3257              		.thumb_func
 3258              		.type	idle, %function
 3259              	idle:
 3260              	.LFB99:
 705:dwm1000.c     **** 	// Set the device in IDLE mode
 3261              		.loc 1 705 0
 3262              		.cfi_startproc
 3263              		@ args = 0, pretend = 0, frame = 8
 3264              		@ frame_needed = 0, uses_anonymous_args = 0
 3265 0000 10B5     		push	{r4, lr}
 3266              		.cfi_def_cfa_offset 8
 3267              		.cfi_offset 4, -8
 3268              		.cfi_offset 14, -4
 3269 0002 82B0     		sub	sp, sp, #8
 3270              		.cfi_def_cfa_offset 16
 707:dwm1000.c     **** 	uint8_t ack[4] = {0};
 3271              		.loc 1 707 0
 3272 0004 0023     		movs	r3, #0
 3273 0006 0193     		str	r3, [sp, #4]
 3274 0008 4022     		movs	r2, #64
 3275 000a 8DF80420 		strb	r2, [sp, #4]
 708:dwm1000.c     **** 	// Update the DWM1000 module
 3276              		.loc 1 708 0
 3277 000e 0093     		str	r3, [sp]
 710:dwm1000.c     **** 	IRQ_Disable();
 3278              		.loc 1 710 0
 3279 0010 FFF7FEFF 		bl	IRQ_GetState
 3280              	.LVL318:
 3281 0014 0446     		mov	r4, r0
 3282              	.LVL319:
 711:dwm1000.c     **** 	DWM_WriteSPI_ext(SYS_CTRL, NO_SUB, sysCtrl, 4);
 3283              		.loc 1 711 0
 3284 0016 FFF7FEFF 		bl	IRQ_Disable
 3285              	.LVL320:
 712:dwm1000.c     **** 
 3286              		.loc 1 712 0
 3287 001a 0423     		movs	r3, #4
 3288 001c 0DEB0302 		add	r2, sp, r3
 3289 0020 4FF6FF71 		movw	r1, #65535
 3290 0024 0D20     		movs	r0, #13
 3291 0026 FFF7FEFF 		bl	DWM_WriteSPI_ext
 3292              	.LVL321:
 714:dwm1000.c     **** 	uint32_t Rx_mask = RX_FINISHED_MASK | RX_ERROR_MASK;
ARM GAS  C:\Users\PIERRE~1\AppData\Local\Temp\ccqD7qlI.s 			page 81


 3293              		.loc 1 714 0
 3294 002a 0123     		movs	r3, #1
 3295 002c 0722     		movs	r2, #7
 3296 002e 0421     		movs	r1, #4
 3297 0030 6846     		mov	r0, sp
 3298 0032 FFF7FEFF 		bl	setBit
 3299              	.LVL322:
 717:dwm1000.c     **** 	ack[2] |= Rx_mask >> 16;
 3300              		.loc 1 717 0
 3301 0036 9DF80130 		ldrb	r3, [sp, #1]	@ zero_extendqisi2
 3302 003a 63F00B03 		orn	r3, r3, #11
 3303 003e 8DF80130 		strb	r3, [sp, #1]
 718:dwm1000.c     **** 	ack[3] |= Rx_mask >> 24;
 3304              		.loc 1 718 0
 3305 0042 9DF80230 		ldrb	r3, [sp, #2]	@ zero_extendqisi2
 3306 0046 43F02703 		orr	r3, r3, #39
 3307 004a 8DF80230 		strb	r3, [sp, #2]
 719:dwm1000.c     **** 	// clear IRQ flags on DW
 3308              		.loc 1 719 0
 3309 004e 9DF80330 		ldrb	r3, [sp, #3]	@ zero_extendqisi2
 3310 0052 43F00403 		orr	r3, r3, #4
 3311 0056 8DF80330 		strb	r3, [sp, #3]
 721:dwm1000.c     **** 	if(prim){IRQ_Enable();}
 3312              		.loc 1 721 0
 3313 005a 0423     		movs	r3, #4
 3314 005c 6A46     		mov	r2, sp
 3315 005e 4FF6FF71 		movw	r1, #65535
 3316 0062 0F20     		movs	r0, #15
 3317 0064 FFF7FEFF 		bl	DWM_WriteSPI_ext
 3318              	.LVL323:
 722:dwm1000.c     **** }
 3319              		.loc 1 722 0
 3320 0068 0CB1     		cbz	r4, .L292
 722:dwm1000.c     **** }
 3321              		.loc 1 722 0 is_stmt 0 discriminator 1
 3322 006a FFF7FEFF 		bl	IRQ_Enable
 3323              	.LVL324:
 3324              	.L292:
 723:dwm1000.c     **** 
 3325              		.loc 1 723 0 is_stmt 1
 3326 006e 02B0     		add	sp, sp, #8
 3327              		.cfi_def_cfa_offset 8
 3328              		@ sp needed
 3329 0070 10BD     		pop	{r4, pc}
 3330              		.cfi_endproc
 3331              	.LFE99:
 3332              		.size	idle, .-idle
 3333 0072 00BF     		.section	.text.DWM_Reset_Rx,"ax",%progbits
 3334              		.align	2
 3335              		.global	DWM_Reset_Rx
 3336              		.thumb
 3337              		.thumb_func
 3338              		.type	DWM_Reset_Rx, %function
 3339              	DWM_Reset_Rx:
 3340              	.LFB101:
 761:dwm1000.c     **** 	uint8_t pmscCtrl0[] = {0xE0};
 3341              		.loc 1 761 0
ARM GAS  C:\Users\PIERRE~1\AppData\Local\Temp\ccqD7qlI.s 			page 82


 3342              		.cfi_startproc
 3343              		@ args = 0, pretend = 0, frame = 8
 3344              		@ frame_needed = 0, uses_anonymous_args = 0
 3345 0000 10B5     		push	{r4, lr}
 3346              		.cfi_def_cfa_offset 8
 3347              		.cfi_offset 4, -8
 3348              		.cfi_offset 14, -4
 3349 0002 82B0     		sub	sp, sp, #8
 3350              		.cfi_def_cfa_offset 16
 762:dwm1000.c     **** 	DWM_WriteSPI_ext(PMSC, 0x03, pmscCtrl0, 1);
 3351              		.loc 1 762 0
 3352 0004 02AC     		add	r4, sp, #8
 3353 0006 E023     		movs	r3, #224
 3354 0008 04F8043D 		strb	r3, [r4, #-4]!
 763:dwm1000.c     **** 
 3355              		.loc 1 763 0
 3356 000c 0123     		movs	r3, #1
 3357 000e 2246     		mov	r2, r4
 3358 0010 0321     		movs	r1, #3
 3359 0012 3620     		movs	r0, #54
 3360 0014 FFF7FEFF 		bl	DWM_WriteSPI_ext
 3361              	.LVL325:
 765:dwm1000.c     **** 	DWM_WriteSPI_ext(PMSC, 0x03, pmscCtrl0, 1);
 3362              		.loc 1 765 0
 3363 0018 F023     		movs	r3, #240
 3364 001a 8DF80430 		strb	r3, [sp, #4]
 766:dwm1000.c     **** }
 3365              		.loc 1 766 0
 3366 001e 0123     		movs	r3, #1
 3367 0020 2246     		mov	r2, r4
 3368 0022 0321     		movs	r1, #3
 3369 0024 3620     		movs	r0, #54
 3370 0026 FFF7FEFF 		bl	DWM_WriteSPI_ext
 3371              	.LVL326:
 767:dwm1000.c     **** 
 3372              		.loc 1 767 0
 3373 002a 02B0     		add	sp, sp, #8
 3374              		.cfi_def_cfa_offset 8
 3375              		@ sp needed
 3376 002c 10BD     		pop	{r4, pc}
 3377              		.cfi_endproc
 3378              	.LFE101:
 3379              		.size	DWM_Reset_Rx, .-DWM_Reset_Rx
 3380 002e 00BF     		.section	.text.DWM_Enable_Rx,"ax",%progbits
 3381              		.align	2
 3382              		.global	DWM_Enable_Rx
 3383              		.thumb
 3384              		.thumb_func
 3385              		.type	DWM_Enable_Rx, %function
 3386              	DWM_Enable_Rx:
 3387              	.LFB102:
 769:dwm1000.c     **** 	uint8_t TxBuf8[4] = {0};
 3388              		.loc 1 769 0
 3389              		.cfi_startproc
 3390              		@ args = 0, pretend = 0, frame = 8
 3391              		@ frame_needed = 0, uses_anonymous_args = 0
 3392 0000 10B5     		push	{r4, lr}
ARM GAS  C:\Users\PIERRE~1\AppData\Local\Temp\ccqD7qlI.s 			page 83


 3393              		.cfi_def_cfa_offset 8
 3394              		.cfi_offset 4, -8
 3395              		.cfi_offset 14, -4
 3396 0002 82B0     		sub	sp, sp, #8
 3397              		.cfi_def_cfa_offset 16
 770:dwm1000.c     **** 	setBit(TxBuf8,4,8,1);
 3398              		.loc 1 770 0
 3399 0004 02AC     		add	r4, sp, #8
 3400 0006 0023     		movs	r3, #0
 3401 0008 44F8043D 		str	r3, [r4, #-4]!
 771:dwm1000.c     **** 	DWM_WriteSPI_ext(SYS_CTRL, NO_SUB, TxBuf8, 4);
 3402              		.loc 1 771 0
 3403 000c 0123     		movs	r3, #1
 3404 000e 0822     		movs	r2, #8
 3405 0010 0421     		movs	r1, #4
 3406 0012 2046     		mov	r0, r4
 3407 0014 FFF7FEFF 		bl	setBit
 3408              	.LVL327:
 772:dwm1000.c     **** }
 3409              		.loc 1 772 0
 3410 0018 0423     		movs	r3, #4
 3411 001a 2246     		mov	r2, r4
 3412 001c 4FF6FF71 		movw	r1, #65535
 3413 0020 0D20     		movs	r0, #13
 3414 0022 FFF7FEFF 		bl	DWM_WriteSPI_ext
 3415              	.LVL328:
 773:dwm1000.c     **** 
 3416              		.loc 1 773 0
 3417 0026 02B0     		add	sp, sp, #8
 3418              		.cfi_def_cfa_offset 8
 3419              		@ sp needed
 3420 0028 10BD     		pop	{r4, pc}
 3421              		.cfi_endproc
 3422              	.LFE102:
 3423              		.size	DWM_Enable_Rx, .-DWM_Enable_Rx
 3424 002a 00BF     		.section	.text.DWM_SendData,"ax",%progbits
 3425              		.align	2
 3426              		.global	DWM_SendData
 3427              		.thumb
 3428              		.thumb_func
 3429              		.type	DWM_SendData, %function
 3430              	DWM_SendData:
 3431              	.LFB108:
 879:dwm1000.c     **** /* ------------------------------------- */
 880:dwm1000.c     **** /*  DWM1000 COMMUNICATIONS	             */
 881:dwm1000.c     **** /* ------------------------------------- */
 882:dwm1000.c     **** 
 883:dwm1000.c     **** void DWM_SendData(uint8_t* data, uint8_t len, uint8_t waitResponse){ // data limited to 125 byte lo
 3432              		.loc 1 883 0
 3433              		.cfi_startproc
 3434              		@ args = 0, pretend = 0, frame = 8
 3435              		@ frame_needed = 0, uses_anonymous_args = 0
 3436              	.LVL329:
 3437 0000 30B5     		push	{r4, r5, lr}
 3438              		.cfi_def_cfa_offset 12
 3439              		.cfi_offset 4, -12
 3440              		.cfi_offset 5, -8
ARM GAS  C:\Users\PIERRE~1\AppData\Local\Temp\ccqD7qlI.s 			page 84


 3441              		.cfi_offset 14, -4
 3442 0002 83B0     		sub	sp, sp, #12
 3443              		.cfi_def_cfa_offset 24
 3444 0004 0B46     		mov	r3, r1
 3445 0006 1546     		mov	r5, r2
 884:dwm1000.c     **** 	
 885:dwm1000.c     **** 	uint8_t fctrl = len+2; // FCS is 2-bytes long
 3446              		.loc 1 885 0
 3447 0008 8A1C     		adds	r2, r1, #2
 3448              	.LVL330:
 3449 000a 02AC     		add	r4, sp, #8
 3450 000c 04F8012D 		strb	r2, [r4, #-1]!
 886:dwm1000.c     **** 
 887:dwm1000.c     **** 	DWM_WriteSPI_ext(TX_BUFFER, NO_SUB, data, len);
 3451              		.loc 1 887 0
 3452 0010 0246     		mov	r2, r0
 3453 0012 4FF6FF71 		movw	r1, #65535
 3454              	.LVL331:
 3455 0016 0920     		movs	r0, #9
 3456              	.LVL332:
 3457 0018 FFF7FEFF 		bl	DWM_WriteSPI_ext
 3458              	.LVL333:
 888:dwm1000.c     **** 	DWM_WriteSPI_ext(TX_FCTRL, NO_SUB, &fctrl, 1);	// maj frame length
 3459              		.loc 1 888 0
 3460 001c 0123     		movs	r3, #1
 3461 001e 2246     		mov	r2, r4
 3462 0020 4FF6FF71 		movw	r1, #65535
 3463 0024 0820     		movs	r0, #8
 3464 0026 FFF7FEFF 		bl	DWM_WriteSPI_ext
 3465              	.LVL334:
 889:dwm1000.c     ****     
 890:dwm1000.c     **** 	// START SENDING
 891:dwm1000.c     **** 	uint8_t sysCtrl[4] = {0};
 3466              		.loc 1 891 0
 3467 002a 02AA     		add	r2, sp, #8
 3468 002c 0023     		movs	r3, #0
 3469 002e 42F8083D 		str	r3, [r2, #-8]!
 892:dwm1000.c     ****     
 893:dwm1000.c     **** 	DWM_ReadSPI_ext(SYS_CTRL, NO_SUB, sysCtrl, 1);
 3470              		.loc 1 893 0
 3471 0032 0123     		movs	r3, #1
 3472 0034 4FF6FF71 		movw	r1, #65535
 3473 0038 0D20     		movs	r0, #13
 3474 003a FFF7FEFF 		bl	DWM_ReadSPI_ext
 3475              	.LVL335:
 894:dwm1000.c     ****     
 895:dwm1000.c     **** 	sysCtrl[0] |= 1<<TXSTRT_BIT;
 3476              		.loc 1 895 0
 3477 003e 9DF80030 		ldrb	r3, [sp]	@ zero_extendqisi2
 3478 0042 43F00203 		orr	r3, r3, #2
 896:dwm1000.c     **** 	if(waitResponse){
 3479              		.loc 1 896 0
 3480 0046 25B1     		cbz	r5, .L300
 897:dwm1000.c     **** 	sysCtrl[0] |= 1<<WAIT4RESP_BIT;
 3481              		.loc 1 897 0
 3482 0048 63F07F03 		orn	r3, r3, #127
 3483 004c 8DF80030 		strb	r3, [sp]
ARM GAS  C:\Users\PIERRE~1\AppData\Local\Temp\ccqD7qlI.s 			page 85


 3484 0050 03E0     		b	.L301
 3485              	.L300:
 898:dwm1000.c     **** 	} else {
 899:dwm1000.c     **** 	sysCtrl[0] &= ~(1<<WAIT4RESP_BIT);
 3486              		.loc 1 899 0
 3487 0052 03F07F03 		and	r3, r3, #127
 3488 0056 8DF80030 		strb	r3, [sp]
 3489              	.L301:
 900:dwm1000.c     **** 	}
 901:dwm1000.c     **** 	// Set the device in TX mode
 902:dwm1000.c     **** 	// Update the DWM1000 module
 903:dwm1000.c     **** 	DWM_WriteSPI_ext(SYS_CTRL, NO_SUB, sysCtrl, 4);
 3490              		.loc 1 903 0
 3491 005a 0423     		movs	r3, #4
 3492 005c 6A46     		mov	r2, sp
 3493 005e 4FF6FF71 		movw	r1, #65535
 3494 0062 0D20     		movs	r0, #13
 3495 0064 FFF7FEFF 		bl	DWM_WriteSPI_ext
 3496              	.LVL336:
 904:dwm1000.c     **** }
 3497              		.loc 1 904 0
 3498 0068 03B0     		add	sp, sp, #12
 3499              		.cfi_def_cfa_offset 12
 3500              		@ sp needed
 3501 006a 30BD     		pop	{r4, r5, pc}
 3502              		.cfi_endproc
 3503              	.LFE108:
 3504              		.size	DWM_SendData, .-DWM_SendData
 3505              		.section	.text.DWM_ReceiveData,"ax",%progbits
 3506              		.align	2
 3507              		.global	DWM_ReceiveData
 3508              		.thumb
 3509              		.thumb_func
 3510              		.type	DWM_ReceiveData, %function
 3511              	DWM_ReceiveData:
 3512              	.LFB109:
 905:dwm1000.c     **** 
 906:dwm1000.c     **** void DWM_ReceiveData(uint8_t* buffer){
 3513              		.loc 1 906 0
 3514              		.cfi_startproc
 3515              		@ args = 0, pretend = 0, frame = 8
 3516              		@ frame_needed = 0, uses_anonymous_args = 0
 3517              	.LVL337:
 3518 0000 10B5     		push	{r4, lr}
 3519              		.cfi_def_cfa_offset 8
 3520              		.cfi_offset 4, -8
 3521              		.cfi_offset 14, -4
 3522 0002 82B0     		sub	sp, sp, #8
 3523              		.cfi_def_cfa_offset 16
 3524 0004 0446     		mov	r4, r0
 907:dwm1000.c     **** 	uint8_t flen;
 908:dwm1000.c     **** 	DWM_ReadSPI_ext(RX_FINFO, NO_SUB, &flen, 1);	// Get frame length
 3525              		.loc 1 908 0
 3526 0006 0123     		movs	r3, #1
 3527 0008 0DF10702 		add	r2, sp, #7
 3528 000c 4FF6FF71 		movw	r1, #65535
 3529 0010 1020     		movs	r0, #16
ARM GAS  C:\Users\PIERRE~1\AppData\Local\Temp\ccqD7qlI.s 			page 86


 3530              	.LVL338:
 3531 0012 FFF7FEFF 		bl	DWM_ReadSPI_ext
 3532              	.LVL339:
 909:dwm1000.c     **** 	flen = flen-2; // FCS 2 Byte long	
 3533              		.loc 1 909 0
 3534 0016 9DF80730 		ldrb	r3, [sp, #7]	@ zero_extendqisi2
 3535 001a 023B     		subs	r3, r3, #2
 3536 001c DBB2     		uxtb	r3, r3
 3537 001e 8DF80730 		strb	r3, [sp, #7]
 910:dwm1000.c     **** 	DWM_ReadSPI_ext(RX_BUFFER, NO_SUB, buffer, flen); //reading data
 3538              		.loc 1 910 0
 3539 0022 2246     		mov	r2, r4
 3540 0024 4FF6FF71 		movw	r1, #65535
 3541 0028 1120     		movs	r0, #17
 3542 002a FFF7FEFF 		bl	DWM_ReadSPI_ext
 3543              	.LVL340:
 911:dwm1000.c     ****     if(flen>5){
 3544              		.loc 1 911 0
 3545 002e 9DF80730 		ldrb	r3, [sp, #7]	@ zero_extendqisi2
 3546 0032 052B     		cmp	r3, #5
 3547 0034 16D9     		bls	.L303
 3548              	.LBB2:
 912:dwm1000.c     ****         uint8_t correction=0;
 3549              		.loc 1 912 0
 3550 0036 02AA     		add	r2, sp, #8
 3551 0038 0023     		movs	r3, #0
 3552 003a 02F8023D 		strb	r3, [r2, #-2]!
 913:dwm1000.c     ****         DWM_ReadSPI_ext(RX_BUFFER, NO_SUB, &correction, 1); //reading data
 3553              		.loc 1 913 0
 3554 003e 0123     		movs	r3, #1
 3555 0040 4FF6FF71 		movw	r1, #65535
 3556 0044 1120     		movs	r0, #17
 3557 0046 FFF7FEFF 		bl	DWM_ReadSPI_ext
 3558              	.LVL341:
 914:dwm1000.c     ****         uint8_t dec=13;
 3559              		.loc 1 914 0
 3560 004a 0D23     		movs	r3, #13
 915:dwm1000.c     ****         while(dec!=0){
 3561              		.loc 1 915 0
 3562 004c 05E0     		b	.L305
 3563              	.LVL342:
 3564              	.L306:
 916:dwm1000.c     ****             buffer[dec]=buffer[dec-1];
 3565              		.loc 1 916 0
 3566 004e E218     		adds	r2, r4, r3
 3567 0050 12F8012C 		ldrb	r2, [r2, #-1]	@ zero_extendqisi2
 3568 0054 E254     		strb	r2, [r4, r3]
 917:dwm1000.c     ****             dec=dec-1;
 3569              		.loc 1 917 0
 3570 0056 013B     		subs	r3, r3, #1
 3571              	.LVL343:
 3572 0058 DBB2     		uxtb	r3, r3
 3573              	.LVL344:
 3574              	.L305:
 915:dwm1000.c     ****         while(dec!=0){
 3575              		.loc 1 915 0
 3576 005a 002B     		cmp	r3, #0
ARM GAS  C:\Users\PIERRE~1\AppData\Local\Temp\ccqD7qlI.s 			page 87


 3577 005c F7D1     		bne	.L306
 918:dwm1000.c     ****         }
 919:dwm1000.c     ****         buffer[0]=correction;
 3578              		.loc 1 919 0
 3579 005e 9DF80630 		ldrb	r3, [sp, #6]	@ zero_extendqisi2
 3580              	.LVL345:
 3581 0062 2370     		strb	r3, [r4]
 3582              	.L303:
 3583              	.LBE2:
 920:dwm1000.c     ****     }
 921:dwm1000.c     **** } 
 3584              		.loc 1 921 0
 3585 0064 02B0     		add	sp, sp, #8
 3586              		.cfi_def_cfa_offset 8
 3587              		@ sp needed
 3588 0066 10BD     		pop	{r4, pc}
 3589              		.cfi_endproc
 3590              	.LFE109:
 3591              		.size	DWM_ReceiveData, .-DWM_ReceiveData
 3592              		.section	.rodata
 3593              		.align	2
 3594              		.set	.LANCHOR1,. + 0
 3595              	.LC0:
 3596 0000 07       		.byte	7
 3597 0001 A9       		.byte	-87
 3598 0002 02       		.byte	2
 3599 0003 25       		.byte	37
 3600              		.bss
 3601              		.align	2
 3602              		.set	.LANCHOR0,. + 0
 3603              		.type	config, %object
 3604              		.size	config, 20
 3605              	config:
 3606 0000 00000000 		.space	20
 3606      00000000 
 3606      00000000 
 3606      00000000 
 3606      00000000 
 3607              		.text
 3608              	.Letext0:
 3609              		.file 2 "c:\\program files (x86)\\cypress\\psoc creator\\4.3\\psoc creator\\import\\gnu\\arm\\5.4.
 3610              		.file 3 "c:\\program files (x86)\\cypress\\psoc creator\\4.3\\psoc creator\\import\\gnu\\arm\\5.4.
 3611              		.file 4 "Generated_Source\\PSoC5/cytypes.h"
 3612              		.file 5 "dwm1000.h"
 3613              		.file 6 "Generated_Source\\PSoC5/IRQ.h"
 3614              		.file 7 "Generated_Source\\PSoC5/SPIM.h"
 3615              		.file 8 "Generated_Source\\PSoC5/CyLib.h"
 3616              		.file 9 "Generated_Source\\PSoC5/core_cm3.h"
 3617              		.section	.debug_info,"",%progbits
 3618              	.Ldebug_info0:
 3619 0000 C4200000 		.4byte	0x20c4
 3620 0004 0400     		.2byte	0x4
 3621 0006 00000000 		.4byte	.Ldebug_abbrev0
 3622 000a 04       		.byte	0x4
 3623 000b 01       		.uleb128 0x1
 3624 000c 56020000 		.4byte	.LASF147
 3625 0010 0C       		.byte	0xc
ARM GAS  C:\Users\PIERRE~1\AppData\Local\Temp\ccqD7qlI.s 			page 88


 3626 0011 4F040000 		.4byte	.LASF148
 3627 0015 92000000 		.4byte	.LASF149
 3628 0019 00000000 		.4byte	.Ldebug_ranges0+0
 3629 001d 00000000 		.4byte	0
 3630 0021 00000000 		.4byte	.Ldebug_line0
 3631 0025 02       		.uleb128 0x2
 3632 0026 01       		.byte	0x1
 3633 0027 06       		.byte	0x6
 3634 0028 75070000 		.4byte	.LASF0
 3635 002c 03       		.uleb128 0x3
 3636 002d 59060000 		.4byte	.LASF3
 3637 0031 02       		.byte	0x2
 3638 0032 1D       		.byte	0x1d
 3639 0033 37000000 		.4byte	0x37
 3640 0037 02       		.uleb128 0x2
 3641 0038 01       		.byte	0x1
 3642 0039 08       		.byte	0x8
 3643 003a C5060000 		.4byte	.LASF1
 3644 003e 02       		.uleb128 0x2
 3645 003f 02       		.byte	0x2
 3646 0040 05       		.byte	0x5
 3647 0041 DA050000 		.4byte	.LASF2
 3648 0045 03       		.uleb128 0x3
 3649 0046 1A020000 		.4byte	.LASF4
 3650 004a 02       		.byte	0x2
 3651 004b 2B       		.byte	0x2b
 3652 004c 50000000 		.4byte	0x50
 3653 0050 02       		.uleb128 0x2
 3654 0051 02       		.byte	0x2
 3655 0052 07       		.byte	0x7
 3656 0053 96070000 		.4byte	.LASF5
 3657 0057 03       		.uleb128 0x3
 3658 0058 FB000000 		.4byte	.LASF6
 3659 005c 02       		.byte	0x2
 3660 005d 3F       		.byte	0x3f
 3661 005e 62000000 		.4byte	0x62
 3662 0062 02       		.uleb128 0x2
 3663 0063 04       		.byte	0x4
 3664 0064 05       		.byte	0x5
 3665 0065 EA050000 		.4byte	.LASF7
 3666 0069 03       		.uleb128 0x3
 3667 006a E2060000 		.4byte	.LASF8
 3668 006e 02       		.byte	0x2
 3669 006f 41       		.byte	0x41
 3670 0070 74000000 		.4byte	0x74
 3671 0074 02       		.uleb128 0x2
 3672 0075 04       		.byte	0x4
 3673 0076 07       		.byte	0x7
 3674 0077 74060000 		.4byte	.LASF9
 3675 007b 02       		.uleb128 0x2
 3676 007c 08       		.byte	0x8
 3677 007d 05       		.byte	0x5
 3678 007e 5F040000 		.4byte	.LASF10
 3679 0082 02       		.uleb128 0x2
 3680 0083 08       		.byte	0x8
 3681 0084 07       		.byte	0x7
 3682 0085 D0010000 		.4byte	.LASF11
ARM GAS  C:\Users\PIERRE~1\AppData\Local\Temp\ccqD7qlI.s 			page 89


 3683 0089 04       		.uleb128 0x4
 3684 008a 04       		.byte	0x4
 3685 008b 05       		.byte	0x5
 3686 008c 696E7400 		.ascii	"int\000"
 3687 0090 02       		.uleb128 0x2
 3688 0091 04       		.byte	0x4
 3689 0092 07       		.byte	0x7
 3690 0093 EE000000 		.4byte	.LASF12
 3691 0097 03       		.uleb128 0x3
 3692 0098 16040000 		.4byte	.LASF13
 3693 009c 03       		.byte	0x3
 3694 009d 18       		.byte	0x18
 3695 009e 2C000000 		.4byte	0x2c
 3696 00a2 03       		.uleb128 0x3
 3697 00a3 9C050000 		.4byte	.LASF14
 3698 00a7 03       		.byte	0x3
 3699 00a8 24       		.byte	0x24
 3700 00a9 45000000 		.4byte	0x45
 3701 00ad 03       		.uleb128 0x3
 3702 00ae A5060000 		.4byte	.LASF15
 3703 00b2 03       		.byte	0x3
 3704 00b3 2C       		.byte	0x2c
 3705 00b4 57000000 		.4byte	0x57
 3706 00b8 03       		.uleb128 0x3
 3707 00b9 BB010000 		.4byte	.LASF16
 3708 00bd 03       		.byte	0x3
 3709 00be 30       		.byte	0x30
 3710 00bf 69000000 		.4byte	0x69
 3711 00c3 02       		.uleb128 0x2
 3712 00c4 08       		.byte	0x8
 3713 00c5 04       		.byte	0x4
 3714 00c6 90050000 		.4byte	.LASF17
 3715 00ca 02       		.uleb128 0x2
 3716 00cb 04       		.byte	0x4
 3717 00cc 07       		.byte	0x7
 3718 00cd 6B060000 		.4byte	.LASF18
 3719 00d1 02       		.uleb128 0x2
 3720 00d2 01       		.byte	0x1
 3721 00d3 08       		.byte	0x8
 3722 00d4 8B030000 		.4byte	.LASF19
 3723 00d8 02       		.uleb128 0x2
 3724 00d9 08       		.byte	0x8
 3725 00da 04       		.byte	0x4
 3726 00db EA070000 		.4byte	.LASF20
 3727 00df 02       		.uleb128 0x2
 3728 00e0 04       		.byte	0x4
 3729 00e1 04       		.byte	0x4
 3730 00e2 C4010000 		.4byte	.LASF21
 3731 00e6 05       		.uleb128 0x5
 3732 00e7 E4070000 		.4byte	.LASF22
 3733 00eb 04       		.byte	0x4
 3734 00ec E401     		.2byte	0x1e4
 3735 00ee 37000000 		.4byte	0x37
 3736 00f2 06       		.uleb128 0x6
 3737 00f3 4E020000 		.4byte	.LASF23
 3738 00f7 01       		.byte	0x1
 3739 00f8 37000000 		.4byte	0x37
ARM GAS  C:\Users\PIERRE~1\AppData\Local\Temp\ccqD7qlI.s 			page 90


 3740 00fc 05       		.byte	0x5
 3741 00fd 62       		.byte	0x62
 3742 00fe 21010000 		.4byte	0x121
 3743 0102 07       		.uleb128 0x7
 3744 0103 5F3100   		.ascii	"_1\000"
 3745 0106 01       		.byte	0x1
 3746 0107 07       		.uleb128 0x7
 3747 0108 5F3200   		.ascii	"_2\000"
 3748 010b 02       		.byte	0x2
 3749 010c 07       		.uleb128 0x7
 3750 010d 5F3300   		.ascii	"_3\000"
 3751 0110 03       		.byte	0x3
 3752 0111 07       		.uleb128 0x7
 3753 0112 5F3400   		.ascii	"_4\000"
 3754 0115 04       		.byte	0x4
 3755 0116 07       		.uleb128 0x7
 3756 0117 5F3500   		.ascii	"_5\000"
 3757 011a 05       		.byte	0x5
 3758 011b 07       		.uleb128 0x7
 3759 011c 5F3700   		.ascii	"_7\000"
 3760 011f 07       		.byte	0x7
 3761 0120 00       		.byte	0
 3762 0121 08       		.uleb128 0x8
 3763 0122 50524600 		.ascii	"PRF\000"
 3764 0126 01       		.byte	0x1
 3765 0127 37000000 		.4byte	0x37
 3766 012b 05       		.byte	0x5
 3767 012c 64       		.byte	0x64
 3768 012d 3E010000 		.4byte	0x13e
 3769 0131 09       		.uleb128 0x9
 3770 0132 B9030000 		.4byte	.LASF24
 3771 0136 01       		.byte	0x1
 3772 0137 09       		.uleb128 0x9
 3773 0138 B6040000 		.4byte	.LASF25
 3774 013c 02       		.byte	0x2
 3775 013d 00       		.byte	0
 3776 013e 06       		.uleb128 0x6
 3777 013f 13070000 		.4byte	.LASF26
 3778 0143 01       		.byte	0x1
 3779 0144 37000000 		.4byte	0x37
 3780 0148 05       		.byte	0x5
 3781 0149 66       		.byte	0x66
 3782 014a 61010000 		.4byte	0x161
 3783 014e 09       		.uleb128 0x9
 3784 014f 34000000 		.4byte	.LASF27
 3785 0153 00       		.byte	0
 3786 0154 09       		.uleb128 0x9
 3787 0155 1A030000 		.4byte	.LASF28
 3788 0159 01       		.byte	0x1
 3789 015a 09       		.uleb128 0x9
 3790 015b 23030000 		.4byte	.LASF29
 3791 015f 02       		.byte	0x2
 3792 0160 00       		.byte	0
 3793 0161 08       		.uleb128 0x8
 3794 0162 504500   		.ascii	"PE\000"
 3795 0165 01       		.byte	0x1
 3796 0166 37000000 		.4byte	0x37
ARM GAS  C:\Users\PIERRE~1\AppData\Local\Temp\ccqD7qlI.s 			page 91


 3797 016a 05       		.byte	0x5
 3798 016b 68       		.byte	0x68
 3799 016c A1010000 		.4byte	0x1a1
 3800 0170 07       		.uleb128 0x7
 3801 0171 5F363400 		.ascii	"_64\000"
 3802 0175 01       		.byte	0x1
 3803 0176 09       		.uleb128 0x9
 3804 0177 5D010000 		.4byte	.LASF30
 3805 017b 05       		.byte	0x5
 3806 017c 09       		.uleb128 0x9
 3807 017d 33060000 		.4byte	.LASF31
 3808 0181 09       		.byte	0x9
 3809 0182 09       		.uleb128 0x9
 3810 0183 C4050000 		.4byte	.LASF32
 3811 0187 0D       		.byte	0xd
 3812 0188 09       		.uleb128 0x9
 3813 0189 59040000 		.4byte	.LASF33
 3814 018d 02       		.byte	0x2
 3815 018e 09       		.uleb128 0x9
 3816 018f BD040000 		.4byte	.LASF34
 3817 0193 06       		.byte	0x6
 3818 0194 09       		.uleb128 0x9
 3819 0195 8E040000 		.4byte	.LASF35
 3820 0199 0A       		.byte	0xa
 3821 019a 09       		.uleb128 0x9
 3822 019b E4050000 		.4byte	.LASF36
 3823 019f 03       		.byte	0x3
 3824 01a0 00       		.byte	0
 3825 01a1 0A       		.uleb128 0xa
 3826 01a2 AD060000 		.4byte	.LASF41
 3827 01a6 05       		.byte	0x5
 3828 01a7 01       		.byte	0x1
 3829 01a8 1E       		.byte	0x1e
 3830 01a9 EA010000 		.4byte	0x1ea
 3831 01ad 0B       		.uleb128 0xb
 3832 01ae AE050000 		.4byte	.LASF37
 3833 01b2 01       		.byte	0x1
 3834 01b3 1F       		.byte	0x1f
 3835 01b4 F2000000 		.4byte	0xf2
 3836 01b8 00       		.byte	0
 3837 01b9 0B       		.uleb128 0xb
 3838 01ba F4010000 		.4byte	.LASF38
 3839 01be 01       		.byte	0x1
 3840 01bf 20       		.byte	0x20
 3841 01c0 97000000 		.4byte	0x97
 3842 01c4 01       		.byte	0x1
 3843 01c5 0B       		.uleb128 0xb
 3844 01c6 D7040000 		.4byte	.LASF39
 3845 01ca 01       		.byte	0x1
 3846 01cb 21       		.byte	0x21
 3847 01cc 61010000 		.4byte	0x161
 3848 01d0 02       		.byte	0x2
 3849 01d1 0B       		.uleb128 0xb
 3850 01d2 63060000 		.4byte	.LASF40
 3851 01d6 01       		.byte	0x1
 3852 01d7 22       		.byte	0x22
 3853 01d8 3E010000 		.4byte	0x13e
ARM GAS  C:\Users\PIERRE~1\AppData\Local\Temp\ccqD7qlI.s 			page 92


 3854 01dc 03       		.byte	0x3
 3855 01dd 0C       		.uleb128 0xc
 3856 01de 70726600 		.ascii	"prf\000"
 3857 01e2 01       		.byte	0x1
 3858 01e3 23       		.byte	0x23
 3859 01e4 21010000 		.4byte	0x121
 3860 01e8 04       		.byte	0x4
 3861 01e9 00       		.byte	0
 3862 01ea 0A       		.uleb128 0xa
 3863 01eb 01020000 		.4byte	.LASF42
 3864 01ef 05       		.byte	0x5
 3865 01f0 01       		.byte	0x1
 3866 01f1 26       		.byte	0x26
 3867 01f2 03020000 		.4byte	0x203
 3868 01f6 0B       		.uleb128 0xb
 3869 01f7 AE050000 		.4byte	.LASF37
 3870 01fb 01       		.byte	0x1
 3871 01fc 27       		.byte	0x27
 3872 01fd A1010000 		.4byte	0x1a1
 3873 0201 00       		.byte	0
 3874 0202 00       		.byte	0
 3875 0203 0A       		.uleb128 0xa
 3876 0204 66030000 		.4byte	.LASF43
 3877 0208 0C       		.byte	0xc
 3878 0209 01       		.byte	0x1
 3879 020a 2A       		.byte	0x2a
 3880 020b 40020000 		.4byte	0x240
 3881 020f 0B       		.uleb128 0xb
 3882 0210 AE050000 		.4byte	.LASF37
 3883 0214 01       		.byte	0x1
 3884 0215 2B       		.byte	0x2b
 3885 0216 A1010000 		.4byte	0x1a1
 3886 021a 00       		.byte	0
 3887 021b 0B       		.uleb128 0xb
 3888 021c 3D040000 		.4byte	.LASF44
 3889 0220 01       		.byte	0x1
 3890 0221 2C       		.byte	0x2c
 3891 0222 A2000000 		.4byte	0xa2
 3892 0226 06       		.byte	0x6
 3893 0227 0C       		.uleb128 0xc
 3894 0228 70616300 		.ascii	"pac\000"
 3895 022c 01       		.byte	0x1
 3896 022d 2D       		.byte	0x2d
 3897 022e A2000000 		.4byte	0xa2
 3898 0232 08       		.byte	0x8
 3899 0233 0C       		.uleb128 0xc
 3900 0234 73666400 		.ascii	"sfd\000"
 3901 0238 01       		.byte	0x1
 3902 0239 2E       		.byte	0x2e
 3903 023a A2000000 		.4byte	0xa2
 3904 023e 0A       		.byte	0xa
 3905 023f 00       		.byte	0
 3906 0240 0A       		.uleb128 0xa
 3907 0241 47020000 		.4byte	.LASF45
 3908 0245 14       		.byte	0x14
 3909 0246 01       		.byte	0x1
 3910 0247 31       		.byte	0x31
ARM GAS  C:\Users\PIERRE~1\AppData\Local\Temp\ccqD7qlI.s 			page 93


 3911 0248 71020000 		.4byte	0x271
 3912 024c 0B       		.uleb128 0xb
 3913 024d 00060000 		.4byte	.LASF46
 3914 0251 01       		.byte	0x1
 3915 0252 32       		.byte	0x32
 3916 0253 EA010000 		.4byte	0x1ea
 3917 0257 00       		.byte	0
 3918 0258 0B       		.uleb128 0xb
 3919 0259 7F000000 		.4byte	.LASF47
 3920 025d 01       		.byte	0x1
 3921 025e 33       		.byte	0x33
 3922 025f 03020000 		.4byte	0x203
 3923 0263 06       		.byte	0x6
 3924 0264 0B       		.uleb128 0xb
 3925 0265 AE050000 		.4byte	.LASF37
 3926 0269 01       		.byte	0x1
 3927 026a 34       		.byte	0x34
 3928 026b F2000000 		.4byte	0xf2
 3929 026f 12       		.byte	0x12
 3930 0270 00       		.byte	0
 3931 0271 0D       		.uleb128 0xd
 3932 0272 13080000 		.4byte	.LASF48
 3933 0276 01       		.byte	0x1
 3934 0277 37       		.byte	0x37
 3935 0278 97000000 		.4byte	0x97
 3936 027c 00000000 		.4byte	.LFB63
 3937 0280 8E000000 		.4byte	.LFE63-.LFB63
 3938 0284 01       		.uleb128 0x1
 3939 0285 9C       		.byte	0x9c
 3940 0286 A9020000 		.4byte	0x2a9
 3941 028a 0E       		.uleb128 0xe
 3942 028b AE050000 		.4byte	.LASF37
 3943 028f 01       		.byte	0x1
 3944 0290 37       		.byte	0x37
 3945 0291 A9020000 		.4byte	0x2a9
 3946 0295 00000000 		.4byte	.LLST0
 3947 0299 0E       		.uleb128 0xe
 3948 029a F4010000 		.4byte	.LASF38
 3949 029e 01       		.byte	0x1
 3950 029f 37       		.byte	0x37
 3951 02a0 97000000 		.4byte	0x97
 3952 02a4 21000000 		.4byte	.LLST1
 3953 02a8 00       		.byte	0
 3954 02a9 0F       		.uleb128 0xf
 3955 02aa 04       		.byte	0x4
 3956 02ab A1010000 		.4byte	0x1a1
 3957 02af 0D       		.uleb128 0xd
 3958 02b0 49050000 		.4byte	.LASF49
 3959 02b4 01       		.byte	0x1
 3960 02b5 63       		.byte	0x63
 3961 02b6 89000000 		.4byte	0x89
 3962 02ba 00000000 		.4byte	.LFB64
 3963 02be 12000000 		.4byte	.LFE64-.LFB64
 3964 02c2 01       		.uleb128 0x1
 3965 02c3 9C       		.byte	0x9c
 3966 02c4 FE020000 		.4byte	0x2fe
 3967 02c8 0E       		.uleb128 0xe
ARM GAS  C:\Users\PIERRE~1\AppData\Local\Temp\ccqD7qlI.s 			page 94


 3968 02c9 AE050000 		.4byte	.LASF37
 3969 02cd 01       		.byte	0x1
 3970 02ce 63       		.byte	0x63
 3971 02cf A9020000 		.4byte	0x2a9
 3972 02d3 B1000000 		.4byte	.LLST2
 3973 02d7 0E       		.uleb128 0xe
 3974 02d8 F4010000 		.4byte	.LASF38
 3975 02dc 01       		.byte	0x1
 3976 02dd 63       		.byte	0x63
 3977 02de 97000000 		.4byte	0x97
 3978 02e2 D2000000 		.4byte	.LLST3
 3979 02e6 10       		.uleb128 0x10
 3980 02e7 08000000 		.4byte	.LVL14
 3981 02eb 71020000 		.4byte	0x271
 3982 02ef 11       		.uleb128 0x11
 3983 02f0 01       		.uleb128 0x1
 3984 02f1 50       		.byte	0x50
 3985 02f2 03       		.uleb128 0x3
 3986 02f3 F3       		.byte	0xf3
 3987 02f4 01       		.uleb128 0x1
 3988 02f5 50       		.byte	0x50
 3989 02f6 11       		.uleb128 0x11
 3990 02f7 01       		.uleb128 0x1
 3991 02f8 51       		.byte	0x51
 3992 02f9 02       		.uleb128 0x2
 3993 02fa 74       		.byte	0x74
 3994 02fb 00       		.sleb128 0
 3995 02fc 00       		.byte	0
 3996 02fd 00       		.byte	0
 3997 02fe 0D       		.uleb128 0xd
 3998 02ff 25020000 		.4byte	.LASF50
 3999 0303 01       		.byte	0x1
 4000 0304 67       		.byte	0x67
 4001 0305 61010000 		.4byte	0x161
 4002 0309 00000000 		.4byte	.LFB65
 4003 030d 40000000 		.4byte	.LFE65-.LFB65
 4004 0311 01       		.uleb128 0x1
 4005 0312 9C       		.byte	0x9c
 4006 0313 36030000 		.4byte	0x336
 4007 0317 0E       		.uleb128 0xe
 4008 0318 AE050000 		.4byte	.LASF37
 4009 031c 01       		.byte	0x1
 4010 031d 67       		.byte	0x67
 4011 031e A9020000 		.4byte	0x2a9
 4012 0322 F3000000 		.4byte	.LLST4
 4013 0326 0E       		.uleb128 0xe
 4014 0327 D7040000 		.4byte	.LASF39
 4015 032b 01       		.byte	0x1
 4016 032c 67       		.byte	0x67
 4017 032d 61010000 		.4byte	0x161
 4018 0331 14010000 		.4byte	.LLST5
 4019 0335 00       		.byte	0
 4020 0336 0D       		.uleb128 0xd
 4021 0337 59070000 		.4byte	.LASF51
 4022 033b 01       		.byte	0x1
 4023 033c 83       		.byte	0x83
 4024 033d 89000000 		.4byte	0x89
ARM GAS  C:\Users\PIERRE~1\AppData\Local\Temp\ccqD7qlI.s 			page 95


 4025 0341 00000000 		.4byte	.LFB66
 4026 0345 12000000 		.4byte	.LFE66-.LFB66
 4027 0349 01       		.uleb128 0x1
 4028 034a 9C       		.byte	0x9c
 4029 034b 85030000 		.4byte	0x385
 4030 034f 0E       		.uleb128 0xe
 4031 0350 AE050000 		.4byte	.LASF37
 4032 0354 01       		.byte	0x1
 4033 0355 83       		.byte	0x83
 4034 0356 A9020000 		.4byte	0x2a9
 4035 035a 70010000 		.4byte	.LLST6
 4036 035e 0E       		.uleb128 0xe
 4037 035f D7040000 		.4byte	.LASF39
 4038 0363 01       		.byte	0x1
 4039 0364 83       		.byte	0x83
 4040 0365 61010000 		.4byte	0x161
 4041 0369 91010000 		.4byte	.LLST7
 4042 036d 10       		.uleb128 0x10
 4043 036e 08000000 		.4byte	.LVL25
 4044 0372 FE020000 		.4byte	0x2fe
 4045 0376 11       		.uleb128 0x11
 4046 0377 01       		.uleb128 0x1
 4047 0378 50       		.byte	0x50
 4048 0379 03       		.uleb128 0x3
 4049 037a F3       		.byte	0xf3
 4050 037b 01       		.uleb128 0x1
 4051 037c 50       		.byte	0x50
 4052 037d 11       		.uleb128 0x11
 4053 037e 01       		.uleb128 0x1
 4054 037f 51       		.byte	0x51
 4055 0380 02       		.uleb128 0x2
 4056 0381 74       		.byte	0x74
 4057 0382 00       		.sleb128 0
 4058 0383 00       		.byte	0
 4059 0384 00       		.byte	0
 4060 0385 12       		.uleb128 0x12
 4061 0386 81040000 		.4byte	.LASF81
 4062 038a 01       		.byte	0x1
 4063 038b A2       		.byte	0xa2
 4064 038c 00000000 		.4byte	.LFB68
 4065 0390 24000000 		.4byte	.LFE68-.LFB68
 4066 0394 01       		.uleb128 0x1
 4067 0395 9C       		.byte	0x9c
 4068 0396 D9030000 		.4byte	0x3d9
 4069 039a 0E       		.uleb128 0xe
 4070 039b AE050000 		.4byte	.LASF37
 4071 039f 01       		.byte	0x1
 4072 03a0 A2       		.byte	0xa2
 4073 03a1 A9020000 		.4byte	0x2a9
 4074 03a5 B2010000 		.4byte	.LLST8
 4075 03a9 13       		.uleb128 0x13
 4076 03aa 16000000 		.4byte	.LVL27
 4077 03ae 71020000 		.4byte	0x271
 4078 03b2 C2030000 		.4byte	0x3c2
 4079 03b6 11       		.uleb128 0x11
 4080 03b7 01       		.uleb128 0x1
 4081 03b8 50       		.byte	0x50
ARM GAS  C:\Users\PIERRE~1\AppData\Local\Temp\ccqD7qlI.s 			page 96


 4082 03b9 02       		.uleb128 0x2
 4083 03ba 74       		.byte	0x74
 4084 03bb 00       		.sleb128 0
 4085 03bc 11       		.uleb128 0x11
 4086 03bd 01       		.uleb128 0x1
 4087 03be 51       		.byte	0x51
 4088 03bf 01       		.uleb128 0x1
 4089 03c0 34       		.byte	0x34
 4090 03c1 00       		.byte	0
 4091 03c2 10       		.uleb128 0x10
 4092 03c3 20000000 		.4byte	.LVL28
 4093 03c7 FE020000 		.4byte	0x2fe
 4094 03cb 11       		.uleb128 0x11
 4095 03cc 01       		.uleb128 0x1
 4096 03cd 50       		.byte	0x50
 4097 03ce 02       		.uleb128 0x2
 4098 03cf 74       		.byte	0x74
 4099 03d0 00       		.sleb128 0
 4100 03d1 11       		.uleb128 0x11
 4101 03d2 01       		.uleb128 0x1
 4102 03d3 51       		.byte	0x51
 4103 03d4 02       		.uleb128 0x2
 4104 03d5 75       		.byte	0x75
 4105 03d6 00       		.sleb128 0
 4106 03d7 00       		.byte	0
 4107 03d8 00       		.byte	0
 4108 03d9 14       		.uleb128 0x14
 4109 03da 2D000000 		.4byte	.LASF55
 4110 03de 01       		.byte	0x1
 4111 03df 0B03     		.2byte	0x30b
 4112 03e1 00000000 		.4byte	.LFB103
 4113 03e5 30000000 		.4byte	.LFE103-.LFB103
 4114 03e9 01       		.uleb128 0x1
 4115 03ea 9C       		.byte	0x9c
 4116 03eb 5C040000 		.4byte	0x45c
 4117 03ef 15       		.uleb128 0x15
 4118 03f0 C7030000 		.4byte	.LASF52
 4119 03f4 01       		.byte	0x1
 4120 03f5 0B03     		.2byte	0x30b
 4121 03f7 5C040000 		.4byte	0x45c
 4122 03fb 01       		.uleb128 0x1
 4123 03fc 50       		.byte	0x50
 4124 03fd 16       		.uleb128 0x16
 4125 03fe 6C656E00 		.ascii	"len\000"
 4126 0402 01       		.byte	0x1
 4127 0403 0B03     		.2byte	0x30b
 4128 0405 A2000000 		.4byte	0xa2
 4129 0409 01       		.uleb128 0x1
 4130 040a 51       		.byte	0x51
 4131 040b 17       		.uleb128 0x17
 4132 040c 62697400 		.ascii	"bit\000"
 4133 0410 01       		.byte	0x1
 4134 0411 0B03     		.2byte	0x30b
 4135 0413 97000000 		.4byte	0x97
 4136 0417 D0010000 		.4byte	.LLST9
 4137 041b 17       		.uleb128 0x17
 4138 041c 76616C00 		.ascii	"val\000"
ARM GAS  C:\Users\PIERRE~1\AppData\Local\Temp\ccqD7qlI.s 			page 97


 4139 0420 01       		.byte	0x1
 4140 0421 0B03     		.2byte	0x30b
 4141 0423 97000000 		.4byte	0x97
 4142 0427 F1010000 		.4byte	.LLST10
 4143 042b 18       		.uleb128 0x18
 4144 042c 69647800 		.ascii	"idx\000"
 4145 0430 01       		.byte	0x1
 4146 0431 0C03     		.2byte	0x30c
 4147 0433 A2000000 		.4byte	0xa2
 4148 0437 2B020000 		.4byte	.LLST11
 4149 043b 19       		.uleb128 0x19
 4150 043c CA010000 		.4byte	.LASF53
 4151 0440 01       		.byte	0x1
 4152 0441 0D03     		.2byte	0x30d
 4153 0443 97000000 		.4byte	0x97
 4154 0447 3E020000 		.4byte	.LLST12
 4155 044b 19       		.uleb128 0x19
 4156 044c 34070000 		.4byte	.LASF54
 4157 0450 01       		.byte	0x1
 4158 0451 1203     		.2byte	0x312
 4159 0453 5C040000 		.4byte	0x45c
 4160 0457 5C020000 		.4byte	.LLST13
 4161 045b 00       		.byte	0
 4162 045c 0F       		.uleb128 0xf
 4163 045d 04       		.byte	0x4
 4164 045e 97000000 		.4byte	0x97
 4165 0462 14       		.uleb128 0x14
 4166 0463 D0050000 		.4byte	.LASF56
 4167 0467 01       		.byte	0x1
 4168 0468 1B03     		.2byte	0x31b
 4169 046a 00000000 		.4byte	.LFB104
 4170 046e 10000000 		.4byte	.LFE104-.LFB104
 4171 0472 01       		.uleb128 0x1
 4172 0473 9C       		.byte	0x9c
 4173 0474 97040000 		.4byte	0x497
 4174 0478 1A       		.uleb128 0x1a
 4175 0479 51060000 		.4byte	.LASF57
 4176 047d 01       		.byte	0x1
 4177 047e 1B03     		.2byte	0x31b
 4178 0480 97040000 		.4byte	0x497
 4179 0484 74020000 		.4byte	.LLST14
 4180 0488 15       		.uleb128 0x15
 4181 0489 C7030000 		.4byte	.LASF52
 4182 048d 01       		.byte	0x1
 4183 048e 1B03     		.2byte	0x31b
 4184 0490 5C040000 		.4byte	0x45c
 4185 0494 01       		.uleb128 0x1
 4186 0495 51       		.byte	0x51
 4187 0496 00       		.byte	0
 4188 0497 1B       		.uleb128 0x1b
 4189 0498 B8000000 		.4byte	0xb8
 4190 049c 14       		.uleb128 0x14
 4191 049d 5A030000 		.4byte	.LASF58
 4192 04a1 01       		.byte	0x1
 4193 04a2 2203     		.2byte	0x322
 4194 04a4 00000000 		.4byte	.LFB105
 4195 04a8 08000000 		.4byte	.LFE105-.LFB105
ARM GAS  C:\Users\PIERRE~1\AppData\Local\Temp\ccqD7qlI.s 			page 98


 4196 04ac 01       		.uleb128 0x1
 4197 04ad 9C       		.byte	0x9c
 4198 04ae D1040000 		.4byte	0x4d1
 4199 04b2 1A       		.uleb128 0x1a
 4200 04b3 88000000 		.4byte	.LASF59
 4201 04b7 01       		.byte	0x1
 4202 04b8 2203     		.2byte	0x322
 4203 04ba D1040000 		.4byte	0x4d1
 4204 04be 95020000 		.4byte	.LLST15
 4205 04c2 15       		.uleb128 0x15
 4206 04c3 C7030000 		.4byte	.LASF52
 4207 04c7 01       		.byte	0x1
 4208 04c8 2203     		.2byte	0x322
 4209 04ca 5C040000 		.4byte	0x45c
 4210 04ce 01       		.uleb128 0x1
 4211 04cf 51       		.byte	0x51
 4212 04d0 00       		.byte	0
 4213 04d1 1B       		.uleb128 0x1b
 4214 04d2 A2000000 		.4byte	0xa2
 4215 04d6 14       		.uleb128 0x14
 4216 04d7 62010000 		.4byte	.LASF60
 4217 04db 01       		.byte	0x1
 4218 04dc 2B03     		.2byte	0x32b
 4219 04de 00000000 		.4byte	.LFB106
 4220 04e2 C0000000 		.4byte	.LFE106-.LFB106
 4221 04e6 01       		.uleb128 0x1
 4222 04e7 9C       		.byte	0x9c
 4223 04e8 CD050000 		.4byte	0x5cd
 4224 04ec 1A       		.uleb128 0x1a
 4225 04ed 86060000 		.4byte	.LASF61
 4226 04f1 01       		.byte	0x1
 4227 04f2 2B03     		.2byte	0x32b
 4228 04f4 97000000 		.4byte	0x97
 4229 04f8 B6020000 		.4byte	.LLST16
 4230 04fc 1A       		.uleb128 0x1a
 4231 04fd 2D030000 		.4byte	.LASF62
 4232 0501 01       		.byte	0x1
 4233 0502 2B03     		.2byte	0x32b
 4234 0504 A2000000 		.4byte	0xa2
 4235 0508 D7020000 		.4byte	.LLST17
 4236 050c 1A       		.uleb128 0x1a
 4237 050d C7030000 		.4byte	.LASF52
 4238 0511 01       		.byte	0x1
 4239 0512 2B03     		.2byte	0x32b
 4240 0514 5C040000 		.4byte	0x45c
 4241 0518 F8020000 		.4byte	.LLST18
 4242 051c 17       		.uleb128 0x17
 4243 051d 6C656E00 		.ascii	"len\000"
 4244 0521 01       		.byte	0x1
 4245 0522 2B03     		.2byte	0x32b
 4246 0524 A2000000 		.4byte	0xa2
 4247 0528 16030000 		.4byte	.LLST19
 4248 052c 1C       		.uleb128 0x1c
 4249 052d 26050000 		.4byte	.LASF63
 4250 0531 01       		.byte	0x1
 4251 0532 2C03     		.2byte	0x32c
 4252 0534 CD050000 		.4byte	0x5cd
ARM GAS  C:\Users\PIERRE~1\AppData\Local\Temp\ccqD7qlI.s 			page 99


 4253 0538 02       		.uleb128 0x2
 4254 0539 91       		.byte	0x91
 4255 053a 5C       		.sleb128 -36
 4256 053b 18       		.uleb128 0x18
 4257 053c 6900     		.ascii	"i\000"
 4258 053e 01       		.byte	0x1
 4259 053f 2D03     		.2byte	0x32d
 4260 0541 A2000000 		.4byte	0xa2
 4261 0545 37030000 		.4byte	.LLST20
 4262 0549 19       		.uleb128 0x19
 4263 054a 86050000 		.4byte	.LASF64
 4264 054e 01       		.byte	0x1
 4265 054f 2E03     		.2byte	0x32e
 4266 0551 97000000 		.4byte	0x97
 4267 0555 A3030000 		.4byte	.LLST21
 4268 0559 1C       		.uleb128 0x1c
 4269 055a 6F030000 		.4byte	.LASF65
 4270 055e 01       		.byte	0x1
 4271 055f 3C03     		.2byte	0x33c
 4272 0561 97000000 		.4byte	0x97
 4273 0565 01       		.uleb128 0x1
 4274 0566 57       		.byte	0x57
 4275 0567 1D       		.uleb128 0x1d
 4276 0568 54000000 		.4byte	.LVL53
 4277 056c 7A200000 		.4byte	0x207a
 4278 0570 1D       		.uleb128 0x1d
 4279 0571 5A000000 		.4byte	.LVL55
 4280 0575 85200000 		.4byte	0x2085
 4281 0579 13       		.uleb128 0x13
 4282 057a 6A000000 		.4byte	.LVL57
 4283 057e 90200000 		.4byte	0x2090
 4284 0582 95050000 		.4byte	0x595
 4285 0586 11       		.uleb128 0x11
 4286 0587 01       		.uleb128 0x1
 4287 0588 50       		.byte	0x50
 4288 0589 0A       		.uleb128 0xa
 4289 058a 91       		.byte	0x91
 4290 058b 00       		.sleb128 0
 4291 058c 74       		.byte	0x74
 4292 058d 00       		.sleb128 0
 4293 058e 22       		.byte	0x22
 4294 058f 08       		.byte	0x8
 4295 0590 24       		.byte	0x24
 4296 0591 1C       		.byte	0x1c
 4297 0592 94       		.byte	0x94
 4298 0593 01       		.byte	0x1
 4299 0594 00       		.byte	0
 4300 0595 13       		.uleb128 0x13
 4301 0596 80000000 		.4byte	.LVL62
 4302 059a 90200000 		.4byte	0x2090
 4303 059e A8050000 		.4byte	0x5a8
 4304 05a2 11       		.uleb128 0x11
 4305 05a3 01       		.uleb128 0x1
 4306 05a4 50       		.byte	0x50
 4307 05a5 01       		.uleb128 0x1
 4308 05a6 30       		.byte	0x30
 4309 05a7 00       		.byte	0
ARM GAS  C:\Users\PIERRE~1\AppData\Local\Temp\ccqD7qlI.s 			page 100


 4310 05a8 1D       		.uleb128 0x1d
 4311 05a9 8C000000 		.4byte	.LVL65
 4312 05ad 9B200000 		.4byte	0x209b
 4313 05b1 1D       		.uleb128 0x1d
 4314 05b2 9A000000 		.4byte	.LVL68
 4315 05b6 A6200000 		.4byte	0x20a6
 4316 05ba 1D       		.uleb128 0x1d
 4317 05bb AA000000 		.4byte	.LVL73
 4318 05bf A6200000 		.4byte	0x20a6
 4319 05c3 1D       		.uleb128 0x1d
 4320 05c4 BA000000 		.4byte	.LVL76
 4321 05c8 B1200000 		.4byte	0x20b1
 4322 05cc 00       		.byte	0
 4323 05cd 1E       		.uleb128 0x1e
 4324 05ce 97000000 		.4byte	0x97
 4325 05d2 DD050000 		.4byte	0x5dd
 4326 05d6 1F       		.uleb128 0x1f
 4327 05d7 CA000000 		.4byte	0xca
 4328 05db 02       		.byte	0x2
 4329 05dc 00       		.byte	0
 4330 05dd 14       		.uleb128 0x14
 4331 05de 91010000 		.4byte	.LASF66
 4332 05e2 01       		.byte	0x1
 4333 05e3 4F03     		.2byte	0x34f
 4334 05e5 00000000 		.4byte	.LFB107
 4335 05e9 A4000000 		.4byte	.LFE107-.LFB107
 4336 05ed 01       		.uleb128 0x1
 4337 05ee 9C       		.byte	0x9c
 4338 05ef C0060000 		.4byte	0x6c0
 4339 05f3 1A       		.uleb128 0x1a
 4340 05f4 86060000 		.4byte	.LASF61
 4341 05f8 01       		.byte	0x1
 4342 05f9 4F03     		.2byte	0x34f
 4343 05fb 97000000 		.4byte	0x97
 4344 05ff E6030000 		.4byte	.LLST22
 4345 0603 1A       		.uleb128 0x1a
 4346 0604 2D030000 		.4byte	.LASF62
 4347 0608 01       		.byte	0x1
 4348 0609 4F03     		.2byte	0x34f
 4349 060b A2000000 		.4byte	0xa2
 4350 060f 20040000 		.4byte	.LLST23
 4351 0613 1A       		.uleb128 0x1a
 4352 0614 C7030000 		.4byte	.LASF52
 4353 0618 01       		.byte	0x1
 4354 0619 4F03     		.2byte	0x34f
 4355 061b 5C040000 		.4byte	0x45c
 4356 061f 41040000 		.4byte	.LLST24
 4357 0623 17       		.uleb128 0x17
 4358 0624 6C656E00 		.ascii	"len\000"
 4359 0628 01       		.byte	0x1
 4360 0629 4F03     		.2byte	0x34f
 4361 062b A2000000 		.4byte	0xa2
 4362 062f 5F040000 		.4byte	.LLST25
 4363 0633 1C       		.uleb128 0x1c
 4364 0634 26050000 		.4byte	.LASF63
 4365 0638 01       		.byte	0x1
 4366 0639 5003     		.2byte	0x350
ARM GAS  C:\Users\PIERRE~1\AppData\Local\Temp\ccqD7qlI.s 			page 101


 4367 063b CD050000 		.4byte	0x5cd
 4368 063f 02       		.uleb128 0x2
 4369 0640 91       		.byte	0x91
 4370 0641 64       		.sleb128 -28
 4371 0642 19       		.uleb128 0x19
 4372 0643 86050000 		.4byte	.LASF64
 4373 0647 01       		.byte	0x1
 4374 0648 5103     		.2byte	0x351
 4375 064a 97000000 		.4byte	0x97
 4376 064e 80040000 		.4byte	.LLST26
 4377 0652 18       		.uleb128 0x18
 4378 0653 6900     		.ascii	"i\000"
 4379 0655 01       		.byte	0x1
 4380 0656 5203     		.2byte	0x352
 4381 0658 A2000000 		.4byte	0xa2
 4382 065c C3040000 		.4byte	.LLST27
 4383 0660 1C       		.uleb128 0x1c
 4384 0661 6F030000 		.4byte	.LASF65
 4385 0665 01       		.byte	0x1
 4386 0666 6003     		.2byte	0x360
 4387 0668 97000000 		.4byte	0x97
 4388 066c 01       		.uleb128 0x1
 4389 066d 57       		.byte	0x57
 4390 066e 1D       		.uleb128 0x1d
 4391 066f 48000000 		.4byte	.LVL88
 4392 0673 7A200000 		.4byte	0x207a
 4393 0677 1D       		.uleb128 0x1d
 4394 0678 4E000000 		.4byte	.LVL90
 4395 067c 85200000 		.4byte	0x2085
 4396 0680 13       		.uleb128 0x13
 4397 0681 5E000000 		.4byte	.LVL92
 4398 0685 90200000 		.4byte	0x2090
 4399 0689 9B060000 		.4byte	0x69b
 4400 068d 11       		.uleb128 0x11
 4401 068e 01       		.uleb128 0x1
 4402 068f 50       		.byte	0x50
 4403 0690 09       		.uleb128 0x9
 4404 0691 91       		.byte	0x91
 4405 0692 00       		.sleb128 0
 4406 0693 74       		.byte	0x74
 4407 0694 00       		.sleb128 0
 4408 0695 22       		.byte	0x22
 4409 0696 4C       		.byte	0x4c
 4410 0697 1C       		.byte	0x1c
 4411 0698 94       		.byte	0x94
 4412 0699 01       		.byte	0x1
 4413 069a 00       		.byte	0
 4414 069b 1D       		.uleb128 0x1d
 4415 069c 74000000 		.4byte	.LVL97
 4416 06a0 90200000 		.4byte	0x2090
 4417 06a4 1D       		.uleb128 0x1d
 4418 06a5 80000000 		.4byte	.LVL100
 4419 06a9 9B200000 		.4byte	0x209b
 4420 06ad 1D       		.uleb128 0x1d
 4421 06ae 8E000000 		.4byte	.LVL103
 4422 06b2 A6200000 		.4byte	0x20a6
 4423 06b6 1D       		.uleb128 0x1d
ARM GAS  C:\Users\PIERRE~1\AppData\Local\Temp\ccqD7qlI.s 			page 102


 4424 06b7 9E000000 		.4byte	.LVL106
 4425 06bb B1200000 		.4byte	0x20b1
 4426 06bf 00       		.byte	0
 4427 06c0 20       		.uleb128 0x20
 4428 06c1 72010000 		.4byte	.LASF69
 4429 06c5 01       		.byte	0x1
 4430 06c6 2C01     		.2byte	0x12c
 4431 06c8 00000000 		.4byte	.LFB72
 4432 06cc 4C000000 		.4byte	.LFE72-.LFB72
 4433 06d0 01       		.uleb128 0x1
 4434 06d1 9C       		.byte	0x9c
 4435 06d2 38070000 		.4byte	0x738
 4436 06d6 1C       		.uleb128 0x1c
 4437 06d7 86030000 		.4byte	.LASF67
 4438 06db 01       		.byte	0x1
 4439 06dc 2D01     		.2byte	0x12d
 4440 06de 38070000 		.4byte	0x738
 4441 06e2 02       		.uleb128 0x2
 4442 06e3 91       		.byte	0x91
 4443 06e4 74       		.sleb128 -12
 4444 06e5 19       		.uleb128 0x19
 4445 06e6 F4010000 		.4byte	.LASF38
 4446 06ea 01       		.byte	0x1
 4447 06eb 2F01     		.2byte	0x12f
 4448 06ed 97000000 		.4byte	0x97
 4449 06f1 19050000 		.4byte	.LLST28
 4450 06f5 13       		.uleb128 0x13
 4451 06f6 10000000 		.4byte	.LVL107
 4452 06fa D6040000 		.4byte	0x4d6
 4453 06fe 18070000 		.4byte	0x718
 4454 0702 11       		.uleb128 0x11
 4455 0703 01       		.uleb128 0x1
 4456 0704 50       		.byte	0x50
 4457 0705 01       		.uleb128 0x1
 4458 0706 4F       		.byte	0x4f
 4459 0707 11       		.uleb128 0x11
 4460 0708 01       		.uleb128 0x1
 4461 0709 51       		.byte	0x51
 4462 070a 01       		.uleb128 0x1
 4463 070b 32       		.byte	0x32
 4464 070c 11       		.uleb128 0x11
 4465 070d 01       		.uleb128 0x1
 4466 070e 52       		.byte	0x52
 4467 070f 02       		.uleb128 0x2
 4468 0710 91       		.byte	0x91
 4469 0711 74       		.sleb128 -12
 4470 0712 11       		.uleb128 0x11
 4471 0713 01       		.uleb128 0x1
 4472 0714 53       		.byte	0x53
 4473 0715 01       		.uleb128 0x1
 4474 0716 32       		.byte	0x32
 4475 0717 00       		.byte	0
 4476 0718 10       		.uleb128 0x10
 4477 0719 40000000 		.4byte	.LVL110
 4478 071d DD050000 		.4byte	0x5dd
 4479 0721 11       		.uleb128 0x11
 4480 0722 01       		.uleb128 0x1
ARM GAS  C:\Users\PIERRE~1\AppData\Local\Temp\ccqD7qlI.s 			page 103


 4481 0723 50       		.byte	0x50
 4482 0724 01       		.uleb128 0x1
 4483 0725 4F       		.byte	0x4f
 4484 0726 11       		.uleb128 0x11
 4485 0727 01       		.uleb128 0x1
 4486 0728 51       		.byte	0x51
 4487 0729 01       		.uleb128 0x1
 4488 072a 32       		.byte	0x32
 4489 072b 11       		.uleb128 0x11
 4490 072c 01       		.uleb128 0x1
 4491 072d 52       		.byte	0x52
 4492 072e 02       		.uleb128 0x2
 4493 072f 91       		.byte	0x91
 4494 0730 74       		.sleb128 -12
 4495 0731 11       		.uleb128 0x11
 4496 0732 01       		.uleb128 0x1
 4497 0733 53       		.byte	0x53
 4498 0734 01       		.uleb128 0x1
 4499 0735 32       		.byte	0x32
 4500 0736 00       		.byte	0
 4501 0737 00       		.byte	0
 4502 0738 1E       		.uleb128 0x1e
 4503 0739 97000000 		.4byte	0x97
 4504 073d 48070000 		.4byte	0x748
 4505 0741 1F       		.uleb128 0x1f
 4506 0742 CA000000 		.4byte	0xca
 4507 0746 01       		.byte	0x1
 4508 0747 00       		.byte	0
 4509 0748 14       		.uleb128 0x14
 4510 0749 0B010000 		.4byte	.LASF68
 4511 074d 01       		.byte	0x1
 4512 074e 4201     		.2byte	0x142
 4513 0750 00000000 		.4byte	.LFB75
 4514 0754 18000000 		.4byte	.LFE75-.LFB75
 4515 0758 01       		.uleb128 0x1
 4516 0759 9C       		.byte	0x9c
 4517 075a 8C070000 		.4byte	0x78c
 4518 075e 1A       		.uleb128 0x1a
 4519 075f F4010000 		.4byte	.LASF38
 4520 0763 01       		.byte	0x1
 4521 0764 4201     		.2byte	0x142
 4522 0766 97000000 		.4byte	0x97
 4523 076a 3B050000 		.4byte	.LLST29
 4524 076e 13       		.uleb128 0x13
 4525 076f 0C000000 		.4byte	.LVL113
 4526 0773 71020000 		.4byte	0x271
 4527 0777 82070000 		.4byte	0x782
 4528 077b 11       		.uleb128 0x11
 4529 077c 01       		.uleb128 0x1
 4530 077d 50       		.byte	0x50
 4531 077e 02       		.uleb128 0x2
 4532 077f 74       		.byte	0x74
 4533 0780 00       		.sleb128 0
 4534 0781 00       		.byte	0
 4535 0782 1D       		.uleb128 0x1d
 4536 0783 12000000 		.4byte	.LVL114
 4537 0787 C0060000 		.4byte	0x6c0
ARM GAS  C:\Users\PIERRE~1\AppData\Local\Temp\ccqD7qlI.s 			page 104


 4538 078b 00       		.byte	0
 4539 078c 20       		.uleb128 0x20
 4540 078d 1E040000 		.4byte	.LASF70
 4541 0791 01       		.byte	0x1
 4542 0792 3701     		.2byte	0x137
 4543 0794 00000000 		.4byte	.LFB73
 4544 0798 28000000 		.4byte	.LFE73-.LFB73
 4545 079c 01       		.uleb128 0x1
 4546 079d 9C       		.byte	0x9c
 4547 079e C2070000 		.4byte	0x7c2
 4548 07a2 10       		.uleb128 0x10
 4549 07a3 1E000000 		.4byte	.LVL115
 4550 07a7 DD050000 		.4byte	0x5dd
 4551 07ab 11       		.uleb128 0x11
 4552 07ac 01       		.uleb128 0x1
 4553 07ad 50       		.byte	0x50
 4554 07ae 01       		.uleb128 0x1
 4555 07af 38       		.byte	0x38
 4556 07b0 11       		.uleb128 0x11
 4557 07b1 01       		.uleb128 0x1
 4558 07b2 51       		.byte	0x51
 4559 07b3 01       		.uleb128 0x1
 4560 07b4 32       		.byte	0x32
 4561 07b5 11       		.uleb128 0x11
 4562 07b6 01       		.uleb128 0x1
 4563 07b7 52       		.byte	0x52
 4564 07b8 02       		.uleb128 0x2
 4565 07b9 91       		.byte	0x91
 4566 07ba 74       		.sleb128 -12
 4567 07bb 11       		.uleb128 0x11
 4568 07bc 01       		.uleb128 0x1
 4569 07bd 53       		.byte	0x53
 4570 07be 01       		.uleb128 0x1
 4571 07bf 31       		.byte	0x31
 4572 07c0 00       		.byte	0
 4573 07c1 00       		.byte	0
 4574 07c2 14       		.uleb128 0x14
 4575 07c3 9D030000 		.4byte	.LASF71
 4576 07c7 01       		.byte	0x1
 4577 07c8 4701     		.2byte	0x147
 4578 07ca 00000000 		.4byte	.LFB76
 4579 07ce 18000000 		.4byte	.LFE76-.LFB76
 4580 07d2 01       		.uleb128 0x1
 4581 07d3 9C       		.byte	0x9c
 4582 07d4 06080000 		.4byte	0x806
 4583 07d8 1A       		.uleb128 0x1a
 4584 07d9 D7040000 		.4byte	.LASF39
 4585 07dd 01       		.byte	0x1
 4586 07de 4701     		.2byte	0x147
 4587 07e0 61010000 		.4byte	0x161
 4588 07e4 5C050000 		.4byte	.LLST30
 4589 07e8 13       		.uleb128 0x13
 4590 07e9 0C000000 		.4byte	.LVL118
 4591 07ed FE020000 		.4byte	0x2fe
 4592 07f1 FC070000 		.4byte	0x7fc
 4593 07f5 11       		.uleb128 0x11
 4594 07f6 01       		.uleb128 0x1
ARM GAS  C:\Users\PIERRE~1\AppData\Local\Temp\ccqD7qlI.s 			page 105


 4595 07f7 50       		.byte	0x50
 4596 07f8 02       		.uleb128 0x2
 4597 07f9 74       		.byte	0x74
 4598 07fa 00       		.sleb128 0
 4599 07fb 00       		.byte	0
 4600 07fc 1D       		.uleb128 0x1d
 4601 07fd 12000000 		.4byte	.LVL119
 4602 0801 8C070000 		.4byte	0x78c
 4603 0805 00       		.byte	0
 4604 0806 21       		.uleb128 0x21
 4605 0807 FA040000 		.4byte	.LASF72
 4606 080b 01       		.byte	0x1
 4607 080c AA       		.byte	0xaa
 4608 080d 00000000 		.4byte	.LFB69
 4609 0811 A0010000 		.4byte	.LFE69-.LFB69
 4610 0815 01       		.uleb128 0x1
 4611 0816 9C       		.byte	0x9c
 4612 0817 930A0000 		.4byte	0xa93
 4613 081b 22       		.uleb128 0x22
 4614 081c 3F020000 		.4byte	.LASF73
 4615 0820 01       		.byte	0x1
 4616 0821 AB       		.byte	0xab
 4617 0822 930A0000 		.4byte	0xa93
 4618 0826 02       		.uleb128 0x2
 4619 0827 91       		.byte	0x91
 4620 0828 74       		.sleb128 -12
 4621 0829 13       		.uleb128 0x13
 4622 082a 3A000000 		.4byte	.LVL120
 4623 082e 62040000 		.4byte	0x462
 4624 0832 46080000 		.4byte	0x846
 4625 0836 11       		.uleb128 0x11
 4626 0837 01       		.uleb128 0x1
 4627 0838 50       		.byte	0x50
 4628 0839 05       		.uleb128 0x5
 4629 083a 0C       		.byte	0xc
 4630 083b 75553515 		.4byte	0x15355575
 4631 083f 11       		.uleb128 0x11
 4632 0840 01       		.uleb128 0x1
 4633 0841 51       		.byte	0x51
 4634 0842 02       		.uleb128 0x2
 4635 0843 91       		.byte	0x91
 4636 0844 74       		.sleb128 -12
 4637 0845 00       		.byte	0
 4638 0846 13       		.uleb128 0x13
 4639 0847 44000000 		.4byte	.LVL121
 4640 084b 62040000 		.4byte	0x462
 4641 084f 63080000 		.4byte	0x863
 4642 0853 11       		.uleb128 0x11
 4643 0854 01       		.uleb128 0x1
 4644 0855 50       		.byte	0x50
 4645 0856 05       		.uleb128 0x5
 4646 0857 0C       		.byte	0xc
 4647 0858 6F4F2F0F 		.4byte	0xf2f4f6f
 4648 085c 11       		.uleb128 0x11
 4649 085d 01       		.uleb128 0x1
 4650 085e 51       		.byte	0x51
 4651 085f 02       		.uleb128 0x2
ARM GAS  C:\Users\PIERRE~1\AppData\Local\Temp\ccqD7qlI.s 			page 106


 4652 0860 91       		.byte	0x91
 4653 0861 74       		.sleb128 -12
 4654 0862 00       		.byte	0
 4655 0863 13       		.uleb128 0x13
 4656 0864 4E000000 		.4byte	.LVL122
 4657 0868 62040000 		.4byte	0x462
 4658 086c 80080000 		.4byte	0x880
 4659 0870 11       		.uleb128 0x11
 4660 0871 01       		.uleb128 0x1
 4661 0872 50       		.byte	0x50
 4662 0873 05       		.uleb128 0x5
 4663 0874 0C       		.byte	0xc
 4664 0875 5F3F1F1F 		.4byte	0x1f1f3f5f
 4665 0879 11       		.uleb128 0x11
 4666 087a 01       		.uleb128 0x1
 4667 087b 51       		.byte	0x51
 4668 087c 02       		.uleb128 0x2
 4669 087d 91       		.byte	0x91
 4670 087e 74       		.sleb128 -12
 4671 087f 00       		.byte	0
 4672 0880 13       		.uleb128 0x13
 4673 0881 58000000 		.4byte	.LVL123
 4674 0885 62040000 		.4byte	0x462
 4675 0889 9D080000 		.4byte	0x89d
 4676 088d 11       		.uleb128 0x11
 4677 088e 01       		.uleb128 0x1
 4678 088f 50       		.byte	0x50
 4679 0890 05       		.uleb128 0x5
 4680 0891 0C       		.byte	0xc
 4681 0892 4828080E 		.4byte	0xe082848
 4682 0896 11       		.uleb128 0x11
 4683 0897 01       		.uleb128 0x1
 4684 0898 51       		.byte	0x51
 4685 0899 02       		.uleb128 0x2
 4686 089a 91       		.byte	0x91
 4687 089b 74       		.sleb128 -12
 4688 089c 00       		.byte	0
 4689 089d 13       		.uleb128 0x13
 4690 089e 62000000 		.4byte	.LVL124
 4691 08a2 62040000 		.4byte	0x462
 4692 08a6 BA080000 		.4byte	0x8ba
 4693 08aa 11       		.uleb128 0x11
 4694 08ab 01       		.uleb128 0x1
 4695 08ac 50       		.byte	0x50
 4696 08ad 05       		.uleb128 0x5
 4697 08ae 0C       		.byte	0xc
 4698 08af 92725232 		.4byte	0x32527292
 4699 08b3 11       		.uleb128 0x11
 4700 08b4 01       		.uleb128 0x1
 4701 08b5 51       		.byte	0x51
 4702 08b6 02       		.uleb128 0x2
 4703 08b7 91       		.byte	0x91
 4704 08b8 74       		.sleb128 -12
 4705 08b9 00       		.byte	0
 4706 08ba 13       		.uleb128 0x13
 4707 08bb 82000000 		.4byte	.LVL125
 4708 08bf 62040000 		.4byte	0x462
ARM GAS  C:\Users\PIERRE~1\AppData\Local\Temp\ccqD7qlI.s 			page 107


 4709 08c3 D7080000 		.4byte	0x8d7
 4710 08c7 11       		.uleb128 0x11
 4711 08c8 01       		.uleb128 0x1
 4712 08c9 50       		.byte	0x50
 4713 08ca 05       		.uleb128 0x5
 4714 08cb 0C       		.byte	0xc
 4715 08cc 67472707 		.4byte	0x7274767
 4716 08d0 11       		.uleb128 0x11
 4717 08d1 01       		.uleb128 0x1
 4718 08d2 51       		.byte	0x51
 4719 08d3 02       		.uleb128 0x2
 4720 08d4 91       		.byte	0x91
 4721 08d5 74       		.sleb128 -12
 4722 08d6 00       		.byte	0
 4723 08d7 13       		.uleb128 0x13
 4724 08d8 8C000000 		.4byte	.LVL126
 4725 08dc 62040000 		.4byte	0x462
 4726 08e0 F4080000 		.4byte	0x8f4
 4727 08e4 11       		.uleb128 0x11
 4728 08e5 01       		.uleb128 0x1
 4729 08e6 50       		.byte	0x50
 4730 08e7 05       		.uleb128 0x5
 4731 08e8 0C       		.byte	0xc
 4732 08e9 8B6B4B2B 		.4byte	0x2b4b6b8b
 4733 08ed 11       		.uleb128 0x11
 4734 08ee 01       		.uleb128 0x1
 4735 08ef 51       		.byte	0x51
 4736 08f0 02       		.uleb128 0x2
 4737 08f1 91       		.byte	0x91
 4738 08f2 74       		.sleb128 -12
 4739 08f3 00       		.byte	0
 4740 08f4 13       		.uleb128 0x13
 4741 08f5 96000000 		.4byte	.LVL127
 4742 08f9 62040000 		.4byte	0x462
 4743 08fd 11090000 		.4byte	0x911
 4744 0901 11       		.uleb128 0x11
 4745 0902 01       		.uleb128 0x1
 4746 0903 50       		.byte	0x50
 4747 0904 05       		.uleb128 0x5
 4748 0905 0C       		.byte	0xc
 4749 0906 9A7A5A3A 		.4byte	0x3a5a7a9a
 4750 090a 11       		.uleb128 0x11
 4751 090b 01       		.uleb128 0x1
 4752 090c 51       		.byte	0x51
 4753 090d 02       		.uleb128 0x2
 4754 090e 91       		.byte	0x91
 4755 090f 74       		.sleb128 -12
 4756 0910 00       		.byte	0
 4757 0911 13       		.uleb128 0x13
 4758 0912 A0000000 		.4byte	.LVL128
 4759 0916 62040000 		.4byte	0x462
 4760 091a 2E090000 		.4byte	0x92e
 4761 091e 11       		.uleb128 0x11
 4762 091f 01       		.uleb128 0x1
 4763 0920 50       		.byte	0x50
 4764 0921 05       		.uleb128 0x5
 4765 0922 0C       		.byte	0xc
ARM GAS  C:\Users\PIERRE~1\AppData\Local\Temp\ccqD7qlI.s 			page 108


 4766 0923 85654525 		.4byte	0x25456585
 4767 0927 11       		.uleb128 0x11
 4768 0928 01       		.uleb128 0x1
 4769 0929 51       		.byte	0x51
 4770 092a 02       		.uleb128 0x2
 4771 092b 91       		.byte	0x91
 4772 092c 74       		.sleb128 -12
 4773 092d 00       		.byte	0
 4774 092e 13       		.uleb128 0x13
 4775 092f AA000000 		.4byte	.LVL129
 4776 0933 62040000 		.4byte	0x462
 4777 0937 4B090000 		.4byte	0x94b
 4778 093b 11       		.uleb128 0x11
 4779 093c 01       		.uleb128 0x1
 4780 093d 50       		.byte	0x50
 4781 093e 05       		.uleb128 0x5
 4782 093f 0C       		.byte	0xc
 4783 0940 D1B17151 		.4byte	0x5171b1d1
 4784 0944 11       		.uleb128 0x11
 4785 0945 01       		.uleb128 0x1
 4786 0946 51       		.byte	0x51
 4787 0947 02       		.uleb128 0x2
 4788 0948 91       		.byte	0x91
 4789 0949 74       		.sleb128 -12
 4790 094a 00       		.byte	0
 4791 094b 13       		.uleb128 0x13
 4792 094c DA000000 		.4byte	.LVL130
 4793 0950 62040000 		.4byte	0x462
 4794 0954 68090000 		.4byte	0x968
 4795 0958 11       		.uleb128 0x11
 4796 0959 01       		.uleb128 0x1
 4797 095a 50       		.byte	0x50
 4798 095b 05       		.uleb128 0x5
 4799 095c 0C       		.byte	0xc
 4800 095d 75757575 		.4byte	0x75757575
 4801 0961 11       		.uleb128 0x11
 4802 0962 01       		.uleb128 0x1
 4803 0963 51       		.byte	0x51
 4804 0964 02       		.uleb128 0x2
 4805 0965 91       		.byte	0x91
 4806 0966 74       		.sleb128 -12
 4807 0967 00       		.byte	0
 4808 0968 13       		.uleb128 0x13
 4809 0969 E6000000 		.4byte	.LVL131
 4810 096d 62040000 		.4byte	0x462
 4811 0971 85090000 		.4byte	0x985
 4812 0975 11       		.uleb128 0x11
 4813 0976 01       		.uleb128 0x1
 4814 0977 50       		.byte	0x50
 4815 0978 05       		.uleb128 0x5
 4816 0979 0C       		.byte	0xc
 4817 097a 6F6F6F6F 		.4byte	0x6f6f6f6f
 4818 097e 11       		.uleb128 0x11
 4819 097f 01       		.uleb128 0x1
 4820 0980 51       		.byte	0x51
 4821 0981 02       		.uleb128 0x2
 4822 0982 91       		.byte	0x91
ARM GAS  C:\Users\PIERRE~1\AppData\Local\Temp\ccqD7qlI.s 			page 109


 4823 0983 74       		.sleb128 -12
 4824 0984 00       		.byte	0
 4825 0985 13       		.uleb128 0x13
 4826 0986 F2000000 		.4byte	.LVL132
 4827 098a 62040000 		.4byte	0x462
 4828 098e A2090000 		.4byte	0x9a2
 4829 0992 11       		.uleb128 0x11
 4830 0993 01       		.uleb128 0x1
 4831 0994 50       		.byte	0x50
 4832 0995 05       		.uleb128 0x5
 4833 0996 0C       		.byte	0xc
 4834 0997 5F5F5F5F 		.4byte	0x5f5f5f5f
 4835 099b 11       		.uleb128 0x11
 4836 099c 01       		.uleb128 0x1
 4837 099d 51       		.byte	0x51
 4838 099e 02       		.uleb128 0x2
 4839 099f 91       		.byte	0x91
 4840 09a0 74       		.sleb128 -12
 4841 09a1 00       		.byte	0
 4842 09a2 13       		.uleb128 0x13
 4843 09a3 FE000000 		.4byte	.LVL133
 4844 09a7 62040000 		.4byte	0x462
 4845 09ab BF090000 		.4byte	0x9bf
 4846 09af 11       		.uleb128 0x11
 4847 09b0 01       		.uleb128 0x1
 4848 09b1 50       		.byte	0x50
 4849 09b2 05       		.uleb128 0x5
 4850 09b3 0C       		.byte	0xc
 4851 09b4 48484848 		.4byte	0x48484848
 4852 09b8 11       		.uleb128 0x11
 4853 09b9 01       		.uleb128 0x1
 4854 09ba 51       		.byte	0x51
 4855 09bb 02       		.uleb128 0x2
 4856 09bc 91       		.byte	0x91
 4857 09bd 74       		.sleb128 -12
 4858 09be 00       		.byte	0
 4859 09bf 13       		.uleb128 0x13
 4860 09c0 0A010000 		.4byte	.LVL134
 4861 09c4 62040000 		.4byte	0x462
 4862 09c8 DD090000 		.4byte	0x9dd
 4863 09cc 11       		.uleb128 0x11
 4864 09cd 01       		.uleb128 0x1
 4865 09ce 50       		.byte	0x50
 4866 09cf 06       		.uleb128 0x6
 4867 09d0 11       		.byte	0x11
 4868 09d1 92A5CA94 		.sleb128 -1835887982
 4868      79
 4869 09d6 11       		.uleb128 0x11
 4870 09d7 01       		.uleb128 0x1
 4871 09d8 51       		.byte	0x51
 4872 09d9 02       		.uleb128 0x2
 4873 09da 91       		.byte	0x91
 4874 09db 74       		.sleb128 -12
 4875 09dc 00       		.byte	0
 4876 09dd 13       		.uleb128 0x13
 4877 09de 2C010000 		.4byte	.LVL135
 4878 09e2 62040000 		.4byte	0x462
ARM GAS  C:\Users\PIERRE~1\AppData\Local\Temp\ccqD7qlI.s 			page 110


 4879 09e6 FA090000 		.4byte	0x9fa
 4880 09ea 11       		.uleb128 0x11
 4881 09eb 01       		.uleb128 0x1
 4882 09ec 50       		.byte	0x50
 4883 09ed 05       		.uleb128 0x5
 4884 09ee 0C       		.byte	0xc
 4885 09ef 67676767 		.4byte	0x67676767
 4886 09f3 11       		.uleb128 0x11
 4887 09f4 01       		.uleb128 0x1
 4888 09f5 51       		.byte	0x51
 4889 09f6 02       		.uleb128 0x2
 4890 09f7 91       		.byte	0x91
 4891 09f8 74       		.sleb128 -12
 4892 09f9 00       		.byte	0
 4893 09fa 13       		.uleb128 0x13
 4894 09fb 38010000 		.4byte	.LVL136
 4895 09ff 62040000 		.4byte	0x462
 4896 0a03 180A0000 		.4byte	0xa18
 4897 0a07 11       		.uleb128 0x11
 4898 0a08 01       		.uleb128 0x1
 4899 0a09 50       		.byte	0x50
 4900 0a0a 06       		.uleb128 0x6
 4901 0a0b 11       		.byte	0x11
 4902 0a0c 8B97AEDC 		.sleb128 -1953789045
 4902      78
 4903 0a11 11       		.uleb128 0x11
 4904 0a12 01       		.uleb128 0x1
 4905 0a13 51       		.byte	0x51
 4906 0a14 02       		.uleb128 0x2
 4907 0a15 91       		.byte	0x91
 4908 0a16 74       		.sleb128 -12
 4909 0a17 00       		.byte	0
 4910 0a18 13       		.uleb128 0x13
 4911 0a19 44010000 		.4byte	.LVL137
 4912 0a1d 62040000 		.4byte	0x462
 4913 0a21 360A0000 		.4byte	0xa36
 4914 0a25 11       		.uleb128 0x11
 4915 0a26 01       		.uleb128 0x1
 4916 0a27 50       		.byte	0x50
 4917 0a28 06       		.uleb128 0x6
 4918 0a29 11       		.byte	0x11
 4919 0a2a 9AB5EAD4 		.sleb128 -1701143910
 4919      79
 4920 0a2f 11       		.uleb128 0x11
 4921 0a30 01       		.uleb128 0x1
 4922 0a31 51       		.byte	0x51
 4923 0a32 02       		.uleb128 0x2
 4924 0a33 91       		.byte	0x91
 4925 0a34 74       		.sleb128 -12
 4926 0a35 00       		.byte	0
 4927 0a36 13       		.uleb128 0x13
 4928 0a37 50010000 		.4byte	.LVL138
 4929 0a3b 62040000 		.4byte	0x462
 4930 0a3f 540A0000 		.4byte	0xa54
 4931 0a43 11       		.uleb128 0x11
 4932 0a44 01       		.uleb128 0x1
 4933 0a45 50       		.byte	0x50
ARM GAS  C:\Users\PIERRE~1\AppData\Local\Temp\ccqD7qlI.s 			page 111


 4934 0a46 06       		.uleb128 0x6
 4935 0a47 11       		.byte	0x11
 4936 0a48 858B96AC 		.sleb128 -2054847099
 4936      78
 4937 0a4d 11       		.uleb128 0x11
 4938 0a4e 01       		.uleb128 0x1
 4939 0a4f 51       		.byte	0x51
 4940 0a50 02       		.uleb128 0x2
 4941 0a51 91       		.byte	0x91
 4942 0a52 74       		.sleb128 -12
 4943 0a53 00       		.byte	0
 4944 0a54 13       		.uleb128 0x13
 4945 0a55 5C010000 		.4byte	.LVL139
 4946 0a59 62040000 		.4byte	0x462
 4947 0a5d 720A0000 		.4byte	0xa72
 4948 0a61 11       		.uleb128 0x11
 4949 0a62 01       		.uleb128 0x1
 4950 0a63 50       		.byte	0x50
 4951 0a64 06       		.uleb128 0x6
 4952 0a65 11       		.byte	0x11
 4953 0a66 D1A3C78E 		.sleb128 -774778415
 4953      7D
 4954 0a6b 11       		.uleb128 0x11
 4955 0a6c 01       		.uleb128 0x1
 4956 0a6d 51       		.byte	0x51
 4957 0a6e 02       		.uleb128 0x2
 4958 0a6f 91       		.byte	0x91
 4959 0a70 74       		.sleb128 -12
 4960 0a71 00       		.byte	0
 4961 0a72 10       		.uleb128 0x10
 4962 0a73 6C010000 		.4byte	.LVL140
 4963 0a77 DD050000 		.4byte	0x5dd
 4964 0a7b 11       		.uleb128 0x11
 4965 0a7c 01       		.uleb128 0x1
 4966 0a7d 50       		.byte	0x50
 4967 0a7e 01       		.uleb128 0x1
 4968 0a7f 4E       		.byte	0x4e
 4969 0a80 11       		.uleb128 0x11
 4970 0a81 01       		.uleb128 0x1
 4971 0a82 51       		.byte	0x51
 4972 0a83 02       		.uleb128 0x2
 4973 0a84 09       		.byte	0x9
 4974 0a85 FF       		.byte	0xff
 4975 0a86 11       		.uleb128 0x11
 4976 0a87 01       		.uleb128 0x1
 4977 0a88 52       		.byte	0x52
 4978 0a89 02       		.uleb128 0x2
 4979 0a8a 91       		.byte	0x91
 4980 0a8b 74       		.sleb128 -12
 4981 0a8c 11       		.uleb128 0x11
 4982 0a8d 01       		.uleb128 0x1
 4983 0a8e 53       		.byte	0x53
 4984 0a8f 01       		.uleb128 0x1
 4985 0a90 34       		.byte	0x34
 4986 0a91 00       		.byte	0
 4987 0a92 00       		.byte	0
 4988 0a93 1E       		.uleb128 0x1e
ARM GAS  C:\Users\PIERRE~1\AppData\Local\Temp\ccqD7qlI.s 			page 112


 4989 0a94 97000000 		.4byte	0x97
 4990 0a98 A30A0000 		.4byte	0xaa3
 4991 0a9c 1F       		.uleb128 0x1f
 4992 0a9d CA000000 		.4byte	0xca
 4993 0aa1 03       		.byte	0x3
 4994 0aa2 00       		.byte	0
 4995 0aa3 20       		.uleb128 0x20
 4996 0aa4 00030000 		.4byte	.LASF74
 4997 0aa8 01       		.byte	0x1
 4998 0aa9 0501     		.2byte	0x105
 4999 0aab 00000000 		.4byte	.LFB70
 5000 0aaf B4000000 		.4byte	.LFE70-.LFB70
 5001 0ab3 01       		.uleb128 0x1
 5002 0ab4 9C       		.byte	0x9c
 5003 0ab5 D40B0000 		.4byte	0xbd4
 5004 0ab9 23       		.uleb128 0x23
 5005 0aba 746300   		.ascii	"tc\000"
 5006 0abd 01       		.byte	0x1
 5007 0abe 0601     		.2byte	0x106
 5008 0ac0 D40B0000 		.4byte	0xbd4
 5009 0ac4 02       		.uleb128 0x2
 5010 0ac5 91       		.byte	0x91
 5011 0ac6 74       		.sleb128 -12
 5012 0ac7 1C       		.uleb128 0x1c
 5013 0ac8 B6050000 		.4byte	.LASF75
 5014 0acc 01       		.byte	0x1
 5015 0acd 0701     		.2byte	0x107
 5016 0acf 930A0000 		.4byte	0xa93
 5017 0ad3 02       		.uleb128 0x2
 5018 0ad4 91       		.byte	0x91
 5019 0ad5 70       		.sleb128 -16
 5020 0ad6 13       		.uleb128 0x13
 5021 0ad7 24000000 		.4byte	.LVL141
 5022 0adb 62040000 		.4byte	0x462
 5023 0adf F10A0000 		.4byte	0xaf1
 5024 0ae3 11       		.uleb128 0x11
 5025 0ae4 01       		.uleb128 0x1
 5026 0ae5 50       		.byte	0x50
 5027 0ae6 03       		.uleb128 0x3
 5028 0ae7 0A       		.byte	0xa
 5029 0ae8 405C     		.2byte	0x5c40
 5030 0aea 11       		.uleb128 0x11
 5031 0aeb 01       		.uleb128 0x1
 5032 0aec 51       		.byte	0x51
 5033 0aed 02       		.uleb128 0x2
 5034 0aee 7D       		.byte	0x7d
 5035 0aef 00       		.sleb128 0
 5036 0af0 00       		.byte	0
 5037 0af1 13       		.uleb128 0x13
 5038 0af2 34000000 		.4byte	.LVL142
 5039 0af6 62040000 		.4byte	0x462
 5040 0afa 0E0B0000 		.4byte	0xb0e
 5041 0afe 11       		.uleb128 0x11
 5042 0aff 01       		.uleb128 0x1
 5043 0b00 50       		.byte	0x50
 5044 0b01 05       		.uleb128 0x5
 5045 0b02 0C       		.byte	0xc
ARM GAS  C:\Users\PIERRE~1\AppData\Local\Temp\ccqD7qlI.s 			page 113


 5046 0b03 A05C0400 		.4byte	0x45ca0
 5047 0b07 11       		.uleb128 0x11
 5048 0b08 01       		.uleb128 0x1
 5049 0b09 51       		.byte	0x51
 5050 0b0a 02       		.uleb128 0x2
 5051 0b0b 7D       		.byte	0x7d
 5052 0b0c 00       		.sleb128 0
 5053 0b0d 00       		.byte	0
 5054 0b0e 13       		.uleb128 0x13
 5055 0b0f 44000000 		.4byte	.LVL143
 5056 0b13 62040000 		.4byte	0x462
 5057 0b17 2B0B0000 		.4byte	0xb2b
 5058 0b1b 11       		.uleb128 0x11
 5059 0b1c 01       		.uleb128 0x1
 5060 0b1d 50       		.byte	0x50
 5061 0b1e 05       		.uleb128 0x5
 5062 0b1f 0C       		.byte	0xc
 5063 0b20 C06C0800 		.4byte	0x86cc0
 5064 0b24 11       		.uleb128 0x11
 5065 0b25 01       		.uleb128 0x1
 5066 0b26 51       		.byte	0x51
 5067 0b27 02       		.uleb128 0x2
 5068 0b28 7D       		.byte	0x7d
 5069 0b29 00       		.sleb128 0
 5070 0b2a 00       		.byte	0
 5071 0b2b 13       		.uleb128 0x13
 5072 0b2c 54000000 		.4byte	.LVL144
 5073 0b30 62040000 		.4byte	0x462
 5074 0b34 480B0000 		.4byte	0xb48
 5075 0b38 11       		.uleb128 0x11
 5076 0b39 01       		.uleb128 0x1
 5077 0b3a 50       		.byte	0x50
 5078 0b3b 05       		.uleb128 0x5
 5079 0b3c 0C       		.byte	0xc
 5080 0b3d 805C0400 		.4byte	0x45c80
 5081 0b41 11       		.uleb128 0x11
 5082 0b42 01       		.uleb128 0x1
 5083 0b43 51       		.byte	0x51
 5084 0b44 02       		.uleb128 0x2
 5085 0b45 7D       		.byte	0x7d
 5086 0b46 00       		.sleb128 0
 5087 0b47 00       		.byte	0
 5088 0b48 13       		.uleb128 0x13
 5089 0b49 64000000 		.4byte	.LVL145
 5090 0b4d 62040000 		.4byte	0x462
 5091 0b51 650B0000 		.4byte	0xb65
 5092 0b55 11       		.uleb128 0x11
 5093 0b56 01       		.uleb128 0x1
 5094 0b57 50       		.byte	0x50
 5095 0b58 05       		.uleb128 0x5
 5096 0b59 0C       		.byte	0xc
 5097 0b5a E03F1E00 		.4byte	0x1e3fe0
 5098 0b5e 11       		.uleb128 0x11
 5099 0b5f 01       		.uleb128 0x1
 5100 0b60 51       		.byte	0x51
 5101 0b61 02       		.uleb128 0x2
 5102 0b62 7D       		.byte	0x7d
ARM GAS  C:\Users\PIERRE~1\AppData\Local\Temp\ccqD7qlI.s 			page 114


 5103 0b63 00       		.sleb128 0
 5104 0b64 00       		.byte	0
 5105 0b65 13       		.uleb128 0x13
 5106 0b66 74000000 		.4byte	.LVL146
 5107 0b6a 62040000 		.4byte	0x462
 5108 0b6e 820B0000 		.4byte	0xb82
 5109 0b72 11       		.uleb128 0x11
 5110 0b73 01       		.uleb128 0x1
 5111 0b74 50       		.byte	0x50
 5112 0b75 05       		.uleb128 0x5
 5113 0b76 0C       		.byte	0xc
 5114 0b77 E07D1E00 		.4byte	0x1e7de0
 5115 0b7b 11       		.uleb128 0x11
 5116 0b7c 01       		.uleb128 0x1
 5117 0b7d 51       		.byte	0x51
 5118 0b7e 02       		.uleb128 0x2
 5119 0b7f 7D       		.byte	0x7d
 5120 0b80 00       		.sleb128 0
 5121 0b81 00       		.byte	0
 5122 0b82 13       		.uleb128 0x13
 5123 0b83 86000000 		.4byte	.LVL147
 5124 0b87 DD050000 		.4byte	0x5dd
 5125 0b8b A60B0000 		.4byte	0xba6
 5126 0b8f 11       		.uleb128 0x11
 5127 0b90 01       		.uleb128 0x1
 5128 0b91 50       		.byte	0x50
 5129 0b92 02       		.uleb128 0x2
 5130 0b93 08       		.byte	0x8
 5131 0b94 28       		.byte	0x28
 5132 0b95 11       		.uleb128 0x11
 5133 0b96 01       		.uleb128 0x1
 5134 0b97 51       		.byte	0x51
 5135 0b98 01       		.uleb128 0x1
 5136 0b99 3C       		.byte	0x3c
 5137 0b9a 11       		.uleb128 0x11
 5138 0b9b 01       		.uleb128 0x1
 5139 0b9c 52       		.byte	0x52
 5140 0b9d 02       		.uleb128 0x2
 5141 0b9e 7D       		.byte	0x7d
 5142 0b9f 00       		.sleb128 0
 5143 0ba0 11       		.uleb128 0x11
 5144 0ba1 01       		.uleb128 0x1
 5145 0ba2 53       		.byte	0x53
 5146 0ba3 01       		.uleb128 0x1
 5147 0ba4 33       		.byte	0x33
 5148 0ba5 00       		.byte	0
 5149 0ba6 13       		.uleb128 0x13
 5150 0ba7 92000000 		.4byte	.LVL148
 5151 0bab DD050000 		.4byte	0x5dd
 5152 0baf CA0B0000 		.4byte	0xbca
 5153 0bb3 11       		.uleb128 0x11
 5154 0bb4 01       		.uleb128 0x1
 5155 0bb5 50       		.byte	0x50
 5156 0bb6 02       		.uleb128 0x2
 5157 0bb7 08       		.byte	0x8
 5158 0bb8 2A       		.byte	0x2a
 5159 0bb9 11       		.uleb128 0x11
ARM GAS  C:\Users\PIERRE~1\AppData\Local\Temp\ccqD7qlI.s 			page 115


 5160 0bba 01       		.uleb128 0x1
 5161 0bbb 51       		.byte	0x51
 5162 0bbc 01       		.uleb128 0x1
 5163 0bbd 3B       		.byte	0x3b
 5164 0bbe 11       		.uleb128 0x11
 5165 0bbf 01       		.uleb128 0x1
 5166 0bc0 52       		.byte	0x52
 5167 0bc1 02       		.uleb128 0x2
 5168 0bc2 91       		.byte	0x91
 5169 0bc3 74       		.sleb128 -12
 5170 0bc4 11       		.uleb128 0x11
 5171 0bc5 01       		.uleb128 0x1
 5172 0bc6 53       		.byte	0x53
 5173 0bc7 01       		.uleb128 0x1
 5174 0bc8 31       		.byte	0x31
 5175 0bc9 00       		.byte	0
 5176 0bca 1D       		.uleb128 0x1d
 5177 0bcb 96000000 		.4byte	.LVL149
 5178 0bcf 06080000 		.4byte	0x806
 5179 0bd3 00       		.byte	0
 5180 0bd4 1E       		.uleb128 0x1e
 5181 0bd5 97000000 		.4byte	0x97
 5182 0bd9 E40B0000 		.4byte	0xbe4
 5183 0bdd 1F       		.uleb128 0x1f
 5184 0bde CA000000 		.4byte	0xca
 5185 0be2 00       		.byte	0
 5186 0be3 00       		.byte	0
 5187 0be4 14       		.uleb128 0x14
 5188 0be5 BA070000 		.4byte	.LASF76
 5189 0be9 01       		.byte	0x1
 5190 0bea 4C01     		.2byte	0x14c
 5191 0bec 00000000 		.4byte	.LFB77
 5192 0bf0 24000000 		.4byte	.LFE77-.LFB77
 5193 0bf4 01       		.uleb128 0x1
 5194 0bf5 9C       		.byte	0x9c
 5195 0bf6 450C0000 		.4byte	0xc45
 5196 0bfa 1A       		.uleb128 0x1a
 5197 0bfb AE050000 		.4byte	.LASF37
 5198 0bff 01       		.byte	0x1
 5199 0c00 4C01     		.2byte	0x14c
 5200 0c02 F2000000 		.4byte	0xf2
 5201 0c06 7D050000 		.4byte	.LLST31
 5202 0c0a 13       		.uleb128 0x13
 5203 0c0b 10000000 		.4byte	.LVL152
 5204 0c0f AF020000 		.4byte	0x2af
 5205 0c13 270C0000 		.4byte	0xc27
 5206 0c17 11       		.uleb128 0x11
 5207 0c18 01       		.uleb128 0x1
 5208 0c19 50       		.byte	0x50
 5209 0c1a 05       		.uleb128 0x5
 5210 0c1b 03       		.byte	0x3
 5211 0c1c 00000000 		.4byte	.LANCHOR0
 5212 0c20 11       		.uleb128 0x11
 5213 0c21 01       		.uleb128 0x1
 5214 0c22 51       		.byte	0x51
 5215 0c23 02       		.uleb128 0x2
 5216 0c24 74       		.byte	0x74
ARM GAS  C:\Users\PIERRE~1\AppData\Local\Temp\ccqD7qlI.s 			page 116


 5217 0c25 00       		.sleb128 0
 5218 0c26 00       		.byte	0
 5219 0c27 13       		.uleb128 0x13
 5220 0c28 18000000 		.4byte	.LVL153
 5221 0c2c 48070000 		.4byte	0x748
 5222 0c30 3B0C0000 		.4byte	0xc3b
 5223 0c34 11       		.uleb128 0x11
 5224 0c35 01       		.uleb128 0x1
 5225 0c36 50       		.byte	0x50
 5226 0c37 02       		.uleb128 0x2
 5227 0c38 74       		.byte	0x74
 5228 0c39 00       		.sleb128 0
 5229 0c3a 00       		.byte	0
 5230 0c3b 1D       		.uleb128 0x1d
 5231 0c3c 1C000000 		.4byte	.LVL154
 5232 0c40 A30A0000 		.4byte	0xaa3
 5233 0c44 00       		.byte	0
 5234 0c45 20       		.uleb128 0x20
 5235 0c46 3F070000 		.4byte	.LASF77
 5236 0c4a 01       		.byte	0x1
 5237 0c4b 2701     		.2byte	0x127
 5238 0c4d 00000000 		.4byte	.LFB71
 5239 0c51 2C000000 		.4byte	.LFE71-.LFB71
 5240 0c55 01       		.uleb128 0x1
 5241 0c56 9C       		.byte	0x9c
 5242 0c57 880C0000 		.4byte	0xc88
 5243 0c5b 13       		.uleb128 0x13
 5244 0c5c 1E000000 		.4byte	.LVL155
 5245 0c60 DD050000 		.4byte	0x5dd
 5246 0c64 7E0C0000 		.4byte	0xc7e
 5247 0c68 11       		.uleb128 0x11
 5248 0c69 01       		.uleb128 0x1
 5249 0c6a 50       		.byte	0x50
 5250 0c6b 01       		.uleb128 0x1
 5251 0c6c 38       		.byte	0x38
 5252 0c6d 11       		.uleb128 0x11
 5253 0c6e 01       		.uleb128 0x1
 5254 0c6f 51       		.byte	0x51
 5255 0c70 01       		.uleb128 0x1
 5256 0c71 31       		.byte	0x31
 5257 0c72 11       		.uleb128 0x11
 5258 0c73 01       		.uleb128 0x1
 5259 0c74 52       		.byte	0x52
 5260 0c75 02       		.uleb128 0x2
 5261 0c76 91       		.byte	0x91
 5262 0c77 74       		.sleb128 -12
 5263 0c78 11       		.uleb128 0x11
 5264 0c79 01       		.uleb128 0x1
 5265 0c7a 53       		.byte	0x53
 5266 0c7b 01       		.uleb128 0x1
 5267 0c7c 31       		.byte	0x31
 5268 0c7d 00       		.byte	0
 5269 0c7e 1D       		.uleb128 0x1d
 5270 0c7f 22000000 		.4byte	.LVL156
 5271 0c83 06080000 		.4byte	0x806
 5272 0c87 00       		.byte	0
 5273 0c88 14       		.uleb128 0x14
ARM GAS  C:\Users\PIERRE~1\AppData\Local\Temp\ccqD7qlI.s 			page 117


 5274 0c89 3D000000 		.4byte	.LASF78
 5275 0c8d 01       		.byte	0x1
 5276 0c8e 5401     		.2byte	0x154
 5277 0c90 00000000 		.4byte	.LFB78
 5278 0c94 24000000 		.4byte	.LFE78-.LFB78
 5279 0c98 01       		.uleb128 0x1
 5280 0c99 9C       		.byte	0x9c
 5281 0c9a E90C0000 		.4byte	0xce9
 5282 0c9e 1A       		.uleb128 0x1a
 5283 0c9f 63060000 		.4byte	.LASF40
 5284 0ca3 01       		.byte	0x1
 5285 0ca4 5401     		.2byte	0x154
 5286 0ca6 3E010000 		.4byte	0x13e
 5287 0caa AD050000 		.4byte	.LLST32
 5288 0cae 13       		.uleb128 0x13
 5289 0caf 10000000 		.4byte	.LVL159
 5290 0cb3 36030000 		.4byte	0x336
 5291 0cb7 CB0C0000 		.4byte	0xccb
 5292 0cbb 11       		.uleb128 0x11
 5293 0cbc 01       		.uleb128 0x1
 5294 0cbd 50       		.byte	0x50
 5295 0cbe 05       		.uleb128 0x5
 5296 0cbf 03       		.byte	0x3
 5297 0cc0 00000000 		.4byte	.LANCHOR0
 5298 0cc4 11       		.uleb128 0x11
 5299 0cc5 01       		.uleb128 0x1
 5300 0cc6 51       		.byte	0x51
 5301 0cc7 02       		.uleb128 0x2
 5302 0cc8 74       		.byte	0x74
 5303 0cc9 00       		.sleb128 0
 5304 0cca 00       		.byte	0
 5305 0ccb 13       		.uleb128 0x13
 5306 0ccc 18000000 		.4byte	.LVL160
 5307 0cd0 C2070000 		.4byte	0x7c2
 5308 0cd4 DF0C0000 		.4byte	0xcdf
 5309 0cd8 11       		.uleb128 0x11
 5310 0cd9 01       		.uleb128 0x1
 5311 0cda 50       		.byte	0x50
 5312 0cdb 02       		.uleb128 0x2
 5313 0cdc 74       		.byte	0x74
 5314 0cdd 00       		.sleb128 0
 5315 0cde 00       		.byte	0
 5316 0cdf 1D       		.uleb128 0x1d
 5317 0ce0 1C000000 		.4byte	.LVL161
 5318 0ce4 450C0000 		.4byte	0xc45
 5319 0ce8 00       		.byte	0
 5320 0ce9 20       		.uleb128 0x20
 5321 0cea E4040000 		.4byte	.LASF79
 5322 0cee 01       		.byte	0x1
 5323 0cef 3C01     		.2byte	0x13c
 5324 0cf1 00000000 		.4byte	.LFB74
 5325 0cf5 2C000000 		.4byte	.LFE74-.LFB74
 5326 0cf9 01       		.uleb128 0x1
 5327 0cfa 9C       		.byte	0x9c
 5328 0cfb 2C0D0000 		.4byte	0xd2c
 5329 0cff 13       		.uleb128 0x13
 5330 0d00 1E000000 		.4byte	.LVL162
ARM GAS  C:\Users\PIERRE~1\AppData\Local\Temp\ccqD7qlI.s 			page 118


 5331 0d04 DD050000 		.4byte	0x5dd
 5332 0d08 220D0000 		.4byte	0xd22
 5333 0d0c 11       		.uleb128 0x11
 5334 0d0d 01       		.uleb128 0x1
 5335 0d0e 50       		.byte	0x50
 5336 0d0f 01       		.uleb128 0x1
 5337 0d10 38       		.byte	0x38
 5338 0d11 11       		.uleb128 0x11
 5339 0d12 01       		.uleb128 0x1
 5340 0d13 51       		.byte	0x51
 5341 0d14 01       		.uleb128 0x1
 5342 0d15 32       		.byte	0x32
 5343 0d16 11       		.uleb128 0x11
 5344 0d17 01       		.uleb128 0x1
 5345 0d18 52       		.byte	0x52
 5346 0d19 02       		.uleb128 0x2
 5347 0d1a 91       		.byte	0x91
 5348 0d1b 74       		.sleb128 -12
 5349 0d1c 11       		.uleb128 0x11
 5350 0d1d 01       		.uleb128 0x1
 5351 0d1e 53       		.byte	0x53
 5352 0d1f 01       		.uleb128 0x1
 5353 0d20 31       		.byte	0x31
 5354 0d21 00       		.byte	0
 5355 0d22 1D       		.uleb128 0x1d
 5356 0d23 22000000 		.4byte	.LVL163
 5357 0d27 06080000 		.4byte	0x806
 5358 0d2b 00       		.byte	0
 5359 0d2c 14       		.uleb128 0x14
 5360 0d2d 2D080000 		.4byte	.LASF80
 5361 0d31 01       		.byte	0x1
 5362 0d32 5C01     		.2byte	0x15c
 5363 0d34 00000000 		.4byte	.LFB79
 5364 0d38 24000000 		.4byte	.LFE79-.LFB79
 5365 0d3c 01       		.uleb128 0x1
 5366 0d3d 9C       		.byte	0x9c
 5367 0d3e 8D0D0000 		.4byte	0xd8d
 5368 0d42 17       		.uleb128 0x17
 5369 0d43 70726600 		.ascii	"prf\000"
 5370 0d47 01       		.byte	0x1
 5371 0d48 5C01     		.2byte	0x15c
 5372 0d4a 21010000 		.4byte	0x121
 5373 0d4e DD050000 		.4byte	.LLST33
 5374 0d52 13       		.uleb128 0x13
 5375 0d53 10000000 		.4byte	.LVL166
 5376 0d57 AF020000 		.4byte	0x2af
 5377 0d5b 6F0D0000 		.4byte	0xd6f
 5378 0d5f 11       		.uleb128 0x11
 5379 0d60 01       		.uleb128 0x1
 5380 0d61 50       		.byte	0x50
 5381 0d62 05       		.uleb128 0x5
 5382 0d63 03       		.byte	0x3
 5383 0d64 00000000 		.4byte	.LANCHOR0
 5384 0d68 11       		.uleb128 0x11
 5385 0d69 01       		.uleb128 0x1
 5386 0d6a 51       		.byte	0x51
 5387 0d6b 02       		.uleb128 0x2
ARM GAS  C:\Users\PIERRE~1\AppData\Local\Temp\ccqD7qlI.s 			page 119


 5388 0d6c 74       		.byte	0x74
 5389 0d6d 00       		.sleb128 0
 5390 0d6e 00       		.byte	0
 5391 0d6f 13       		.uleb128 0x13
 5392 0d70 18000000 		.4byte	.LVL167
 5393 0d74 48070000 		.4byte	0x748
 5394 0d78 830D0000 		.4byte	0xd83
 5395 0d7c 11       		.uleb128 0x11
 5396 0d7d 01       		.uleb128 0x1
 5397 0d7e 50       		.byte	0x50
 5398 0d7f 02       		.uleb128 0x2
 5399 0d80 74       		.byte	0x74
 5400 0d81 00       		.sleb128 0
 5401 0d82 00       		.byte	0
 5402 0d83 1D       		.uleb128 0x1d
 5403 0d84 1C000000 		.4byte	.LVL168
 5404 0d88 E90C0000 		.4byte	0xce9
 5405 0d8c 00       		.byte	0
 5406 0d8d 24       		.uleb128 0x24
 5407 0d8e F1070000 		.4byte	.LASF82
 5408 0d92 01       		.byte	0x1
 5409 0d93 6401     		.2byte	0x164
 5410 0d95 00000000 		.4byte	.LFB80
 5411 0d99 24000000 		.4byte	.LFE80-.LFB80
 5412 0d9d 01       		.uleb128 0x1
 5413 0d9e 9C       		.byte	0x9c
 5414 0d9f E80D0000 		.4byte	0xde8
 5415 0da3 13       		.uleb128 0x13
 5416 0da4 08000000 		.4byte	.LVL169
 5417 0da8 85030000 		.4byte	0x385
 5418 0dac BA0D0000 		.4byte	0xdba
 5419 0db0 11       		.uleb128 0x11
 5420 0db1 01       		.uleb128 0x1
 5421 0db2 50       		.byte	0x50
 5422 0db3 05       		.uleb128 0x5
 5423 0db4 03       		.byte	0x3
 5424 0db5 00000000 		.4byte	.LANCHOR0
 5425 0db9 00       		.byte	0
 5426 0dba 1D       		.uleb128 0x1d
 5427 0dbb 0C000000 		.4byte	.LVL170
 5428 0dbf A30A0000 		.4byte	0xaa3
 5429 0dc3 1D       		.uleb128 0x1d
 5430 0dc4 10000000 		.4byte	.LVL171
 5431 0dc8 450C0000 		.4byte	0xc45
 5432 0dcc 1D       		.uleb128 0x1d
 5433 0dcd 14000000 		.4byte	.LVL172
 5434 0dd1 E90C0000 		.4byte	0xce9
 5435 0dd5 1D       		.uleb128 0x1d
 5436 0dd6 18000000 		.4byte	.LVL173
 5437 0dda C0060000 		.4byte	0x6c0
 5438 0dde 1D       		.uleb128 0x1d
 5439 0ddf 1C000000 		.4byte	.LVL174
 5440 0de3 8C070000 		.4byte	0x78c
 5441 0de7 00       		.byte	0
 5442 0de8 20       		.uleb128 0x20
 5443 0de9 E4020000 		.4byte	.LASF83
 5444 0ded 01       		.byte	0x1
ARM GAS  C:\Users\PIERRE~1\AppData\Local\Temp\ccqD7qlI.s 			page 120


 5445 0dee ED01     		.2byte	0x1ed
 5446 0df0 00000000 		.4byte	.LFB86
 5447 0df4 3C000000 		.4byte	.LFE86-.LFB86
 5448 0df8 01       		.uleb128 0x1
 5449 0df9 9C       		.byte	0x9c
 5450 0dfa 600E0000 		.4byte	0xe60
 5451 0dfe 1C       		.uleb128 0x1c
 5452 0dff 86030000 		.4byte	.LASF67
 5453 0e03 01       		.byte	0x1
 5454 0e04 EE01     		.2byte	0x1ee
 5455 0e06 D40B0000 		.4byte	0xbd4
 5456 0e0a 02       		.uleb128 0x2
 5457 0e0b 91       		.byte	0x91
 5458 0e0c 74       		.sleb128 -12
 5459 0e0d 19       		.uleb128 0x19
 5460 0e0e F4010000 		.4byte	.LASF38
 5461 0e12 01       		.byte	0x1
 5462 0e13 F001     		.2byte	0x1f0
 5463 0e15 97000000 		.4byte	0x97
 5464 0e19 0D060000 		.4byte	.LLST34
 5465 0e1d 13       		.uleb128 0x13
 5466 0e1e 10000000 		.4byte	.LVL175
 5467 0e22 D6040000 		.4byte	0x4d6
 5468 0e26 400E0000 		.4byte	0xe40
 5469 0e2a 11       		.uleb128 0x11
 5470 0e2b 01       		.uleb128 0x1
 5471 0e2c 50       		.byte	0x50
 5472 0e2d 01       		.uleb128 0x1
 5473 0e2e 4F       		.byte	0x4f
 5474 0e2f 11       		.uleb128 0x11
 5475 0e30 01       		.uleb128 0x1
 5476 0e31 51       		.byte	0x51
 5477 0e32 01       		.uleb128 0x1
 5478 0e33 33       		.byte	0x33
 5479 0e34 11       		.uleb128 0x11
 5480 0e35 01       		.uleb128 0x1
 5481 0e36 52       		.byte	0x52
 5482 0e37 02       		.uleb128 0x2
 5483 0e38 91       		.byte	0x91
 5484 0e39 74       		.sleb128 -12
 5485 0e3a 11       		.uleb128 0x11
 5486 0e3b 01       		.uleb128 0x1
 5487 0e3c 53       		.byte	0x53
 5488 0e3d 01       		.uleb128 0x1
 5489 0e3e 31       		.byte	0x31
 5490 0e3f 00       		.byte	0
 5491 0e40 10       		.uleb128 0x10
 5492 0e41 30000000 		.4byte	.LVL178
 5493 0e45 DD050000 		.4byte	0x5dd
 5494 0e49 11       		.uleb128 0x11
 5495 0e4a 01       		.uleb128 0x1
 5496 0e4b 50       		.byte	0x50
 5497 0e4c 01       		.uleb128 0x1
 5498 0e4d 4F       		.byte	0x4f
 5499 0e4e 11       		.uleb128 0x11
 5500 0e4f 01       		.uleb128 0x1
 5501 0e50 51       		.byte	0x51
ARM GAS  C:\Users\PIERRE~1\AppData\Local\Temp\ccqD7qlI.s 			page 121


 5502 0e51 01       		.uleb128 0x1
 5503 0e52 33       		.byte	0x33
 5504 0e53 11       		.uleb128 0x11
 5505 0e54 01       		.uleb128 0x1
 5506 0e55 52       		.byte	0x52
 5507 0e56 02       		.uleb128 0x2
 5508 0e57 91       		.byte	0x91
 5509 0e58 74       		.sleb128 -12
 5510 0e59 11       		.uleb128 0x11
 5511 0e5a 01       		.uleb128 0x1
 5512 0e5b 53       		.byte	0x53
 5513 0e5c 01       		.uleb128 0x1
 5514 0e5d 31       		.byte	0x31
 5515 0e5e 00       		.byte	0
 5516 0e5f 00       		.byte	0
 5517 0e60 14       		.uleb128 0x14
 5518 0e61 FD030000 		.4byte	.LASF84
 5519 0e65 01       		.byte	0x1
 5520 0e66 2802     		.2byte	0x228
 5521 0e68 00000000 		.4byte	.LFB89
 5522 0e6c 18000000 		.4byte	.LFE89-.LFB89
 5523 0e70 01       		.uleb128 0x1
 5524 0e71 9C       		.byte	0x9c
 5525 0e72 A40E0000 		.4byte	0xea4
 5526 0e76 1A       		.uleb128 0x1a
 5527 0e77 F4010000 		.4byte	.LASF38
 5528 0e7b 01       		.byte	0x1
 5529 0e7c 2802     		.2byte	0x228
 5530 0e7e 97000000 		.4byte	0x97
 5531 0e82 2F060000 		.4byte	.LLST35
 5532 0e86 13       		.uleb128 0x13
 5533 0e87 0C000000 		.4byte	.LVL181
 5534 0e8b 71020000 		.4byte	0x271
 5535 0e8f 9A0E0000 		.4byte	0xe9a
 5536 0e93 11       		.uleb128 0x11
 5537 0e94 01       		.uleb128 0x1
 5538 0e95 50       		.byte	0x50
 5539 0e96 02       		.uleb128 0x2
 5540 0e97 74       		.byte	0x74
 5541 0e98 06       		.sleb128 6
 5542 0e99 00       		.byte	0
 5543 0e9a 1D       		.uleb128 0x1d
 5544 0e9b 12000000 		.4byte	.LVL182
 5545 0e9f E80D0000 		.4byte	0xde8
 5546 0ea3 00       		.byte	0
 5547 0ea4 20       		.uleb128 0x20
 5548 0ea5 9F040000 		.4byte	.LASF85
 5549 0ea9 01       		.byte	0x1
 5550 0eaa 9001     		.2byte	0x190
 5551 0eac 00000000 		.4byte	.LFB82
 5552 0eb0 00010000 		.4byte	.LFE82-.LFB82
 5553 0eb4 01       		.uleb128 0x1
 5554 0eb5 9C       		.byte	0x9c
 5555 0eb6 D20F0000 		.4byte	0xfd2
 5556 0eba 1C       		.uleb128 0x1c
 5557 0ebb C3040000 		.4byte	.LASF86
 5558 0ebf 01       		.byte	0x1
ARM GAS  C:\Users\PIERRE~1\AppData\Local\Temp\ccqD7qlI.s 			page 122


 5559 0ec0 9101     		.2byte	0x191
 5560 0ec2 930A0000 		.4byte	0xa93
 5561 0ec6 02       		.uleb128 0x2
 5562 0ec7 91       		.byte	0x91
 5563 0ec8 74       		.sleb128 -12
 5564 0ec9 13       		.uleb128 0x13
 5565 0eca 36000000 		.4byte	.LVL183
 5566 0ece 62040000 		.4byte	0x462
 5567 0ed2 E60E0000 		.4byte	0xee6
 5568 0ed6 11       		.uleb128 0x11
 5569 0ed7 01       		.uleb128 0x1
 5570 0ed8 50       		.byte	0x50
 5571 0ed9 05       		.uleb128 0x5
 5572 0eda 0C       		.byte	0xc
 5573 0edb 2D001A31 		.4byte	0x311a002d
 5574 0edf 11       		.uleb128 0x11
 5575 0ee0 01       		.uleb128 0x1
 5576 0ee1 51       		.byte	0x51
 5577 0ee2 02       		.uleb128 0x2
 5578 0ee3 91       		.byte	0x91
 5579 0ee4 74       		.sleb128 -12
 5580 0ee5 00       		.byte	0
 5581 0ee6 13       		.uleb128 0x13
 5582 0ee7 46000000 		.4byte	.LVL184
 5583 0eeb 62040000 		.4byte	0x462
 5584 0eef 030F0000 		.4byte	0xf03
 5585 0ef3 11       		.uleb128 0x11
 5586 0ef4 01       		.uleb128 0x1
 5587 0ef5 50       		.byte	0x50
 5588 0ef6 05       		.uleb128 0x5
 5589 0ef7 0C       		.byte	0xc
 5590 0ef8 52001A33 		.4byte	0x331a0052
 5591 0efc 11       		.uleb128 0x11
 5592 0efd 01       		.uleb128 0x1
 5593 0efe 51       		.byte	0x51
 5594 0eff 02       		.uleb128 0x2
 5595 0f00 91       		.byte	0x91
 5596 0f01 74       		.sleb128 -12
 5597 0f02 00       		.byte	0
 5598 0f03 13       		.uleb128 0x13
 5599 0f04 56000000 		.4byte	.LVL185
 5600 0f08 62040000 		.4byte	0x462
 5601 0f0c 200F0000 		.4byte	0xf20
 5602 0f10 11       		.uleb128 0x11
 5603 0f11 01       		.uleb128 0x1
 5604 0f12 50       		.byte	0x50
 5605 0f13 05       		.uleb128 0x5
 5606 0f14 0C       		.byte	0xc
 5607 0f15 9A001A35 		.4byte	0x351a009a
 5608 0f19 11       		.uleb128 0x11
 5609 0f1a 01       		.uleb128 0x1
 5610 0f1b 51       		.byte	0x51
 5611 0f1c 02       		.uleb128 0x2
 5612 0f1d 91       		.byte	0x91
 5613 0f1e 74       		.sleb128 -12
 5614 0f1f 00       		.byte	0
 5615 0f20 13       		.uleb128 0x13
ARM GAS  C:\Users\PIERRE~1\AppData\Local\Temp\ccqD7qlI.s 			page 123


 5616 0f21 66000000 		.4byte	.LVL186
 5617 0f25 62040000 		.4byte	0x462
 5618 0f29 3D0F0000 		.4byte	0xf3d
 5619 0f2d 11       		.uleb128 0x11
 5620 0f2e 01       		.uleb128 0x1
 5621 0f2f 50       		.byte	0x50
 5622 0f30 05       		.uleb128 0x5
 5623 0f31 0C       		.byte	0xc
 5624 0f32 1D011A37 		.4byte	0x371a011d
 5625 0f36 11       		.uleb128 0x11
 5626 0f37 01       		.uleb128 0x1
 5627 0f38 51       		.byte	0x51
 5628 0f39 02       		.uleb128 0x2
 5629 0f3a 91       		.byte	0x91
 5630 0f3b 74       		.sleb128 -12
 5631 0f3c 00       		.byte	0
 5632 0f3d 13       		.uleb128 0x13
 5633 0f3e 92000000 		.4byte	.LVL187
 5634 0f42 62040000 		.4byte	0x462
 5635 0f46 5A0F0000 		.4byte	0xf5a
 5636 0f4a 11       		.uleb128 0x11
 5637 0f4b 01       		.uleb128 0x1
 5638 0f4c 50       		.byte	0x50
 5639 0f4d 05       		.uleb128 0x5
 5640 0f4e 0C       		.byte	0xc
 5641 0f4f 6B003B31 		.4byte	0x313b006b
 5642 0f53 11       		.uleb128 0x11
 5643 0f54 01       		.uleb128 0x1
 5644 0f55 51       		.byte	0x51
 5645 0f56 02       		.uleb128 0x2
 5646 0f57 91       		.byte	0x91
 5647 0f58 74       		.sleb128 -12
 5648 0f59 00       		.byte	0
 5649 0f5a 13       		.uleb128 0x13
 5650 0f5b A2000000 		.4byte	.LVL188
 5651 0f5f 62040000 		.4byte	0x462
 5652 0f63 770F0000 		.4byte	0xf77
 5653 0f67 11       		.uleb128 0x11
 5654 0f68 01       		.uleb128 0x1
 5655 0f69 50       		.byte	0x50
 5656 0f6a 05       		.uleb128 0x5
 5657 0f6b 0C       		.byte	0xc
 5658 0f6c BE003B33 		.4byte	0x333b00be
 5659 0f70 11       		.uleb128 0x11
 5660 0f71 01       		.uleb128 0x1
 5661 0f72 51       		.byte	0x51
 5662 0f73 02       		.uleb128 0x2
 5663 0f74 91       		.byte	0x91
 5664 0f75 74       		.sleb128 -12
 5665 0f76 00       		.byte	0
 5666 0f77 13       		.uleb128 0x13
 5667 0f78 B2000000 		.4byte	.LVL189
 5668 0f7c 62040000 		.4byte	0x462
 5669 0f80 940F0000 		.4byte	0xf94
 5670 0f84 11       		.uleb128 0x11
 5671 0f85 01       		.uleb128 0x1
 5672 0f86 50       		.byte	0x50
ARM GAS  C:\Users\PIERRE~1\AppData\Local\Temp\ccqD7qlI.s 			page 124


 5673 0f87 05       		.uleb128 0x5
 5674 0f88 0C       		.byte	0xc
 5675 0f89 5E013B35 		.4byte	0x353b015e
 5676 0f8d 11       		.uleb128 0x11
 5677 0f8e 01       		.uleb128 0x1
 5678 0f8f 51       		.byte	0x51
 5679 0f90 02       		.uleb128 0x2
 5680 0f91 91       		.byte	0x91
 5681 0f92 74       		.sleb128 -12
 5682 0f93 00       		.byte	0
 5683 0f94 13       		.uleb128 0x13
 5684 0f95 C2000000 		.4byte	.LVL190
 5685 0f99 62040000 		.4byte	0x462
 5686 0f9d B10F0000 		.4byte	0xfb1
 5687 0fa1 11       		.uleb128 0x11
 5688 0fa2 01       		.uleb128 0x1
 5689 0fa3 50       		.byte	0x50
 5690 0fa4 05       		.uleb128 0x5
 5691 0fa5 0C       		.byte	0xc
 5692 0fa6 96023B37 		.4byte	0x373b0296
 5693 0faa 11       		.uleb128 0x11
 5694 0fab 01       		.uleb128 0x1
 5695 0fac 51       		.byte	0x51
 5696 0fad 02       		.uleb128 0x2
 5697 0fae 91       		.byte	0x91
 5698 0faf 74       		.sleb128 -12
 5699 0fb0 00       		.byte	0
 5700 0fb1 10       		.uleb128 0x10
 5701 0fb2 D6000000 		.4byte	.LVL191
 5702 0fb6 DD050000 		.4byte	0x5dd
 5703 0fba 11       		.uleb128 0x11
 5704 0fbb 01       		.uleb128 0x1
 5705 0fbc 50       		.byte	0x50
 5706 0fbd 02       		.uleb128 0x2
 5707 0fbe 08       		.byte	0x8
 5708 0fbf 27       		.byte	0x27
 5709 0fc0 11       		.uleb128 0x11
 5710 0fc1 01       		.uleb128 0x1
 5711 0fc2 51       		.byte	0x51
 5712 0fc3 01       		.uleb128 0x1
 5713 0fc4 38       		.byte	0x38
 5714 0fc5 11       		.uleb128 0x11
 5715 0fc6 01       		.uleb128 0x1
 5716 0fc7 52       		.byte	0x52
 5717 0fc8 02       		.uleb128 0x2
 5718 0fc9 91       		.byte	0x91
 5719 0fca 74       		.sleb128 -12
 5720 0fcb 11       		.uleb128 0x11
 5721 0fcc 01       		.uleb128 0x1
 5722 0fcd 53       		.byte	0x53
 5723 0fce 01       		.uleb128 0x1
 5724 0fcf 34       		.byte	0x34
 5725 0fd0 00       		.byte	0
 5726 0fd1 00       		.byte	0
 5727 0fd2 20       		.uleb128 0x20
 5728 0fd3 E3030000 		.4byte	.LASF87
 5729 0fd7 01       		.byte	0x1
ARM GAS  C:\Users\PIERRE~1\AppData\Local\Temp\ccqD7qlI.s 			page 125


 5730 0fd8 6D01     		.2byte	0x16d
 5731 0fda 00000000 		.4byte	.LFB81
 5732 0fde 74000000 		.4byte	.LFE81-.LFB81
 5733 0fe2 01       		.uleb128 0x1
 5734 0fe3 9C       		.byte	0x9c
 5735 0fe4 3D100000 		.4byte	0x103d
 5736 0fe8 19       		.uleb128 0x19
 5737 0fe9 D7040000 		.4byte	.LASF39
 5738 0fed 01       		.byte	0x1
 5739 0fee 6E01     		.2byte	0x16e
 5740 0ff0 A2000000 		.4byte	0xa2
 5741 0ff4 50060000 		.4byte	.LLST36
 5742 0ff8 1C       		.uleb128 0x1c
 5743 0ff9 ED060000 		.4byte	.LASF88
 5744 0ffd 01       		.byte	0x1
 5745 0ffe 6F01     		.2byte	0x16f
 5746 1000 38070000 		.4byte	0x738
 5747 1004 02       		.uleb128 0x2
 5748 1005 91       		.byte	0x91
 5749 1006 74       		.sleb128 -12
 5750 1007 13       		.uleb128 0x13
 5751 1008 5E000000 		.4byte	.LVL202
 5752 100c 9C040000 		.4byte	0x49c
 5753 1010 1B100000 		.4byte	0x101b
 5754 1014 11       		.uleb128 0x11
 5755 1015 01       		.uleb128 0x1
 5756 1016 51       		.byte	0x51
 5757 1017 02       		.uleb128 0x2
 5758 1018 91       		.byte	0x91
 5759 1019 74       		.sleb128 -12
 5760 101a 00       		.byte	0
 5761 101b 10       		.uleb128 0x10
 5762 101c 6A000000 		.4byte	.LVL203
 5763 1020 DD050000 		.4byte	0x5dd
 5764 1024 11       		.uleb128 0x11
 5765 1025 01       		.uleb128 0x1
 5766 1026 50       		.byte	0x50
 5767 1027 02       		.uleb128 0x2
 5768 1028 08       		.byte	0x8
 5769 1029 27       		.byte	0x27
 5770 102a 11       		.uleb128 0x11
 5771 102b 01       		.uleb128 0x1
 5772 102c 51       		.byte	0x51
 5773 102d 02       		.uleb128 0x2
 5774 102e 08       		.byte	0x8
 5775 102f 20       		.byte	0x20
 5776 1030 11       		.uleb128 0x11
 5777 1031 01       		.uleb128 0x1
 5778 1032 52       		.byte	0x52
 5779 1033 02       		.uleb128 0x2
 5780 1034 91       		.byte	0x91
 5781 1035 74       		.sleb128 -12
 5782 1036 11       		.uleb128 0x11
 5783 1037 01       		.uleb128 0x1
 5784 1038 53       		.byte	0x53
 5785 1039 01       		.uleb128 0x1
 5786 103a 32       		.byte	0x32
ARM GAS  C:\Users\PIERRE~1\AppData\Local\Temp\ccqD7qlI.s 			page 126


 5787 103b 00       		.byte	0
 5788 103c 00       		.byte	0
 5789 103d 20       		.uleb128 0x20
 5790 103e 2D050000 		.4byte	.LASF89
 5791 1042 01       		.byte	0x1
 5792 1043 F601     		.2byte	0x1f6
 5793 1045 00000000 		.4byte	.LFB87
 5794 1049 88000000 		.4byte	.LFE87-.LFB87
 5795 104d 01       		.uleb128 0x1
 5796 104e 9C       		.byte	0x9c
 5797 104f 67110000 		.4byte	0x1167
 5798 1053 1C       		.uleb128 0x1c
 5799 1054 94040000 		.4byte	.LASF90
 5800 1058 01       		.byte	0x1
 5801 1059 F701     		.2byte	0x1f7
 5802 105b 38070000 		.4byte	0x738
 5803 105f 02       		.uleb128 0x2
 5804 1060 91       		.byte	0x91
 5805 1061 74       		.sleb128 -12
 5806 1062 1C       		.uleb128 0x1c
 5807 1063 20060000 		.4byte	.LASF91
 5808 1067 01       		.byte	0x1
 5809 1068 F801     		.2byte	0x1f8
 5810 106a 38070000 		.4byte	0x738
 5811 106e 02       		.uleb128 0x2
 5812 106f 91       		.byte	0x91
 5813 1070 70       		.sleb128 -16
 5814 1071 13       		.uleb128 0x13
 5815 1072 32000000 		.4byte	.LVL204
 5816 1076 9C040000 		.4byte	0x49c
 5817 107a 8A100000 		.4byte	0x108a
 5818 107e 11       		.uleb128 0x11
 5819 107f 01       		.uleb128 0x1
 5820 1080 50       		.byte	0x50
 5821 1081 01       		.uleb128 0x1
 5822 1082 40       		.byte	0x40
 5823 1083 11       		.uleb128 0x11
 5824 1084 01       		.uleb128 0x1
 5825 1085 51       		.byte	0x51
 5826 1086 02       		.uleb128 0x2
 5827 1087 91       		.byte	0x91
 5828 1088 74       		.sleb128 -12
 5829 1089 00       		.byte	0
 5830 108a 13       		.uleb128 0x13
 5831 108b 3A000000 		.4byte	.LVL205
 5832 108f 9C040000 		.4byte	0x49c
 5833 1093 A3100000 		.4byte	0x10a3
 5834 1097 11       		.uleb128 0x11
 5835 1098 01       		.uleb128 0x1
 5836 1099 50       		.byte	0x50
 5837 109a 01       		.uleb128 0x1
 5838 109b 40       		.byte	0x40
 5839 109c 11       		.uleb128 0x11
 5840 109d 01       		.uleb128 0x1
 5841 109e 51       		.byte	0x51
 5842 109f 02       		.uleb128 0x2
 5843 10a0 7D       		.byte	0x7d
ARM GAS  C:\Users\PIERRE~1\AppData\Local\Temp\ccqD7qlI.s 			page 127


 5844 10a1 00       		.sleb128 0
 5845 10a2 00       		.byte	0
 5846 10a3 13       		.uleb128 0x13
 5847 10a4 44000000 		.4byte	.LVL206
 5848 10a8 9C040000 		.4byte	0x49c
 5849 10ac BD100000 		.4byte	0x10bd
 5850 10b0 11       		.uleb128 0x11
 5851 10b1 01       		.uleb128 0x1
 5852 10b2 50       		.byte	0x50
 5853 10b3 02       		.uleb128 0x2
 5854 10b4 08       		.byte	0x8
 5855 10b5 20       		.byte	0x20
 5856 10b6 11       		.uleb128 0x11
 5857 10b7 01       		.uleb128 0x1
 5858 10b8 51       		.byte	0x51
 5859 10b9 02       		.uleb128 0x2
 5860 10ba 91       		.byte	0x91
 5861 10bb 74       		.sleb128 -12
 5862 10bc 00       		.byte	0
 5863 10bd 13       		.uleb128 0x13
 5864 10be 4C000000 		.4byte	.LVL207
 5865 10c2 9C040000 		.4byte	0x49c
 5866 10c6 D7100000 		.4byte	0x10d7
 5867 10ca 11       		.uleb128 0x11
 5868 10cb 01       		.uleb128 0x1
 5869 10cc 50       		.byte	0x50
 5870 10cd 02       		.uleb128 0x2
 5871 10ce 08       		.byte	0x8
 5872 10cf 28       		.byte	0x28
 5873 10d0 11       		.uleb128 0x11
 5874 10d1 01       		.uleb128 0x1
 5875 10d2 51       		.byte	0x51
 5876 10d3 02       		.uleb128 0x2
 5877 10d4 7D       		.byte	0x7d
 5878 10d5 00       		.sleb128 0
 5879 10d6 00       		.byte	0
 5880 10d7 13       		.uleb128 0x13
 5881 10d8 56000000 		.4byte	.LVL208
 5882 10dc 9C040000 		.4byte	0x49c
 5883 10e0 F1100000 		.4byte	0x10f1
 5884 10e4 11       		.uleb128 0x11
 5885 10e5 01       		.uleb128 0x1
 5886 10e6 50       		.byte	0x50
 5887 10e7 02       		.uleb128 0x2
 5888 10e8 08       		.byte	0x8
 5889 10e9 64       		.byte	0x64
 5890 10ea 11       		.uleb128 0x11
 5891 10eb 01       		.uleb128 0x1
 5892 10ec 51       		.byte	0x51
 5893 10ed 02       		.uleb128 0x2
 5894 10ee 91       		.byte	0x91
 5895 10ef 74       		.sleb128 -12
 5896 10f0 00       		.byte	0
 5897 10f1 13       		.uleb128 0x13
 5898 10f2 5E000000 		.4byte	.LVL209
 5899 10f6 9C040000 		.4byte	0x49c
 5900 10fa 0B110000 		.4byte	0x110b
ARM GAS  C:\Users\PIERRE~1\AppData\Local\Temp\ccqD7qlI.s 			page 128


 5901 10fe 11       		.uleb128 0x11
 5902 10ff 01       		.uleb128 0x1
 5903 1100 50       		.byte	0x50
 5904 1101 02       		.uleb128 0x2
 5905 1102 08       		.byte	0x8
 5906 1103 28       		.byte	0x28
 5907 1104 11       		.uleb128 0x11
 5908 1105 01       		.uleb128 0x1
 5909 1106 51       		.byte	0x51
 5910 1107 02       		.uleb128 0x2
 5911 1108 7D       		.byte	0x7d
 5912 1109 00       		.sleb128 0
 5913 110a 00       		.byte	0
 5914 110b 13       		.uleb128 0x13
 5915 110c 6A000000 		.4byte	.LVL210
 5916 1110 DD050000 		.4byte	0x5dd
 5917 1114 2F110000 		.4byte	0x112f
 5918 1118 11       		.uleb128 0x11
 5919 1119 01       		.uleb128 0x1
 5920 111a 50       		.byte	0x50
 5921 111b 02       		.uleb128 0x2
 5922 111c 08       		.byte	0x8
 5923 111d 27       		.byte	0x27
 5924 111e 11       		.uleb128 0x11
 5925 111f 01       		.uleb128 0x1
 5926 1120 51       		.byte	0x51
 5927 1121 01       		.uleb128 0x1
 5928 1122 36       		.byte	0x36
 5929 1123 11       		.uleb128 0x11
 5930 1124 01       		.uleb128 0x1
 5931 1125 52       		.byte	0x52
 5932 1126 02       		.uleb128 0x2
 5933 1127 91       		.byte	0x91
 5934 1128 74       		.sleb128 -12
 5935 1129 11       		.uleb128 0x11
 5936 112a 01       		.uleb128 0x1
 5937 112b 53       		.byte	0x53
 5938 112c 01       		.uleb128 0x1
 5939 112d 32       		.byte	0x32
 5940 112e 00       		.byte	0
 5941 112f 13       		.uleb128 0x13
 5942 1130 76000000 		.4byte	.LVL211
 5943 1134 DD050000 		.4byte	0x5dd
 5944 1138 54110000 		.4byte	0x1154
 5945 113c 11       		.uleb128 0x11
 5946 113d 01       		.uleb128 0x1
 5947 113e 50       		.byte	0x50
 5948 113f 02       		.uleb128 0x2
 5949 1140 08       		.byte	0x8
 5950 1141 27       		.byte	0x27
 5951 1142 11       		.uleb128 0x11
 5952 1143 01       		.uleb128 0x1
 5953 1144 51       		.byte	0x51
 5954 1145 02       		.uleb128 0x2
 5955 1146 08       		.byte	0x8
 5956 1147 26       		.byte	0x26
 5957 1148 11       		.uleb128 0x11
ARM GAS  C:\Users\PIERRE~1\AppData\Local\Temp\ccqD7qlI.s 			page 129


 5958 1149 01       		.uleb128 0x1
 5959 114a 52       		.byte	0x52
 5960 114b 02       		.uleb128 0x2
 5961 114c 7D       		.byte	0x7d
 5962 114d 00       		.sleb128 0
 5963 114e 11       		.uleb128 0x11
 5964 114f 01       		.uleb128 0x1
 5965 1150 53       		.byte	0x53
 5966 1151 01       		.uleb128 0x1
 5967 1152 32       		.byte	0x32
 5968 1153 00       		.byte	0
 5969 1154 1D       		.uleb128 0x1d
 5970 1155 7A000000 		.4byte	.LVL212
 5971 1159 A40E0000 		.4byte	0xea4
 5972 115d 1D       		.uleb128 0x1d
 5973 115e 7E000000 		.4byte	.LVL213
 5974 1162 D20F0000 		.4byte	0xfd2
 5975 1166 00       		.byte	0
 5976 1167 14       		.uleb128 0x14
 5977 1168 38060000 		.4byte	.LASF92
 5978 116c 01       		.byte	0x1
 5979 116d 2D02     		.2byte	0x22d
 5980 116f 00000000 		.4byte	.LFB90
 5981 1173 18000000 		.4byte	.LFE90-.LFB90
 5982 1177 01       		.uleb128 0x1
 5983 1178 9C       		.byte	0x9c
 5984 1179 AB110000 		.4byte	0x11ab
 5985 117d 1A       		.uleb128 0x1a
 5986 117e D7040000 		.4byte	.LASF39
 5987 1182 01       		.byte	0x1
 5988 1183 2D02     		.2byte	0x22d
 5989 1185 61010000 		.4byte	0x161
 5990 1189 D2060000 		.4byte	.LLST37
 5991 118d 13       		.uleb128 0x13
 5992 118e 0C000000 		.4byte	.LVL216
 5993 1192 FE020000 		.4byte	0x2fe
 5994 1196 A1110000 		.4byte	0x11a1
 5995 119a 11       		.uleb128 0x11
 5996 119b 01       		.uleb128 0x1
 5997 119c 50       		.byte	0x50
 5998 119d 02       		.uleb128 0x2
 5999 119e 74       		.byte	0x74
 6000 119f 06       		.sleb128 6
 6001 11a0 00       		.byte	0
 6002 11a1 1D       		.uleb128 0x1d
 6003 11a2 12000000 		.4byte	.LVL217
 6004 11a6 3D100000 		.4byte	0x103d
 6005 11aa 00       		.byte	0
 6006 11ab 20       		.uleb128 0x20
 6007 11ac CC030000 		.4byte	.LASF93
 6008 11b0 01       		.byte	0x1
 6009 11b1 CD01     		.2byte	0x1cd
 6010 11b3 00000000 		.4byte	.LFB84
 6011 11b7 40000000 		.4byte	.LFE84-.LFB84
 6012 11bb 01       		.uleb128 0x1
 6013 11bc 9C       		.byte	0x9c
 6014 11bd F1110000 		.4byte	0x11f1
ARM GAS  C:\Users\PIERRE~1\AppData\Local\Temp\ccqD7qlI.s 			page 130


 6015 11c1 1C       		.uleb128 0x1c
 6016 11c2 81070000 		.4byte	.LASF94
 6017 11c6 01       		.byte	0x1
 6018 11c7 CE01     		.2byte	0x1ce
 6019 11c9 D40B0000 		.4byte	0xbd4
 6020 11cd 02       		.uleb128 0x2
 6021 11ce 91       		.byte	0x91
 6022 11cf 74       		.sleb128 -12
 6023 11d0 10       		.uleb128 0x10
 6024 11d1 34000000 		.4byte	.LVL218
 6025 11d5 DD050000 		.4byte	0x5dd
 6026 11d9 11       		.uleb128 0x11
 6027 11da 01       		.uleb128 0x1
 6028 11db 50       		.byte	0x50
 6029 11dc 02       		.uleb128 0x2
 6030 11dd 08       		.byte	0x8
 6031 11de 28       		.byte	0x28
 6032 11df 11       		.uleb128 0x11
 6033 11e0 01       		.uleb128 0x1
 6034 11e1 51       		.byte	0x51
 6035 11e2 01       		.uleb128 0x1
 6036 11e3 3B       		.byte	0x3b
 6037 11e4 11       		.uleb128 0x11
 6038 11e5 01       		.uleb128 0x1
 6039 11e6 52       		.byte	0x52
 6040 11e7 02       		.uleb128 0x2
 6041 11e8 91       		.byte	0x91
 6042 11e9 74       		.sleb128 -12
 6043 11ea 11       		.uleb128 0x11
 6044 11eb 01       		.uleb128 0x1
 6045 11ec 53       		.byte	0x53
 6046 11ed 01       		.uleb128 0x1
 6047 11ee 31       		.byte	0x31
 6048 11ef 00       		.byte	0
 6049 11f0 00       		.byte	0
 6050 11f1 14       		.uleb128 0x14
 6051 11f2 6D040000 		.4byte	.LASF95
 6052 11f6 01       		.byte	0x1
 6053 11f7 3202     		.2byte	0x232
 6054 11f9 00000000 		.4byte	.LFB91
 6055 11fd 24000000 		.4byte	.LFE91-.LFB91
 6056 1201 01       		.uleb128 0x1
 6057 1202 9C       		.byte	0x9c
 6058 1203 52120000 		.4byte	0x1252
 6059 1207 1A       		.uleb128 0x1a
 6060 1208 AE050000 		.4byte	.LASF37
 6061 120c 01       		.byte	0x1
 6062 120d 3202     		.2byte	0x232
 6063 120f F2000000 		.4byte	0xf2
 6064 1213 F3060000 		.4byte	.LLST38
 6065 1217 13       		.uleb128 0x13
 6066 1218 10000000 		.4byte	.LVL221
 6067 121c AF020000 		.4byte	0x2af
 6068 1220 34120000 		.4byte	0x1234
 6069 1224 11       		.uleb128 0x11
 6070 1225 01       		.uleb128 0x1
 6071 1226 50       		.byte	0x50
ARM GAS  C:\Users\PIERRE~1\AppData\Local\Temp\ccqD7qlI.s 			page 131


 6072 1227 05       		.uleb128 0x5
 6073 1228 03       		.byte	0x3
 6074 1229 06000000 		.4byte	.LANCHOR0+6
 6075 122d 11       		.uleb128 0x11
 6076 122e 01       		.uleb128 0x1
 6077 122f 51       		.byte	0x51
 6078 1230 02       		.uleb128 0x2
 6079 1231 74       		.byte	0x74
 6080 1232 00       		.sleb128 0
 6081 1233 00       		.byte	0
 6082 1234 13       		.uleb128 0x13
 6083 1235 18000000 		.4byte	.LVL222
 6084 1239 600E0000 		.4byte	0xe60
 6085 123d 48120000 		.4byte	0x1248
 6086 1241 11       		.uleb128 0x11
 6087 1242 01       		.uleb128 0x1
 6088 1243 50       		.byte	0x50
 6089 1244 02       		.uleb128 0x2
 6090 1245 74       		.byte	0x74
 6091 1246 00       		.sleb128 0
 6092 1247 00       		.byte	0
 6093 1248 1D       		.uleb128 0x1d
 6094 1249 1C000000 		.4byte	.LVL223
 6095 124d AB110000 		.4byte	0x11ab
 6096 1251 00       		.byte	0
 6097 1252 20       		.uleb128 0x20
 6098 1253 16000000 		.4byte	.LASF96
 6099 1257 01       		.byte	0x1
 6100 1258 DA01     		.2byte	0x1da
 6101 125a 00000000 		.4byte	.LFB85
 6102 125e 60000000 		.4byte	.LFE85-.LFB85
 6103 1262 01       		.uleb128 0x1
 6104 1263 9C       		.byte	0x9c
 6105 1264 09130000 		.4byte	0x1309
 6106 1268 23       		.uleb128 0x23
 6107 1269 73797300 		.ascii	"sys\000"
 6108 126d 01       		.byte	0x1
 6109 126e DB01     		.2byte	0x1db
 6110 1270 D40B0000 		.4byte	0xbd4
 6111 1274 02       		.uleb128 0x2
 6112 1275 91       		.byte	0x91
 6113 1276 74       		.sleb128 -12
 6114 1277 1C       		.uleb128 0x1c
 6115 1278 09070000 		.4byte	.LASF97
 6116 127c 01       		.byte	0x1
 6117 127d DC01     		.2byte	0x1dc
 6118 127f 38070000 		.4byte	0x738
 6119 1283 02       		.uleb128 0x2
 6120 1284 91       		.byte	0x91
 6121 1285 70       		.sleb128 -16
 6122 1286 13       		.uleb128 0x13
 6123 1287 1E000000 		.4byte	.LVL224
 6124 128b 9C040000 		.4byte	0x49c
 6125 128f 9F120000 		.4byte	0x129f
 6126 1293 11       		.uleb128 0x11
 6127 1294 01       		.uleb128 0x1
 6128 1295 50       		.byte	0x50
ARM GAS  C:\Users\PIERRE~1\AppData\Local\Temp\ccqD7qlI.s 			page 132


 6129 1296 01       		.uleb128 0x1
 6130 1297 3A       		.byte	0x3a
 6131 1298 11       		.uleb128 0x11
 6132 1299 01       		.uleb128 0x1
 6133 129a 51       		.byte	0x51
 6134 129b 02       		.uleb128 0x2
 6135 129c 7D       		.byte	0x7d
 6136 129d 00       		.sleb128 0
 6137 129e 00       		.byte	0
 6138 129f 13       		.uleb128 0x13
 6139 12a0 32000000 		.4byte	.LVL225
 6140 12a4 9C040000 		.4byte	0x49c
 6141 12a8 B8120000 		.4byte	0x12b8
 6142 12ac 11       		.uleb128 0x11
 6143 12ad 01       		.uleb128 0x1
 6144 12ae 50       		.byte	0x50
 6145 12af 01       		.uleb128 0x1
 6146 12b0 31       		.byte	0x31
 6147 12b1 11       		.uleb128 0x11
 6148 12b2 01       		.uleb128 0x1
 6149 12b3 51       		.byte	0x51
 6150 12b4 02       		.uleb128 0x2
 6151 12b5 7D       		.byte	0x7d
 6152 12b6 00       		.sleb128 0
 6153 12b7 00       		.byte	0
 6154 12b8 13       		.uleb128 0x13
 6155 12b9 44000000 		.4byte	.LVL226
 6156 12bd DD050000 		.4byte	0x5dd
 6157 12c1 DB120000 		.4byte	0x12db
 6158 12c5 11       		.uleb128 0x11
 6159 12c6 01       		.uleb128 0x1
 6160 12c7 50       		.byte	0x50
 6161 12c8 01       		.uleb128 0x1
 6162 12c9 34       		.byte	0x34
 6163 12ca 11       		.uleb128 0x11
 6164 12cb 01       		.uleb128 0x1
 6165 12cc 51       		.byte	0x51
 6166 12cd 01       		.uleb128 0x1
 6167 12ce 32       		.byte	0x32
 6168 12cf 11       		.uleb128 0x11
 6169 12d0 01       		.uleb128 0x1
 6170 12d1 52       		.byte	0x52
 6171 12d2 02       		.uleb128 0x2
 6172 12d3 91       		.byte	0x91
 6173 12d4 74       		.sleb128 -12
 6174 12d5 11       		.uleb128 0x11
 6175 12d6 01       		.uleb128 0x1
 6176 12d7 53       		.byte	0x53
 6177 12d8 01       		.uleb128 0x1
 6178 12d9 31       		.byte	0x31
 6179 12da 00       		.byte	0
 6180 12db 13       		.uleb128 0x13
 6181 12dc 50000000 		.4byte	.LVL227
 6182 12e0 DD050000 		.4byte	0x5dd
 6183 12e4 FF120000 		.4byte	0x12ff
 6184 12e8 11       		.uleb128 0x11
 6185 12e9 01       		.uleb128 0x1
ARM GAS  C:\Users\PIERRE~1\AppData\Local\Temp\ccqD7qlI.s 			page 133


 6186 12ea 50       		.byte	0x50
 6187 12eb 02       		.uleb128 0x2
 6188 12ec 08       		.byte	0x8
 6189 12ed 27       		.byte	0x27
 6190 12ee 11       		.uleb128 0x11
 6191 12ef 01       		.uleb128 0x1
 6192 12f0 51       		.byte	0x51
 6193 12f1 01       		.uleb128 0x1
 6194 12f2 32       		.byte	0x32
 6195 12f3 11       		.uleb128 0x11
 6196 12f4 01       		.uleb128 0x1
 6197 12f5 52       		.byte	0x52
 6198 12f6 02       		.uleb128 0x2
 6199 12f7 7D       		.byte	0x7d
 6200 12f8 00       		.sleb128 0
 6201 12f9 11       		.uleb128 0x11
 6202 12fa 01       		.uleb128 0x1
 6203 12fb 53       		.byte	0x53
 6204 12fc 01       		.uleb128 0x1
 6205 12fd 32       		.byte	0x32
 6206 12fe 00       		.byte	0
 6207 12ff 1D       		.uleb128 0x1d
 6208 1300 54000000 		.4byte	.LVL228
 6209 1304 D20F0000 		.4byte	0xfd2
 6210 1308 00       		.byte	0
 6211 1309 14       		.uleb128 0x14
 6212 130a 65050000 		.4byte	.LASF98
 6213 130e 01       		.byte	0x1
 6214 130f 3B02     		.2byte	0x23b
 6215 1311 00000000 		.4byte	.LFB92
 6216 1315 24000000 		.4byte	.LFE92-.LFB92
 6217 1319 01       		.uleb128 0x1
 6218 131a 9C       		.byte	0x9c
 6219 131b 6A130000 		.4byte	0x136a
 6220 131f 1A       		.uleb128 0x1a
 6221 1320 63060000 		.4byte	.LASF40
 6222 1324 01       		.byte	0x1
 6223 1325 3B02     		.2byte	0x23b
 6224 1327 3E010000 		.4byte	0x13e
 6225 132b 23070000 		.4byte	.LLST39
 6226 132f 13       		.uleb128 0x13
 6227 1330 10000000 		.4byte	.LVL231
 6228 1334 36030000 		.4byte	0x336
 6229 1338 4C130000 		.4byte	0x134c
 6230 133c 11       		.uleb128 0x11
 6231 133d 01       		.uleb128 0x1
 6232 133e 50       		.byte	0x50
 6233 133f 05       		.uleb128 0x5
 6234 1340 03       		.byte	0x3
 6235 1341 06000000 		.4byte	.LANCHOR0+6
 6236 1345 11       		.uleb128 0x11
 6237 1346 01       		.uleb128 0x1
 6238 1347 51       		.byte	0x51
 6239 1348 02       		.uleb128 0x2
 6240 1349 74       		.byte	0x74
 6241 134a 00       		.sleb128 0
 6242 134b 00       		.byte	0
ARM GAS  C:\Users\PIERRE~1\AppData\Local\Temp\ccqD7qlI.s 			page 134


 6243 134c 13       		.uleb128 0x13
 6244 134d 18000000 		.4byte	.LVL232
 6245 1351 67110000 		.4byte	0x1167
 6246 1355 60130000 		.4byte	0x1360
 6247 1359 11       		.uleb128 0x11
 6248 135a 01       		.uleb128 0x1
 6249 135b 50       		.byte	0x50
 6250 135c 02       		.uleb128 0x2
 6251 135d 74       		.byte	0x74
 6252 135e 00       		.sleb128 0
 6253 135f 00       		.byte	0
 6254 1360 1D       		.uleb128 0x1d
 6255 1361 1C000000 		.4byte	.LVL233
 6256 1365 52120000 		.4byte	0x1252
 6257 1369 00       		.byte	0
 6258 136a 20       		.uleb128 0x20
 6259 136b 6C000000 		.4byte	.LASF99
 6260 136f 01       		.byte	0x1
 6261 1370 0D02     		.2byte	0x20d
 6262 1372 00000000 		.4byte	.LFB88
 6263 1376 A8000000 		.4byte	.LFE88-.LFB88
 6264 137a 01       		.uleb128 0x1
 6265 137b 9C       		.byte	0x9c
 6266 137c 1A150000 		.4byte	0x151a
 6267 1380 23       		.uleb128 0x23
 6268 1381 70726600 		.ascii	"prf\000"
 6269 1385 01       		.byte	0x1
 6270 1386 0E02     		.2byte	0x20e
 6271 1388 D40B0000 		.4byte	0xbd4
 6272 138c 02       		.uleb128 0x2
 6273 138d 91       		.byte	0x91
 6274 138e 74       		.sleb128 -12
 6275 138f 1C       		.uleb128 0x1c
 6276 1390 D1070000 		.4byte	.LASF100
 6277 1394 01       		.byte	0x1
 6278 1395 1302     		.2byte	0x213
 6279 1397 38070000 		.4byte	0x738
 6280 139b 02       		.uleb128 0x2
 6281 139c 91       		.byte	0x91
 6282 139d 70       		.sleb128 -16
 6283 139e 1C       		.uleb128 0x1c
 6284 139f A5050000 		.4byte	.LASF101
 6285 13a3 01       		.byte	0x1
 6286 13a4 1402     		.2byte	0x214
 6287 13a6 38070000 		.4byte	0x738
 6288 13aa 02       		.uleb128 0x2
 6289 13ab 91       		.byte	0x91
 6290 13ac 6C       		.sleb128 -20
 6291 13ad 1C       		.uleb128 0x1c
 6292 13ae 0B080000 		.4byte	.LASF102
 6293 13b2 01       		.byte	0x1
 6294 13b3 1502     		.2byte	0x215
 6295 13b5 38070000 		.4byte	0x738
 6296 13b9 02       		.uleb128 0x2
 6297 13ba 91       		.byte	0x91
 6298 13bb 68       		.sleb128 -24
 6299 13bc 13       		.uleb128 0x13
ARM GAS  C:\Users\PIERRE~1\AppData\Local\Temp\ccqD7qlI.s 			page 135


 6300 13bd 10000000 		.4byte	.LVL234
 6301 13c1 D6040000 		.4byte	0x4d6
 6302 13c5 DF130000 		.4byte	0x13df
 6303 13c9 11       		.uleb128 0x11
 6304 13ca 01       		.uleb128 0x1
 6305 13cb 50       		.byte	0x50
 6306 13cc 01       		.uleb128 0x1
 6307 13cd 4F       		.byte	0x4f
 6308 13ce 11       		.uleb128 0x11
 6309 13cf 01       		.uleb128 0x1
 6310 13d0 51       		.byte	0x51
 6311 13d1 01       		.uleb128 0x1
 6312 13d2 32       		.byte	0x32
 6313 13d3 11       		.uleb128 0x11
 6314 13d4 01       		.uleb128 0x1
 6315 13d5 52       		.byte	0x52
 6316 13d6 02       		.uleb128 0x2
 6317 13d7 91       		.byte	0x91
 6318 13d8 74       		.sleb128 -12
 6319 13d9 11       		.uleb128 0x11
 6320 13da 01       		.uleb128 0x1
 6321 13db 53       		.byte	0x53
 6322 13dc 01       		.uleb128 0x1
 6323 13dd 31       		.byte	0x31
 6324 13de 00       		.byte	0
 6325 13df 13       		.uleb128 0x13
 6326 13e0 30000000 		.4byte	.LVL235
 6327 13e4 DD050000 		.4byte	0x5dd
 6328 13e8 02140000 		.4byte	0x1402
 6329 13ec 11       		.uleb128 0x11
 6330 13ed 01       		.uleb128 0x1
 6331 13ee 50       		.byte	0x50
 6332 13ef 01       		.uleb128 0x1
 6333 13f0 4F       		.byte	0x4f
 6334 13f1 11       		.uleb128 0x11
 6335 13f2 01       		.uleb128 0x1
 6336 13f3 51       		.byte	0x51
 6337 13f4 01       		.uleb128 0x1
 6338 13f5 32       		.byte	0x32
 6339 13f6 11       		.uleb128 0x11
 6340 13f7 01       		.uleb128 0x1
 6341 13f8 52       		.byte	0x52
 6342 13f9 02       		.uleb128 0x2
 6343 13fa 91       		.byte	0x91
 6344 13fb 74       		.sleb128 -12
 6345 13fc 11       		.uleb128 0x11
 6346 13fd 01       		.uleb128 0x1
 6347 13fe 53       		.byte	0x53
 6348 13ff 01       		.uleb128 0x1
 6349 1400 31       		.byte	0x31
 6350 1401 00       		.byte	0
 6351 1402 13       		.uleb128 0x13
 6352 1403 44000000 		.4byte	.LVL236
 6353 1407 9C040000 		.4byte	0x49c
 6354 140b 1C140000 		.4byte	0x141c
 6355 140f 11       		.uleb128 0x11
 6356 1410 01       		.uleb128 0x1
ARM GAS  C:\Users\PIERRE~1\AppData\Local\Temp\ccqD7qlI.s 			page 136


 6357 1411 50       		.byte	0x50
 6358 1412 02       		.uleb128 0x2
 6359 1413 08       		.byte	0x8
 6360 1414 87       		.byte	0x87
 6361 1415 11       		.uleb128 0x11
 6362 1416 01       		.uleb128 0x1
 6363 1417 51       		.byte	0x51
 6364 1418 02       		.uleb128 0x2
 6365 1419 91       		.byte	0x91
 6366 141a 70       		.sleb128 -16
 6367 141b 00       		.byte	0
 6368 141c 13       		.uleb128 0x13
 6369 141d 4E000000 		.4byte	.LVL237
 6370 1421 9C040000 		.4byte	0x49c
 6371 1425 37140000 		.4byte	0x1437
 6372 1429 11       		.uleb128 0x11
 6373 142a 01       		.uleb128 0x1
 6374 142b 50       		.byte	0x50
 6375 142c 03       		.uleb128 0x3
 6376 142d 0B       		.byte	0xb
 6377 142e 7088     		.2byte	0x8870
 6378 1430 11       		.uleb128 0x11
 6379 1431 01       		.uleb128 0x1
 6380 1432 51       		.byte	0x51
 6381 1433 02       		.uleb128 0x2
 6382 1434 91       		.byte	0x91
 6383 1435 6C       		.sleb128 -20
 6384 1436 00       		.byte	0
 6385 1437 13       		.uleb128 0x13
 6386 1438 58000000 		.4byte	.LVL238
 6387 143c 9C040000 		.4byte	0x49c
 6388 1440 52140000 		.4byte	0x1452
 6389 1444 11       		.uleb128 0x11
 6390 1445 01       		.uleb128 0x1
 6391 1446 50       		.byte	0x50
 6392 1447 03       		.uleb128 0x3
 6393 1448 0A       		.byte	0xa
 6394 1449 0716     		.2byte	0x1607
 6395 144b 11       		.uleb128 0x11
 6396 144c 01       		.uleb128 0x1
 6397 144d 51       		.byte	0x51
 6398 144e 02       		.uleb128 0x2
 6399 144f 7D       		.byte	0x7d
 6400 1450 00       		.sleb128 0
 6401 1451 00       		.byte	0
 6402 1452 13       		.uleb128 0x13
 6403 1453 62000000 		.4byte	.LVL239
 6404 1457 9C040000 		.4byte	0x49c
 6405 145b 6C140000 		.4byte	0x146c
 6406 145f 11       		.uleb128 0x11
 6407 1460 01       		.uleb128 0x1
 6408 1461 50       		.byte	0x50
 6409 1462 02       		.uleb128 0x2
 6410 1463 08       		.byte	0x8
 6411 1464 8D       		.byte	0x8d
 6412 1465 11       		.uleb128 0x11
 6413 1466 01       		.uleb128 0x1
ARM GAS  C:\Users\PIERRE~1\AppData\Local\Temp\ccqD7qlI.s 			page 137


 6414 1467 51       		.byte	0x51
 6415 1468 02       		.uleb128 0x2
 6416 1469 91       		.byte	0x91
 6417 146a 70       		.sleb128 -16
 6418 146b 00       		.byte	0
 6419 146c 13       		.uleb128 0x13
 6420 146d 6C000000 		.4byte	.LVL240
 6421 1471 9C040000 		.4byte	0x49c
 6422 1475 87140000 		.4byte	0x1487
 6423 1479 11       		.uleb128 0x11
 6424 147a 01       		.uleb128 0x1
 6425 147b 50       		.byte	0x50
 6426 147c 03       		.uleb128 0x3
 6427 147d 0B       		.byte	0xb
 6428 147e 9B88     		.2byte	0x889b
 6429 1480 11       		.uleb128 0x11
 6430 1481 01       		.uleb128 0x1
 6431 1482 51       		.byte	0x51
 6432 1483 02       		.uleb128 0x2
 6433 1484 91       		.byte	0x91
 6434 1485 6C       		.sleb128 -20
 6435 1486 00       		.byte	0
 6436 1487 13       		.uleb128 0x13
 6437 1488 76000000 		.4byte	.LVL241
 6438 148c 9C040000 		.4byte	0x49c
 6439 1490 A2140000 		.4byte	0x14a2
 6440 1494 11       		.uleb128 0x11
 6441 1495 01       		.uleb128 0x1
 6442 1496 50       		.byte	0x50
 6443 1497 03       		.uleb128 0x3
 6444 1498 0A       		.byte	0xa
 6445 1499 0706     		.2byte	0x607
 6446 149b 11       		.uleb128 0x11
 6447 149c 01       		.uleb128 0x1
 6448 149d 51       		.byte	0x51
 6449 149e 02       		.uleb128 0x2
 6450 149f 7D       		.byte	0x7d
 6451 14a0 00       		.sleb128 0
 6452 14a1 00       		.byte	0
 6453 14a2 13       		.uleb128 0x13
 6454 14a3 82000000 		.4byte	.LVL242
 6455 14a7 DD050000 		.4byte	0x5dd
 6456 14ab C6140000 		.4byte	0x14c6
 6457 14af 11       		.uleb128 0x11
 6458 14b0 01       		.uleb128 0x1
 6459 14b1 50       		.byte	0x50
 6460 14b2 02       		.uleb128 0x2
 6461 14b3 08       		.byte	0x8
 6462 14b4 27       		.byte	0x27
 6463 14b5 11       		.uleb128 0x11
 6464 14b6 01       		.uleb128 0x1
 6465 14b7 51       		.byte	0x51
 6466 14b8 01       		.uleb128 0x1
 6467 14b9 34       		.byte	0x34
 6468 14ba 11       		.uleb128 0x11
 6469 14bb 01       		.uleb128 0x1
 6470 14bc 52       		.byte	0x52
ARM GAS  C:\Users\PIERRE~1\AppData\Local\Temp\ccqD7qlI.s 			page 138


 6471 14bd 02       		.uleb128 0x2
 6472 14be 91       		.byte	0x91
 6473 14bf 70       		.sleb128 -16
 6474 14c0 11       		.uleb128 0x11
 6475 14c1 01       		.uleb128 0x1
 6476 14c2 53       		.byte	0x53
 6477 14c3 01       		.uleb128 0x1
 6478 14c4 32       		.byte	0x32
 6479 14c5 00       		.byte	0
 6480 14c6 13       		.uleb128 0x13
 6481 14c7 8E000000 		.4byte	.LVL243
 6482 14cb DD050000 		.4byte	0x5dd
 6483 14cf EA140000 		.4byte	0x14ea
 6484 14d3 11       		.uleb128 0x11
 6485 14d4 01       		.uleb128 0x1
 6486 14d5 50       		.byte	0x50
 6487 14d6 02       		.uleb128 0x2
 6488 14d7 08       		.byte	0x8
 6489 14d8 23       		.byte	0x23
 6490 14d9 11       		.uleb128 0x11
 6491 14da 01       		.uleb128 0x1
 6492 14db 51       		.byte	0x51
 6493 14dc 01       		.uleb128 0x1
 6494 14dd 34       		.byte	0x34
 6495 14de 11       		.uleb128 0x11
 6496 14df 01       		.uleb128 0x1
 6497 14e0 52       		.byte	0x52
 6498 14e1 02       		.uleb128 0x2
 6499 14e2 91       		.byte	0x91
 6500 14e3 6C       		.sleb128 -20
 6501 14e4 11       		.uleb128 0x11
 6502 14e5 01       		.uleb128 0x1
 6503 14e6 53       		.byte	0x53
 6504 14e7 01       		.uleb128 0x1
 6505 14e8 32       		.byte	0x32
 6506 14e9 00       		.byte	0
 6507 14ea 13       		.uleb128 0x13
 6508 14eb 9C000000 		.4byte	.LVL244
 6509 14ef DD050000 		.4byte	0x5dd
 6510 14f3 10150000 		.4byte	0x1510
 6511 14f7 11       		.uleb128 0x11
 6512 14f8 01       		.uleb128 0x1
 6513 14f9 50       		.byte	0x50
 6514 14fa 02       		.uleb128 0x2
 6515 14fb 08       		.byte	0x8
 6516 14fc 2E       		.byte	0x2e
 6517 14fd 11       		.uleb128 0x11
 6518 14fe 01       		.uleb128 0x1
 6519 14ff 51       		.byte	0x51
 6520 1500 03       		.uleb128 0x3
 6521 1501 0A       		.byte	0xa
 6522 1502 0618     		.2byte	0x1806
 6523 1504 11       		.uleb128 0x11
 6524 1505 01       		.uleb128 0x1
 6525 1506 52       		.byte	0x52
 6526 1507 02       		.uleb128 0x2
 6527 1508 7D       		.byte	0x7d
ARM GAS  C:\Users\PIERRE~1\AppData\Local\Temp\ccqD7qlI.s 			page 139


 6528 1509 00       		.sleb128 0
 6529 150a 11       		.uleb128 0x11
 6530 150b 01       		.uleb128 0x1
 6531 150c 53       		.byte	0x53
 6532 150d 01       		.uleb128 0x1
 6533 150e 32       		.byte	0x32
 6534 150f 00       		.byte	0
 6535 1510 1D       		.uleb128 0x1d
 6536 1511 A0000000 		.4byte	.LVL245
 6537 1515 A40E0000 		.4byte	0xea4
 6538 1519 00       		.byte	0
 6539 151a 14       		.uleb128 0x14
 6540 151b B5060000 		.4byte	.LASF103
 6541 151f 01       		.byte	0x1
 6542 1520 4302     		.2byte	0x243
 6543 1522 00000000 		.4byte	.LFB93
 6544 1526 24000000 		.4byte	.LFE93-.LFB93
 6545 152a 01       		.uleb128 0x1
 6546 152b 9C       		.byte	0x9c
 6547 152c 7B150000 		.4byte	0x157b
 6548 1530 17       		.uleb128 0x17
 6549 1531 70726600 		.ascii	"prf\000"
 6550 1535 01       		.byte	0x1
 6551 1536 4302     		.2byte	0x243
 6552 1538 21010000 		.4byte	0x121
 6553 153c 53070000 		.4byte	.LLST40
 6554 1540 13       		.uleb128 0x13
 6555 1541 10000000 		.4byte	.LVL248
 6556 1545 AF020000 		.4byte	0x2af
 6557 1549 5D150000 		.4byte	0x155d
 6558 154d 11       		.uleb128 0x11
 6559 154e 01       		.uleb128 0x1
 6560 154f 50       		.byte	0x50
 6561 1550 05       		.uleb128 0x5
 6562 1551 03       		.byte	0x3
 6563 1552 06000000 		.4byte	.LANCHOR0+6
 6564 1556 11       		.uleb128 0x11
 6565 1557 01       		.uleb128 0x1
 6566 1558 51       		.byte	0x51
 6567 1559 02       		.uleb128 0x2
 6568 155a 74       		.byte	0x74
 6569 155b 00       		.sleb128 0
 6570 155c 00       		.byte	0
 6571 155d 13       		.uleb128 0x13
 6572 155e 18000000 		.4byte	.LVL249
 6573 1562 600E0000 		.4byte	0xe60
 6574 1566 71150000 		.4byte	0x1571
 6575 156a 11       		.uleb128 0x11
 6576 156b 01       		.uleb128 0x1
 6577 156c 50       		.byte	0x50
 6578 156d 02       		.uleb128 0x2
 6579 156e 74       		.byte	0x74
 6580 156f 00       		.sleb128 0
 6581 1570 00       		.byte	0
 6582 1571 1D       		.uleb128 0x1d
 6583 1572 1C000000 		.4byte	.LVL250
 6584 1576 6A130000 		.4byte	0x136a
ARM GAS  C:\Users\PIERRE~1\AppData\Local\Temp\ccqD7qlI.s 			page 140


 6585 157a 00       		.byte	0
 6586 157b 20       		.uleb128 0x20
 6587 157c 55080000 		.4byte	.LASF104
 6588 1580 01       		.byte	0x1
 6589 1581 BF01     		.2byte	0x1bf
 6590 1583 00000000 		.4byte	.LFB83
 6591 1587 58000000 		.4byte	.LFE83-.LFB83
 6592 158b 01       		.uleb128 0x1
 6593 158c 9C       		.byte	0x9c
 6594 158d 2A160000 		.4byte	0x162a
 6595 1591 1C       		.uleb128 0x1c
 6596 1592 C9050000 		.4byte	.LASF105
 6597 1596 01       		.byte	0x1
 6598 1597 C001     		.2byte	0x1c0
 6599 1599 D40B0000 		.4byte	0xbd4
 6600 159d 02       		.uleb128 0x2
 6601 159e 91       		.byte	0x91
 6602 159f 74       		.sleb128 -12
 6603 15a0 1C       		.uleb128 0x1c
 6604 15a1 C0030000 		.4byte	.LASF106
 6605 15a5 01       		.byte	0x1
 6606 15a6 C301     		.2byte	0x1c3
 6607 15a8 38070000 		.4byte	0x738
 6608 15ac 02       		.uleb128 0x2
 6609 15ad 91       		.byte	0x91
 6610 15ae 70       		.sleb128 -16
 6611 15af 13       		.uleb128 0x13
 6612 15b0 10000000 		.4byte	.LVL251
 6613 15b4 D6040000 		.4byte	0x4d6
 6614 15b8 D2150000 		.4byte	0x15d2
 6615 15bc 11       		.uleb128 0x11
 6616 15bd 01       		.uleb128 0x1
 6617 15be 50       		.byte	0x50
 6618 15bf 01       		.uleb128 0x1
 6619 15c0 34       		.byte	0x34
 6620 15c1 11       		.uleb128 0x11
 6621 15c2 01       		.uleb128 0x1
 6622 15c3 51       		.byte	0x51
 6623 15c4 01       		.uleb128 0x1
 6624 15c5 33       		.byte	0x33
 6625 15c6 11       		.uleb128 0x11
 6626 15c7 01       		.uleb128 0x1
 6627 15c8 52       		.byte	0x52
 6628 15c9 02       		.uleb128 0x2
 6629 15ca 91       		.byte	0x91
 6630 15cb 74       		.sleb128 -12
 6631 15cc 11       		.uleb128 0x11
 6632 15cd 01       		.uleb128 0x1
 6633 15ce 53       		.byte	0x53
 6634 15cf 01       		.uleb128 0x1
 6635 15d0 31       		.byte	0x31
 6636 15d1 00       		.byte	0
 6637 15d2 13       		.uleb128 0x13
 6638 15d3 26000000 		.4byte	.LVL252
 6639 15d7 9C040000 		.4byte	0x49c
 6640 15db E6150000 		.4byte	0x15e6
 6641 15df 11       		.uleb128 0x11
ARM GAS  C:\Users\PIERRE~1\AppData\Local\Temp\ccqD7qlI.s 			page 141


 6642 15e0 01       		.uleb128 0x1
 6643 15e1 51       		.byte	0x51
 6644 15e2 02       		.uleb128 0x2
 6645 15e3 7D       		.byte	0x7d
 6646 15e4 00       		.sleb128 0
 6647 15e5 00       		.byte	0
 6648 15e6 13       		.uleb128 0x13
 6649 15e7 44000000 		.4byte	.LVL253
 6650 15eb DD050000 		.4byte	0x5dd
 6651 15ef 0A160000 		.4byte	0x160a
 6652 15f3 11       		.uleb128 0x11
 6653 15f4 01       		.uleb128 0x1
 6654 15f5 50       		.byte	0x50
 6655 15f6 01       		.uleb128 0x1
 6656 15f7 3C       		.byte	0x3c
 6657 15f8 11       		.uleb128 0x11
 6658 15f9 01       		.uleb128 0x1
 6659 15fa 51       		.byte	0x51
 6660 15fb 02       		.uleb128 0x2
 6661 15fc 09       		.byte	0x9
 6662 15fd FF       		.byte	0xff
 6663 15fe 11       		.uleb128 0x11
 6664 15ff 01       		.uleb128 0x1
 6665 1600 52       		.byte	0x52
 6666 1601 02       		.uleb128 0x2
 6667 1602 7D       		.byte	0x7d
 6668 1603 00       		.sleb128 0
 6669 1604 11       		.uleb128 0x11
 6670 1605 01       		.uleb128 0x1
 6671 1606 53       		.byte	0x53
 6672 1607 01       		.uleb128 0x1
 6673 1608 32       		.byte	0x32
 6674 1609 00       		.byte	0
 6675 160a 10       		.uleb128 0x10
 6676 160b 50000000 		.4byte	.LVL254
 6677 160f DD050000 		.4byte	0x5dd
 6678 1613 11       		.uleb128 0x11
 6679 1614 01       		.uleb128 0x1
 6680 1615 50       		.byte	0x50
 6681 1616 01       		.uleb128 0x1
 6682 1617 34       		.byte	0x34
 6683 1618 11       		.uleb128 0x11
 6684 1619 01       		.uleb128 0x1
 6685 161a 51       		.byte	0x51
 6686 161b 01       		.uleb128 0x1
 6687 161c 33       		.byte	0x33
 6688 161d 11       		.uleb128 0x11
 6689 161e 01       		.uleb128 0x1
 6690 161f 52       		.byte	0x52
 6691 1620 02       		.uleb128 0x2
 6692 1621 91       		.byte	0x91
 6693 1622 74       		.sleb128 -12
 6694 1623 11       		.uleb128 0x11
 6695 1624 01       		.uleb128 0x1
 6696 1625 53       		.byte	0x53
 6697 1626 01       		.uleb128 0x1
 6698 1627 31       		.byte	0x31
ARM GAS  C:\Users\PIERRE~1\AppData\Local\Temp\ccqD7qlI.s 			page 142


 6699 1628 00       		.byte	0
 6700 1629 00       		.byte	0
 6701 162a 14       		.uleb128 0x14
 6702 162b 27010000 		.4byte	.LASF107
 6703 162f 01       		.byte	0x1
 6704 1630 4B02     		.2byte	0x24b
 6705 1632 00000000 		.4byte	.LFB94
 6706 1636 10000000 		.4byte	.LFE94-.LFB94
 6707 163a 01       		.uleb128 0x1
 6708 163b 9C       		.byte	0x9c
 6709 163c 5A160000 		.4byte	0x165a
 6710 1640 1A       		.uleb128 0x1a
 6711 1641 E7010000 		.4byte	.LASF108
 6712 1645 01       		.byte	0x1
 6713 1646 4B02     		.2byte	0x24b
 6714 1648 A2000000 		.4byte	0xa2
 6715 164c 83070000 		.4byte	.LLST41
 6716 1650 1D       		.uleb128 0x1d
 6717 1651 0A000000 		.4byte	.LVL256
 6718 1655 7B150000 		.4byte	0x157b
 6719 1659 00       		.byte	0
 6720 165a 24       		.uleb128 0x24
 6721 165b 88070000 		.4byte	.LASF109
 6722 165f 01       		.byte	0x1
 6723 1660 5102     		.2byte	0x251
 6724 1662 00000000 		.4byte	.LFB95
 6725 1666 2C000000 		.4byte	.LFE95-.LFB95
 6726 166a 01       		.uleb128 0x1
 6727 166b 9C       		.byte	0x9c
 6728 166c BB160000 		.4byte	0x16bb
 6729 1670 13       		.uleb128 0x13
 6730 1671 0A000000 		.4byte	.LVL257
 6731 1675 85030000 		.4byte	0x385
 6732 1679 84160000 		.4byte	0x1684
 6733 167d 11       		.uleb128 0x11
 6734 167e 01       		.uleb128 0x1
 6735 167f 50       		.byte	0x50
 6736 1680 02       		.uleb128 0x2
 6737 1681 74       		.byte	0x74
 6738 1682 06       		.sleb128 6
 6739 1683 00       		.byte	0
 6740 1684 1D       		.uleb128 0x1d
 6741 1685 12000000 		.4byte	.LVL258
 6742 1689 AB110000 		.4byte	0x11ab
 6743 168d 1D       		.uleb128 0x1d
 6744 168e 16000000 		.4byte	.LVL259
 6745 1692 52120000 		.4byte	0x1252
 6746 1696 1D       		.uleb128 0x1d
 6747 1697 1A000000 		.4byte	.LVL260
 6748 169b 6A130000 		.4byte	0x136a
 6749 169f 1D       		.uleb128 0x1d
 6750 16a0 1E000000 		.4byte	.LVL261
 6751 16a4 E80D0000 		.4byte	0xde8
 6752 16a8 1D       		.uleb128 0x1d
 6753 16a9 22000000 		.4byte	.LVL262
 6754 16ad 3D100000 		.4byte	0x103d
 6755 16b1 1D       		.uleb128 0x1d
ARM GAS  C:\Users\PIERRE~1\AppData\Local\Temp\ccqD7qlI.s 			page 143


 6756 16b2 26000000 		.4byte	.LVL263
 6757 16b6 7B150000 		.4byte	0x157b
 6758 16ba 00       		.byte	0
 6759 16bb 12       		.uleb128 0x12
 6760 16bc 74030000 		.4byte	.LASF110
 6761 16c0 01       		.byte	0x1
 6762 16c1 87       		.byte	0x87
 6763 16c2 00000000 		.4byte	.LFB67
 6764 16c6 A4000000 		.4byte	.LFE67-.LFB67
 6765 16ca 01       		.uleb128 0x1
 6766 16cb 9C       		.byte	0x9c
 6767 16cc D7170000 		.4byte	0x17d7
 6768 16d0 22       		.uleb128 0x22
 6769 16d1 86030000 		.4byte	.LASF67
 6770 16d5 01       		.byte	0x1
 6771 16d6 88       		.byte	0x88
 6772 16d7 D40B0000 		.4byte	0xbd4
 6773 16db 02       		.uleb128 0x2
 6774 16dc 91       		.byte	0x91
 6775 16dd 74       		.sleb128 -12
 6776 16de 22       		.uleb128 0x22
 6777 16df F5060000 		.4byte	.LASF111
 6778 16e3 01       		.byte	0x1
 6779 16e4 8A       		.byte	0x8a
 6780 16e5 D40B0000 		.4byte	0xbd4
 6781 16e9 02       		.uleb128 0x2
 6782 16ea 91       		.byte	0x91
 6783 16eb 70       		.sleb128 -16
 6784 16ec 22       		.uleb128 0x22
 6785 16ed 53030000 		.4byte	.LASF112
 6786 16f1 01       		.byte	0x1
 6787 16f2 8B       		.byte	0x8b
 6788 16f3 930A0000 		.4byte	0xa93
 6789 16f7 02       		.uleb128 0x2
 6790 16f8 91       		.byte	0x91
 6791 16f9 6C       		.sleb128 -20
 6792 16fa 13       		.uleb128 0x13
 6793 16fb 1E000000 		.4byte	.LVL264
 6794 16ff DD050000 		.4byte	0x5dd
 6795 1703 1E170000 		.4byte	0x171e
 6796 1707 11       		.uleb128 0x11
 6797 1708 01       		.uleb128 0x1
 6798 1709 50       		.byte	0x50
 6799 170a 01       		.uleb128 0x1
 6800 170b 4F       		.byte	0x4f
 6801 170c 11       		.uleb128 0x11
 6802 170d 01       		.uleb128 0x1
 6803 170e 51       		.byte	0x51
 6804 170f 02       		.uleb128 0x2
 6805 1710 09       		.byte	0x9
 6806 1711 FF       		.byte	0xff
 6807 1712 11       		.uleb128 0x11
 6808 1713 01       		.uleb128 0x1
 6809 1714 52       		.byte	0x52
 6810 1715 02       		.uleb128 0x2
 6811 1716 91       		.byte	0x91
 6812 1717 74       		.sleb128 -12
ARM GAS  C:\Users\PIERRE~1\AppData\Local\Temp\ccqD7qlI.s 			page 144


 6813 1718 11       		.uleb128 0x11
 6814 1719 01       		.uleb128 0x1
 6815 171a 53       		.byte	0x53
 6816 171b 01       		.uleb128 0x1
 6817 171c 31       		.byte	0x31
 6818 171d 00       		.byte	0
 6819 171e 13       		.uleb128 0x13
 6820 171f 3A000000 		.4byte	.LVL265
 6821 1723 62040000 		.4byte	0x462
 6822 1727 3B170000 		.4byte	0x173b
 6823 172b 11       		.uleb128 0x11
 6824 172c 01       		.uleb128 0x1
 6825 172d 50       		.byte	0x50
 6826 172e 05       		.uleb128 0x5
 6827 172f 0C       		.byte	0xc
 6828 1730 07040009 		.4byte	0x9000407
 6829 1734 11       		.uleb128 0x11
 6830 1735 01       		.uleb128 0x1
 6831 1736 51       		.byte	0x51
 6832 1737 02       		.uleb128 0x2
 6833 1738 91       		.byte	0x91
 6834 1739 6C       		.sleb128 -20
 6835 173a 00       		.byte	0
 6836 173b 13       		.uleb128 0x13
 6837 173c 4A000000 		.4byte	.LVL266
 6838 1740 62040000 		.4byte	0x462
 6839 1744 58170000 		.4byte	0x1758
 6840 1748 11       		.uleb128 0x11
 6841 1749 01       		.uleb128 0x1
 6842 174a 50       		.byte	0x50
 6843 174b 05       		.uleb128 0x5
 6844 174c 0C       		.byte	0xc
 6845 174d 08054008 		.4byte	0x8400508
 6846 1751 11       		.uleb128 0x11
 6847 1752 01       		.uleb128 0x1
 6848 1753 51       		.byte	0x51
 6849 1754 02       		.uleb128 0x2
 6850 1755 91       		.byte	0x91
 6851 1756 6C       		.sleb128 -20
 6852 1757 00       		.byte	0
 6853 1758 13       		.uleb128 0x13
 6854 1759 5A000000 		.4byte	.LVL267
 6855 175d 62040000 		.4byte	0x462
 6856 1761 75170000 		.4byte	0x1775
 6857 1765 11       		.uleb128 0x11
 6858 1766 01       		.uleb128 0x1
 6859 1767 50       		.byte	0x50
 6860 1768 05       		.uleb128 0x5
 6861 1769 0C       		.byte	0xc
 6862 176a 09104008 		.4byte	0x8401009
 6863 176e 11       		.uleb128 0x11
 6864 176f 01       		.uleb128 0x1
 6865 1770 51       		.byte	0x51
 6866 1771 02       		.uleb128 0x2
 6867 1772 91       		.byte	0x91
 6868 1773 6C       		.sleb128 -20
 6869 1774 00       		.byte	0
ARM GAS  C:\Users\PIERRE~1\AppData\Local\Temp\ccqD7qlI.s 			page 145


 6870 1775 13       		.uleb128 0x13
 6871 1776 6A000000 		.4byte	.LVL268
 6872 177a 62040000 		.4byte	0x462
 6873 177e 92170000 		.4byte	0x1792
 6874 1782 11       		.uleb128 0x11
 6875 1783 01       		.uleb128 0x1
 6876 1784 50       		.byte	0x50
 6877 1785 05       		.uleb128 0x5
 6878 1786 0C       		.byte	0xc
 6879 1787 1D040008 		.4byte	0x800041d
 6880 178b 11       		.uleb128 0x11
 6881 178c 01       		.uleb128 0x1
 6882 178d 51       		.byte	0x51
 6883 178e 02       		.uleb128 0x2
 6884 178f 91       		.byte	0x91
 6885 1790 6C       		.sleb128 -20
 6886 1791 00       		.byte	0
 6887 1792 13       		.uleb128 0x13
 6888 1793 7E000000 		.4byte	.LVL269
 6889 1797 DD050000 		.4byte	0x5dd
 6890 179b B6170000 		.4byte	0x17b6
 6891 179f 11       		.uleb128 0x11
 6892 17a0 01       		.uleb128 0x1
 6893 17a1 50       		.byte	0x50
 6894 17a2 02       		.uleb128 0x2
 6895 17a3 08       		.byte	0x8
 6896 17a4 2B       		.byte	0x2b
 6897 17a5 11       		.uleb128 0x11
 6898 17a6 01       		.uleb128 0x1
 6899 17a7 51       		.byte	0x51
 6900 17a8 01       		.uleb128 0x1
 6901 17a9 37       		.byte	0x37
 6902 17aa 11       		.uleb128 0x11
 6903 17ab 01       		.uleb128 0x1
 6904 17ac 52       		.byte	0x52
 6905 17ad 02       		.uleb128 0x2
 6906 17ae 91       		.byte	0x91
 6907 17af 6C       		.sleb128 -20
 6908 17b0 11       		.uleb128 0x11
 6909 17b1 01       		.uleb128 0x1
 6910 17b2 53       		.byte	0x53
 6911 17b3 01       		.uleb128 0x1
 6912 17b4 34       		.byte	0x34
 6913 17b5 00       		.byte	0
 6914 17b6 10       		.uleb128 0x10
 6915 17b7 8A000000 		.4byte	.LVL270
 6916 17bb DD050000 		.4byte	0x5dd
 6917 17bf 11       		.uleb128 0x11
 6918 17c0 01       		.uleb128 0x1
 6919 17c1 50       		.byte	0x50
 6920 17c2 02       		.uleb128 0x2
 6921 17c3 08       		.byte	0x8
 6922 17c4 2B       		.byte	0x2b
 6923 17c5 11       		.uleb128 0x11
 6924 17c6 01       		.uleb128 0x1
 6925 17c7 51       		.byte	0x51
 6926 17c8 01       		.uleb128 0x1
ARM GAS  C:\Users\PIERRE~1\AppData\Local\Temp\ccqD7qlI.s 			page 146


 6927 17c9 3B       		.byte	0x3b
 6928 17ca 11       		.uleb128 0x11
 6929 17cb 01       		.uleb128 0x1
 6930 17cc 52       		.byte	0x52
 6931 17cd 02       		.uleb128 0x2
 6932 17ce 91       		.byte	0x91
 6933 17cf 70       		.sleb128 -16
 6934 17d0 11       		.uleb128 0x11
 6935 17d1 01       		.uleb128 0x1
 6936 17d2 53       		.byte	0x53
 6937 17d3 01       		.uleb128 0x1
 6938 17d4 31       		.byte	0x31
 6939 17d5 00       		.byte	0
 6940 17d6 00       		.byte	0
 6941 17d7 14       		.uleb128 0x14
 6942 17d8 D3060000 		.4byte	.LASF113
 6943 17dc 01       		.byte	0x1
 6944 17dd 5C02     		.2byte	0x25c
 6945 17df 00000000 		.4byte	.LFB96
 6946 17e3 1C000000 		.4byte	.LFE96-.LFB96
 6947 17e7 01       		.uleb128 0x1
 6948 17e8 9C       		.byte	0x9c
 6949 17e9 2F180000 		.4byte	0x182f
 6950 17ed 1A       		.uleb128 0x1a
 6951 17ee AE050000 		.4byte	.LASF37
 6952 17f2 01       		.byte	0x1
 6953 17f3 5C02     		.2byte	0x25c
 6954 17f5 F2000000 		.4byte	0xf2
 6955 17f9 A4070000 		.4byte	.LLST42
 6956 17fd 13       		.uleb128 0x13
 6957 17fe 0C000000 		.4byte	.LVL272
 6958 1802 E40B0000 		.4byte	0xbe4
 6959 1806 11180000 		.4byte	0x1811
 6960 180a 11       		.uleb128 0x11
 6961 180b 01       		.uleb128 0x1
 6962 180c 50       		.byte	0x50
 6963 180d 02       		.uleb128 0x2
 6964 180e 74       		.byte	0x74
 6965 180f 00       		.sleb128 0
 6966 1810 00       		.byte	0
 6967 1811 13       		.uleb128 0x13
 6968 1812 12000000 		.4byte	.LVL273
 6969 1816 F1110000 		.4byte	0x11f1
 6970 181a 25180000 		.4byte	0x1825
 6971 181e 11       		.uleb128 0x11
 6972 181f 01       		.uleb128 0x1
 6973 1820 50       		.byte	0x50
 6974 1821 02       		.uleb128 0x2
 6975 1822 74       		.byte	0x74
 6976 1823 00       		.sleb128 0
 6977 1824 00       		.byte	0
 6978 1825 1D       		.uleb128 0x1d
 6979 1826 16000000 		.4byte	.LVL274
 6980 182a BB160000 		.4byte	0x16bb
 6981 182e 00       		.byte	0
 6982 182f 24       		.uleb128 0x24
 6983 1830 0C060000 		.4byte	.LASF114
ARM GAS  C:\Users\PIERRE~1\AppData\Local\Temp\ccqD7qlI.s 			page 147


 6984 1834 01       		.byte	0x1
 6985 1835 D602     		.2byte	0x2d6
 6986 1837 00000000 		.4byte	.LFB100
 6987 183b 9E000000 		.4byte	.LFE100-.LFB100
 6988 183f 01       		.uleb128 0x1
 6989 1840 9C       		.byte	0x9c
 6990 1841 A0190000 		.4byte	0x19a0
 6991 1845 1C       		.uleb128 0x1c
 6992 1846 16060000 		.4byte	.LASF115
 6993 184a 01       		.byte	0x1
 6994 184b D702     		.2byte	0x2d7
 6995 184d 38070000 		.4byte	0x738
 6996 1851 02       		.uleb128 0x2
 6997 1852 91       		.byte	0x91
 6998 1853 6C       		.sleb128 -20
 6999 1854 1C       		.uleb128 0x1c
 7000 1855 5C000000 		.4byte	.LASF116
 7001 1859 01       		.byte	0x1
 7002 185a EE02     		.2byte	0x2ee
 7003 185c 38070000 		.4byte	0x738
 7004 1860 02       		.uleb128 0x2
 7005 1861 91       		.byte	0x91
 7006 1862 68       		.sleb128 -24
 7007 1863 13       		.uleb128 0x13
 7008 1864 18000000 		.4byte	.LVL275
 7009 1868 DD050000 		.4byte	0x5dd
 7010 186c 88180000 		.4byte	0x1888
 7011 1870 11       		.uleb128 0x11
 7012 1871 01       		.uleb128 0x1
 7013 1872 50       		.byte	0x50
 7014 1873 02       		.uleb128 0x2
 7015 1874 08       		.byte	0x8
 7016 1875 36       		.byte	0x36
 7017 1876 11       		.uleb128 0x11
 7018 1877 01       		.uleb128 0x1
 7019 1878 51       		.byte	0x51
 7020 1879 01       		.uleb128 0x1
 7021 187a 30       		.byte	0x30
 7022 187b 11       		.uleb128 0x11
 7023 187c 01       		.uleb128 0x1
 7024 187d 52       		.byte	0x52
 7025 187e 02       		.uleb128 0x2
 7026 187f 75       		.byte	0x75
 7027 1880 00       		.sleb128 0
 7028 1881 11       		.uleb128 0x11
 7029 1882 01       		.uleb128 0x1
 7030 1883 53       		.byte	0x53
 7031 1884 02       		.uleb128 0x2
 7032 1885 74       		.byte	0x74
 7033 1886 00       		.sleb128 0
 7034 1887 00       		.byte	0
 7035 1888 13       		.uleb128 0x13
 7036 1889 1E000000 		.4byte	.LVL276
 7037 188d BC200000 		.4byte	0x20bc
 7038 1891 9C180000 		.4byte	0x189c
 7039 1895 11       		.uleb128 0x11
 7040 1896 01       		.uleb128 0x1
ARM GAS  C:\Users\PIERRE~1\AppData\Local\Temp\ccqD7qlI.s 			page 148


 7041 1897 50       		.byte	0x50
 7042 1898 02       		.uleb128 0x2
 7043 1899 74       		.byte	0x74
 7044 189a 00       		.sleb128 0
 7045 189b 00       		.byte	0
 7046 189c 13       		.uleb128 0x13
 7047 189d 30000000 		.4byte	.LVL277
 7048 18a1 DD050000 		.4byte	0x5dd
 7049 18a5 C1180000 		.4byte	0x18c1
 7050 18a9 11       		.uleb128 0x11
 7051 18aa 01       		.uleb128 0x1
 7052 18ab 50       		.byte	0x50
 7053 18ac 02       		.uleb128 0x2
 7054 18ad 08       		.byte	0x8
 7055 18ae 36       		.byte	0x36
 7056 18af 11       		.uleb128 0x11
 7057 18b0 01       		.uleb128 0x1
 7058 18b1 51       		.byte	0x51
 7059 18b2 01       		.uleb128 0x1
 7060 18b3 33       		.byte	0x33
 7061 18b4 11       		.uleb128 0x11
 7062 18b5 01       		.uleb128 0x1
 7063 18b6 52       		.byte	0x52
 7064 18b7 02       		.uleb128 0x2
 7065 18b8 75       		.byte	0x75
 7066 18b9 00       		.sleb128 0
 7067 18ba 11       		.uleb128 0x11
 7068 18bb 01       		.uleb128 0x1
 7069 18bc 53       		.byte	0x53
 7070 18bd 02       		.uleb128 0x2
 7071 18be 74       		.byte	0x74
 7072 18bf 00       		.sleb128 0
 7073 18c0 00       		.byte	0
 7074 18c1 13       		.uleb128 0x13
 7075 18c2 36000000 		.4byte	.LVL278
 7076 18c6 BC200000 		.4byte	0x20bc
 7077 18ca D5180000 		.4byte	0x18d5
 7078 18ce 11       		.uleb128 0x11
 7079 18cf 01       		.uleb128 0x1
 7080 18d0 50       		.byte	0x50
 7081 18d1 02       		.uleb128 0x2
 7082 18d2 74       		.byte	0x74
 7083 18d3 00       		.sleb128 0
 7084 18d4 00       		.byte	0
 7085 18d5 13       		.uleb128 0x13
 7086 18d6 48000000 		.4byte	.LVL279
 7087 18da DD050000 		.4byte	0x5dd
 7088 18de FA180000 		.4byte	0x18fa
 7089 18e2 11       		.uleb128 0x11
 7090 18e3 01       		.uleb128 0x1
 7091 18e4 50       		.byte	0x50
 7092 18e5 02       		.uleb128 0x2
 7093 18e6 08       		.byte	0x8
 7094 18e7 36       		.byte	0x36
 7095 18e8 11       		.uleb128 0x11
 7096 18e9 01       		.uleb128 0x1
 7097 18ea 51       		.byte	0x51
ARM GAS  C:\Users\PIERRE~1\AppData\Local\Temp\ccqD7qlI.s 			page 149


 7098 18eb 01       		.uleb128 0x1
 7099 18ec 33       		.byte	0x33
 7100 18ed 11       		.uleb128 0x11
 7101 18ee 01       		.uleb128 0x1
 7102 18ef 52       		.byte	0x52
 7103 18f0 02       		.uleb128 0x2
 7104 18f1 75       		.byte	0x75
 7105 18f2 00       		.sleb128 0
 7106 18f3 11       		.uleb128 0x11
 7107 18f4 01       		.uleb128 0x1
 7108 18f5 53       		.byte	0x53
 7109 18f6 02       		.uleb128 0x2
 7110 18f7 74       		.byte	0x74
 7111 18f8 00       		.sleb128 0
 7112 18f9 00       		.byte	0
 7113 18fa 13       		.uleb128 0x13
 7114 18fb 4E000000 		.4byte	.LVL280
 7115 18ff BC200000 		.4byte	0x20bc
 7116 1903 0D190000 		.4byte	0x190d
 7117 1907 11       		.uleb128 0x11
 7118 1908 01       		.uleb128 0x1
 7119 1909 50       		.byte	0x50
 7120 190a 01       		.uleb128 0x1
 7121 190b 35       		.byte	0x35
 7122 190c 00       		.byte	0
 7123 190d 13       		.uleb128 0x13
 7124 190e 64000000 		.4byte	.LVL281
 7125 1912 DD050000 		.4byte	0x5dd
 7126 1916 32190000 		.4byte	0x1932
 7127 191a 11       		.uleb128 0x11
 7128 191b 01       		.uleb128 0x1
 7129 191c 50       		.byte	0x50
 7130 191d 02       		.uleb128 0x2
 7131 191e 08       		.byte	0x8
 7132 191f 36       		.byte	0x36
 7133 1920 11       		.uleb128 0x11
 7134 1921 01       		.uleb128 0x1
 7135 1922 51       		.byte	0x51
 7136 1923 02       		.uleb128 0x2
 7137 1924 76       		.byte	0x76
 7138 1925 00       		.sleb128 0
 7139 1926 11       		.uleb128 0x11
 7140 1927 01       		.uleb128 0x1
 7141 1928 52       		.byte	0x52
 7142 1929 02       		.uleb128 0x2
 7143 192a 75       		.byte	0x75
 7144 192b 00       		.sleb128 0
 7145 192c 11       		.uleb128 0x11
 7146 192d 01       		.uleb128 0x1
 7147 192e 53       		.byte	0x53
 7148 192f 01       		.uleb128 0x1
 7149 1930 32       		.byte	0x32
 7150 1931 00       		.byte	0
 7151 1932 13       		.uleb128 0x13
 7152 1933 6A000000 		.4byte	.LVL282
 7153 1937 BC200000 		.4byte	0x20bc
 7154 193b 46190000 		.4byte	0x1946
ARM GAS  C:\Users\PIERRE~1\AppData\Local\Temp\ccqD7qlI.s 			page 150


 7155 193f 11       		.uleb128 0x11
 7156 1940 01       		.uleb128 0x1
 7157 1941 50       		.byte	0x50
 7158 1942 02       		.uleb128 0x2
 7159 1943 74       		.byte	0x74
 7160 1944 00       		.sleb128 0
 7161 1945 00       		.byte	0
 7162 1946 13       		.uleb128 0x13
 7163 1947 80000000 		.4byte	.LVL283
 7164 194b DD050000 		.4byte	0x5dd
 7165 194f 6A190000 		.4byte	0x196a
 7166 1953 11       		.uleb128 0x11
 7167 1954 01       		.uleb128 0x1
 7168 1955 50       		.byte	0x50
 7169 1956 02       		.uleb128 0x2
 7170 1957 08       		.byte	0x8
 7171 1958 2D       		.byte	0x2d
 7172 1959 11       		.uleb128 0x11
 7173 195a 01       		.uleb128 0x1
 7174 195b 51       		.byte	0x51
 7175 195c 01       		.uleb128 0x1
 7176 195d 36       		.byte	0x36
 7177 195e 11       		.uleb128 0x11
 7178 195f 01       		.uleb128 0x1
 7179 1960 52       		.byte	0x52
 7180 1961 02       		.uleb128 0x2
 7181 1962 7D       		.byte	0x7d
 7182 1963 00       		.sleb128 0
 7183 1964 11       		.uleb128 0x11
 7184 1965 01       		.uleb128 0x1
 7185 1966 53       		.byte	0x53
 7186 1967 01       		.uleb128 0x1
 7187 1968 32       		.byte	0x32
 7188 1969 00       		.byte	0
 7189 196a 13       		.uleb128 0x13
 7190 196b 86000000 		.4byte	.LVL284
 7191 196f BC200000 		.4byte	0x20bc
 7192 1973 7E190000 		.4byte	0x197e
 7193 1977 11       		.uleb128 0x11
 7194 1978 01       		.uleb128 0x1
 7195 1979 50       		.byte	0x50
 7196 197a 02       		.uleb128 0x2
 7197 197b 74       		.byte	0x74
 7198 197c 00       		.sleb128 0
 7199 197d 00       		.byte	0
 7200 197e 10       		.uleb128 0x10
 7201 197f 9A000000 		.4byte	.LVL285
 7202 1983 DD050000 		.4byte	0x5dd
 7203 1987 11       		.uleb128 0x11
 7204 1988 01       		.uleb128 0x1
 7205 1989 50       		.byte	0x50
 7206 198a 02       		.uleb128 0x2
 7207 198b 08       		.byte	0x8
 7208 198c 36       		.byte	0x36
 7209 198d 11       		.uleb128 0x11
 7210 198e 01       		.uleb128 0x1
 7211 198f 51       		.byte	0x51
ARM GAS  C:\Users\PIERRE~1\AppData\Local\Temp\ccqD7qlI.s 			page 151


 7212 1990 02       		.uleb128 0x2
 7213 1991 76       		.byte	0x76
 7214 1992 00       		.sleb128 0
 7215 1993 11       		.uleb128 0x11
 7216 1994 01       		.uleb128 0x1
 7217 1995 52       		.byte	0x52
 7218 1996 02       		.uleb128 0x2
 7219 1997 75       		.byte	0x75
 7220 1998 00       		.sleb128 0
 7221 1999 11       		.uleb128 0x11
 7222 199a 01       		.uleb128 0x1
 7223 199b 53       		.byte	0x53
 7224 199c 01       		.uleb128 0x1
 7225 199d 32       		.byte	0x32
 7226 199e 00       		.byte	0
 7227 199f 00       		.byte	0
 7228 19a0 24       		.uleb128 0x24
 7229 19a1 A2010000 		.4byte	.LASF117
 7230 19a5 01       		.byte	0x1
 7231 19a6 6302     		.2byte	0x263
 7232 19a8 00000000 		.4byte	.LFB97
 7233 19ac 20000000 		.4byte	.LFE97-.LFB97
 7234 19b0 01       		.uleb128 0x1
 7235 19b1 9C       		.byte	0x9c
 7236 19b2 DB190000 		.4byte	0x19db
 7237 19b6 1D       		.uleb128 0x1d
 7238 19b7 06000000 		.4byte	.LVL286
 7239 19bb 2F180000 		.4byte	0x182f
 7240 19bf 1D       		.uleb128 0x1d
 7241 19c0 0A000000 		.4byte	.LVL287
 7242 19c4 8D0D0000 		.4byte	0xd8d
 7243 19c8 1D       		.uleb128 0x1d
 7244 19c9 0E000000 		.4byte	.LVL288
 7245 19cd 5A160000 		.4byte	0x165a
 7246 19d1 1D       		.uleb128 0x1d
 7247 19d2 18000000 		.4byte	.LVL289
 7248 19d6 BB160000 		.4byte	0x16bb
 7249 19da 00       		.byte	0
 7250 19db 14       		.uleb128 0x14
 7251 19dc 02080000 		.4byte	.LASF118
 7252 19e0 01       		.byte	0x1
 7253 19e1 7302     		.2byte	0x273
 7254 19e3 00000000 		.4byte	.LFB98
 7255 19e7 6C010000 		.4byte	.LFE98-.LFB98
 7256 19eb 01       		.uleb128 0x1
 7257 19ec 9C       		.byte	0x9c
 7258 19ed FD1C0000 		.4byte	0x1cfd
 7259 19f1 1C       		.uleb128 0x1c
 7260 19f2 90030000 		.4byte	.LASF119
 7261 19f6 01       		.byte	0x1
 7262 19f7 7502     		.2byte	0x275
 7263 19f9 930A0000 		.4byte	0xa93
 7264 19fd 02       		.uleb128 0x2
 7265 19fe 91       		.byte	0x91
 7266 19ff 6C       		.sleb128 -20
 7267 1a00 19       		.uleb128 0x19
 7268 1a01 DB070000 		.4byte	.LASF120
ARM GAS  C:\Users\PIERRE~1\AppData\Local\Temp\ccqD7qlI.s 			page 152


 7269 1a05 01       		.byte	0x1
 7270 1a06 7902     		.2byte	0x279
 7271 1a08 B8000000 		.4byte	0xb8
 7272 1a0c C5070000 		.4byte	.LLST43
 7273 1a10 1C       		.uleb128 0x1c
 7274 1a11 34030000 		.4byte	.LASF121
 7275 1a15 01       		.byte	0x1
 7276 1a16 8802     		.2byte	0x288
 7277 1a18 930A0000 		.4byte	0xa93
 7278 1a1c 02       		.uleb128 0x2
 7279 1a1d 91       		.byte	0x91
 7280 1a1e 68       		.sleb128 -24
 7281 1a1f 1C       		.uleb128 0x1c
 7282 1a20 1B070000 		.4byte	.LASF122
 7283 1a24 01       		.byte	0x1
 7284 1a25 8C02     		.2byte	0x28c
 7285 1a27 D40B0000 		.4byte	0xbd4
 7286 1a2b 02       		.uleb128 0x2
 7287 1a2c 91       		.byte	0x91
 7288 1a2d 64       		.sleb128 -28
 7289 1a2e 1C       		.uleb128 0x1c
 7290 1a2f 4B030000 		.4byte	.LASF123
 7291 1a33 01       		.byte	0x1
 7292 1a34 9902     		.2byte	0x299
 7293 1a36 930A0000 		.4byte	0xa93
 7294 1a3a 02       		.uleb128 0x2
 7295 1a3b 91       		.byte	0x91
 7296 1a3c 60       		.sleb128 -32
 7297 1a3d 1C       		.uleb128 0x1c
 7298 1a3e CC040000 		.4byte	.LASF124
 7299 1a42 01       		.byte	0x1
 7300 1a43 AA02     		.2byte	0x2aa
 7301 1a45 38070000 		.4byte	0x738
 7302 1a49 02       		.uleb128 0x2
 7303 1a4a 91       		.byte	0x91
 7304 1a4b 5C       		.sleb128 -36
 7305 1a4c 25       		.uleb128 0x25
 7306 1a4d 0D020000 		.4byte	.LASF125
 7307 1a51 01       		.byte	0x1
 7308 1a52 AB02     		.2byte	0x2ab
 7309 1a54 A2000000 		.4byte	0xa2
 7310 1a58 9D817E   		.sleb128 -32611
 7311 1a5b 1D       		.uleb128 0x1d
 7312 1a5c 08000000 		.4byte	.LVL290
 7313 1a60 A0190000 		.4byte	0x19a0
 7314 1a64 13       		.uleb128 0x13
 7315 1a65 16000000 		.4byte	.LVL291
 7316 1a69 D6040000 		.4byte	0x4d6
 7317 1a6d 881A0000 		.4byte	0x1a88
 7318 1a71 11       		.uleb128 0x11
 7319 1a72 01       		.uleb128 0x1
 7320 1a73 50       		.byte	0x50
 7321 1a74 01       		.uleb128 0x1
 7322 1a75 30       		.byte	0x30
 7323 1a76 11       		.uleb128 0x11
 7324 1a77 01       		.uleb128 0x1
 7325 1a78 51       		.byte	0x51
ARM GAS  C:\Users\PIERRE~1\AppData\Local\Temp\ccqD7qlI.s 			page 153


 7326 1a79 02       		.uleb128 0x2
 7327 1a7a 09       		.byte	0x9
 7328 1a7b FF       		.byte	0xff
 7329 1a7c 11       		.uleb128 0x11
 7330 1a7d 01       		.uleb128 0x1
 7331 1a7e 52       		.byte	0x52
 7332 1a7f 02       		.uleb128 0x2
 7333 1a80 91       		.byte	0x91
 7334 1a81 6C       		.sleb128 -20
 7335 1a82 11       		.uleb128 0x11
 7336 1a83 01       		.uleb128 0x1
 7337 1a84 53       		.byte	0x53
 7338 1a85 01       		.uleb128 0x1
 7339 1a86 34       		.byte	0x34
 7340 1a87 00       		.byte	0
 7341 1a88 13       		.uleb128 0x13
 7342 1a89 3E000000 		.4byte	.LVL294
 7343 1a8d BC200000 		.4byte	0x20bc
 7344 1a91 9C1A0000 		.4byte	0x1a9c
 7345 1a95 11       		.uleb128 0x11
 7346 1a96 01       		.uleb128 0x1
 7347 1a97 50       		.byte	0x50
 7348 1a98 02       		.uleb128 0x2
 7349 1a99 08       		.byte	0x8
 7350 1a9a 64       		.byte	0x64
 7351 1a9b 00       		.byte	0
 7352 1a9c 13       		.uleb128 0x13
 7353 1a9d 52000000 		.4byte	.LVL297
 7354 1aa1 DD050000 		.4byte	0x5dd
 7355 1aa5 C01A0000 		.4byte	0x1ac0
 7356 1aa9 11       		.uleb128 0x11
 7357 1aaa 01       		.uleb128 0x1
 7358 1aab 50       		.byte	0x50
 7359 1aac 02       		.uleb128 0x2
 7360 1aad 08       		.byte	0x8
 7361 1aae 23       		.byte	0x23
 7362 1aaf 11       		.uleb128 0x11
 7363 1ab0 01       		.uleb128 0x1
 7364 1ab1 51       		.byte	0x51
 7365 1ab2 01       		.uleb128 0x1
 7366 1ab3 3C       		.byte	0x3c
 7367 1ab4 11       		.uleb128 0x11
 7368 1ab5 01       		.uleb128 0x1
 7369 1ab6 52       		.byte	0x52
 7370 1ab7 02       		.uleb128 0x2
 7371 1ab8 91       		.byte	0x91
 7372 1ab9 68       		.sleb128 -24
 7373 1aba 11       		.uleb128 0x11
 7374 1abb 01       		.uleb128 0x1
 7375 1abc 53       		.byte	0x53
 7376 1abd 01       		.uleb128 0x1
 7377 1abe 34       		.byte	0x34
 7378 1abf 00       		.byte	0
 7379 1ac0 13       		.uleb128 0x13
 7380 1ac1 66000000 		.4byte	.LVL298
 7381 1ac5 DD050000 		.4byte	0x5dd
 7382 1ac9 E61A0000 		.4byte	0x1ae6
ARM GAS  C:\Users\PIERRE~1\AppData\Local\Temp\ccqD7qlI.s 			page 154


 7383 1acd 11       		.uleb128 0x11
 7384 1ace 01       		.uleb128 0x1
 7385 1acf 50       		.byte	0x50
 7386 1ad0 02       		.uleb128 0x2
 7387 1ad1 08       		.byte	0x8
 7388 1ad2 2E       		.byte	0x2e
 7389 1ad3 11       		.uleb128 0x11
 7390 1ad4 01       		.uleb128 0x1
 7391 1ad5 51       		.byte	0x51
 7392 1ad6 03       		.uleb128 0x3
 7393 1ad7 0A       		.byte	0xa
 7394 1ad8 0608     		.2byte	0x806
 7395 1ada 11       		.uleb128 0x11
 7396 1adb 01       		.uleb128 0x1
 7397 1adc 52       		.byte	0x52
 7398 1add 02       		.uleb128 0x2
 7399 1ade 91       		.byte	0x91
 7400 1adf 64       		.sleb128 -28
 7401 1ae0 11       		.uleb128 0x11
 7402 1ae1 01       		.uleb128 0x1
 7403 1ae2 53       		.byte	0x53
 7404 1ae3 01       		.uleb128 0x1
 7405 1ae4 31       		.byte	0x31
 7406 1ae5 00       		.byte	0
 7407 1ae6 13       		.uleb128 0x13
 7408 1ae7 7C000000 		.4byte	.LVL299
 7409 1aeb D6040000 		.4byte	0x4d6
 7410 1aef 0A1B0000 		.4byte	0x1b0a
 7411 1af3 11       		.uleb128 0x11
 7412 1af4 01       		.uleb128 0x1
 7413 1af5 50       		.byte	0x50
 7414 1af6 01       		.uleb128 0x1
 7415 1af7 3E       		.byte	0x3e
 7416 1af8 11       		.uleb128 0x11
 7417 1af9 01       		.uleb128 0x1
 7418 1afa 51       		.byte	0x51
 7419 1afb 02       		.uleb128 0x2
 7420 1afc 09       		.byte	0x9
 7421 1afd FF       		.byte	0xff
 7422 1afe 11       		.uleb128 0x11
 7423 1aff 01       		.uleb128 0x1
 7424 1b00 52       		.byte	0x52
 7425 1b01 02       		.uleb128 0x2
 7426 1b02 74       		.byte	0x74
 7427 1b03 00       		.sleb128 0
 7428 1b04 11       		.uleb128 0x11
 7429 1b05 01       		.uleb128 0x1
 7430 1b06 53       		.byte	0x53
 7431 1b07 01       		.uleb128 0x1
 7432 1b08 34       		.byte	0x34
 7433 1b09 00       		.byte	0
 7434 1b0a 13       		.uleb128 0x13
 7435 1b0b 88000000 		.4byte	.LVL300
 7436 1b0f D9030000 		.4byte	0x3d9
 7437 1b13 2D1B0000 		.4byte	0x1b2d
 7438 1b17 11       		.uleb128 0x11
 7439 1b18 01       		.uleb128 0x1
ARM GAS  C:\Users\PIERRE~1\AppData\Local\Temp\ccqD7qlI.s 			page 155


 7440 1b19 50       		.byte	0x50
 7441 1b1a 02       		.uleb128 0x2
 7442 1b1b 74       		.byte	0x74
 7443 1b1c 00       		.sleb128 0
 7444 1b1d 11       		.uleb128 0x11
 7445 1b1e 01       		.uleb128 0x1
 7446 1b1f 51       		.byte	0x51
 7447 1b20 01       		.uleb128 0x1
 7448 1b21 34       		.byte	0x34
 7449 1b22 11       		.uleb128 0x11
 7450 1b23 01       		.uleb128 0x1
 7451 1b24 52       		.byte	0x52
 7452 1b25 01       		.uleb128 0x1
 7453 1b26 37       		.byte	0x37
 7454 1b27 11       		.uleb128 0x11
 7455 1b28 01       		.uleb128 0x1
 7456 1b29 53       		.byte	0x53
 7457 1b2a 01       		.uleb128 0x1
 7458 1b2b 31       		.byte	0x31
 7459 1b2c 00       		.byte	0
 7460 1b2d 13       		.uleb128 0x13
 7461 1b2e 94000000 		.4byte	.LVL301
 7462 1b32 D9030000 		.4byte	0x3d9
 7463 1b36 501B0000 		.4byte	0x1b50
 7464 1b3a 11       		.uleb128 0x11
 7465 1b3b 01       		.uleb128 0x1
 7466 1b3c 50       		.byte	0x50
 7467 1b3d 02       		.uleb128 0x2
 7468 1b3e 74       		.byte	0x74
 7469 1b3f 00       		.sleb128 0
 7470 1b40 11       		.uleb128 0x11
 7471 1b41 01       		.uleb128 0x1
 7472 1b42 51       		.byte	0x51
 7473 1b43 01       		.uleb128 0x1
 7474 1b44 34       		.byte	0x34
 7475 1b45 11       		.uleb128 0x11
 7476 1b46 01       		.uleb128 0x1
 7477 1b47 52       		.byte	0x52
 7478 1b48 01       		.uleb128 0x1
 7479 1b49 3D       		.byte	0x3d
 7480 1b4a 11       		.uleb128 0x11
 7481 1b4b 01       		.uleb128 0x1
 7482 1b4c 53       		.byte	0x53
 7483 1b4d 01       		.uleb128 0x1
 7484 1b4e 31       		.byte	0x31
 7485 1b4f 00       		.byte	0
 7486 1b50 13       		.uleb128 0x13
 7487 1b51 A0000000 		.4byte	.LVL302
 7488 1b55 D9030000 		.4byte	0x3d9
 7489 1b59 731B0000 		.4byte	0x1b73
 7490 1b5d 11       		.uleb128 0x11
 7491 1b5e 01       		.uleb128 0x1
 7492 1b5f 50       		.byte	0x50
 7493 1b60 02       		.uleb128 0x2
 7494 1b61 74       		.byte	0x74
 7495 1b62 00       		.sleb128 0
 7496 1b63 11       		.uleb128 0x11
ARM GAS  C:\Users\PIERRE~1\AppData\Local\Temp\ccqD7qlI.s 			page 156


 7497 1b64 01       		.uleb128 0x1
 7498 1b65 51       		.byte	0x51
 7499 1b66 01       		.uleb128 0x1
 7500 1b67 34       		.byte	0x34
 7501 1b68 11       		.uleb128 0x11
 7502 1b69 01       		.uleb128 0x1
 7503 1b6a 52       		.byte	0x52
 7504 1b6b 01       		.uleb128 0x1
 7505 1b6c 3C       		.byte	0x3c
 7506 1b6d 11       		.uleb128 0x11
 7507 1b6e 01       		.uleb128 0x1
 7508 1b6f 53       		.byte	0x53
 7509 1b70 01       		.uleb128 0x1
 7510 1b71 31       		.byte	0x31
 7511 1b72 00       		.byte	0
 7512 1b73 13       		.uleb128 0x13
 7513 1b74 AC000000 		.4byte	.LVL303
 7514 1b78 D9030000 		.4byte	0x3d9
 7515 1b7c 961B0000 		.4byte	0x1b96
 7516 1b80 11       		.uleb128 0x11
 7517 1b81 01       		.uleb128 0x1
 7518 1b82 50       		.byte	0x50
 7519 1b83 02       		.uleb128 0x2
 7520 1b84 74       		.byte	0x74
 7521 1b85 00       		.sleb128 0
 7522 1b86 11       		.uleb128 0x11
 7523 1b87 01       		.uleb128 0x1
 7524 1b88 51       		.byte	0x51
 7525 1b89 01       		.uleb128 0x1
 7526 1b8a 34       		.byte	0x34
 7527 1b8b 11       		.uleb128 0x11
 7528 1b8c 01       		.uleb128 0x1
 7529 1b8d 52       		.byte	0x52
 7530 1b8e 01       		.uleb128 0x1
 7531 1b8f 3F       		.byte	0x3f
 7532 1b90 11       		.uleb128 0x11
 7533 1b91 01       		.uleb128 0x1
 7534 1b92 53       		.byte	0x53
 7535 1b93 01       		.uleb128 0x1
 7536 1b94 31       		.byte	0x31
 7537 1b95 00       		.byte	0
 7538 1b96 13       		.uleb128 0x13
 7539 1b97 B8000000 		.4byte	.LVL304
 7540 1b9b D9030000 		.4byte	0x3d9
 7541 1b9f B91B0000 		.4byte	0x1bb9
 7542 1ba3 11       		.uleb128 0x11
 7543 1ba4 01       		.uleb128 0x1
 7544 1ba5 50       		.byte	0x50
 7545 1ba6 02       		.uleb128 0x2
 7546 1ba7 74       		.byte	0x74
 7547 1ba8 00       		.sleb128 0
 7548 1ba9 11       		.uleb128 0x11
 7549 1baa 01       		.uleb128 0x1
 7550 1bab 51       		.byte	0x51
 7551 1bac 01       		.uleb128 0x1
 7552 1bad 34       		.byte	0x34
 7553 1bae 11       		.uleb128 0x11
ARM GAS  C:\Users\PIERRE~1\AppData\Local\Temp\ccqD7qlI.s 			page 157


 7554 1baf 01       		.uleb128 0x1
 7555 1bb0 52       		.byte	0x52
 7556 1bb1 01       		.uleb128 0x1
 7557 1bb2 40       		.byte	0x40
 7558 1bb3 11       		.uleb128 0x11
 7559 1bb4 01       		.uleb128 0x1
 7560 1bb5 53       		.byte	0x53
 7561 1bb6 01       		.uleb128 0x1
 7562 1bb7 31       		.byte	0x31
 7563 1bb8 00       		.byte	0
 7564 1bb9 13       		.uleb128 0x13
 7565 1bba C4000000 		.4byte	.LVL305
 7566 1bbe D9030000 		.4byte	0x3d9
 7567 1bc2 DC1B0000 		.4byte	0x1bdc
 7568 1bc6 11       		.uleb128 0x11
 7569 1bc7 01       		.uleb128 0x1
 7570 1bc8 50       		.byte	0x50
 7571 1bc9 02       		.uleb128 0x2
 7572 1bca 74       		.byte	0x74
 7573 1bcb 00       		.sleb128 0
 7574 1bcc 11       		.uleb128 0x11
 7575 1bcd 01       		.uleb128 0x1
 7576 1bce 51       		.byte	0x51
 7577 1bcf 01       		.uleb128 0x1
 7578 1bd0 34       		.byte	0x34
 7579 1bd1 11       		.uleb128 0x11
 7580 1bd2 01       		.uleb128 0x1
 7581 1bd3 52       		.byte	0x52
 7582 1bd4 01       		.uleb128 0x1
 7583 1bd5 41       		.byte	0x41
 7584 1bd6 11       		.uleb128 0x11
 7585 1bd7 01       		.uleb128 0x1
 7586 1bd8 53       		.byte	0x53
 7587 1bd9 01       		.uleb128 0x1
 7588 1bda 31       		.byte	0x31
 7589 1bdb 00       		.byte	0
 7590 1bdc 13       		.uleb128 0x13
 7591 1bdd D0000000 		.4byte	.LVL306
 7592 1be1 D9030000 		.4byte	0x3d9
 7593 1be5 FF1B0000 		.4byte	0x1bff
 7594 1be9 11       		.uleb128 0x11
 7595 1bea 01       		.uleb128 0x1
 7596 1beb 50       		.byte	0x50
 7597 1bec 02       		.uleb128 0x2
 7598 1bed 74       		.byte	0x74
 7599 1bee 00       		.sleb128 0
 7600 1bef 11       		.uleb128 0x11
 7601 1bf0 01       		.uleb128 0x1
 7602 1bf1 51       		.byte	0x51
 7603 1bf2 01       		.uleb128 0x1
 7604 1bf3 34       		.byte	0x34
 7605 1bf4 11       		.uleb128 0x11
 7606 1bf5 01       		.uleb128 0x1
 7607 1bf6 52       		.byte	0x52
 7608 1bf7 01       		.uleb128 0x1
 7609 1bf8 42       		.byte	0x42
 7610 1bf9 11       		.uleb128 0x11
ARM GAS  C:\Users\PIERRE~1\AppData\Local\Temp\ccqD7qlI.s 			page 158


 7611 1bfa 01       		.uleb128 0x1
 7612 1bfb 53       		.byte	0x53
 7613 1bfc 01       		.uleb128 0x1
 7614 1bfd 31       		.byte	0x31
 7615 1bfe 00       		.byte	0
 7616 1bff 13       		.uleb128 0x13
 7617 1c00 DC000000 		.4byte	.LVL307
 7618 1c04 D9030000 		.4byte	0x3d9
 7619 1c08 221C0000 		.4byte	0x1c22
 7620 1c0c 11       		.uleb128 0x11
 7621 1c0d 01       		.uleb128 0x1
 7622 1c0e 50       		.byte	0x50
 7623 1c0f 02       		.uleb128 0x2
 7624 1c10 74       		.byte	0x74
 7625 1c11 00       		.sleb128 0
 7626 1c12 11       		.uleb128 0x11
 7627 1c13 01       		.uleb128 0x1
 7628 1c14 51       		.byte	0x51
 7629 1c15 01       		.uleb128 0x1
 7630 1c16 34       		.byte	0x34
 7631 1c17 11       		.uleb128 0x11
 7632 1c18 01       		.uleb128 0x1
 7633 1c19 52       		.byte	0x52
 7634 1c1a 01       		.uleb128 0x1
 7635 1c1b 45       		.byte	0x45
 7636 1c1c 11       		.uleb128 0x11
 7637 1c1d 01       		.uleb128 0x1
 7638 1c1e 53       		.byte	0x53
 7639 1c1f 01       		.uleb128 0x1
 7640 1c20 31       		.byte	0x31
 7641 1c21 00       		.byte	0
 7642 1c22 13       		.uleb128 0x13
 7643 1c23 E8000000 		.4byte	.LVL308
 7644 1c27 D9030000 		.4byte	0x3d9
 7645 1c2b 451C0000 		.4byte	0x1c45
 7646 1c2f 11       		.uleb128 0x11
 7647 1c30 01       		.uleb128 0x1
 7648 1c31 50       		.byte	0x50
 7649 1c32 02       		.uleb128 0x2
 7650 1c33 74       		.byte	0x74
 7651 1c34 00       		.sleb128 0
 7652 1c35 11       		.uleb128 0x11
 7653 1c36 01       		.uleb128 0x1
 7654 1c37 51       		.byte	0x51
 7655 1c38 01       		.uleb128 0x1
 7656 1c39 34       		.byte	0x34
 7657 1c3a 11       		.uleb128 0x11
 7658 1c3b 01       		.uleb128 0x1
 7659 1c3c 52       		.byte	0x52
 7660 1c3d 01       		.uleb128 0x1
 7661 1c3e 4A       		.byte	0x4a
 7662 1c3f 11       		.uleb128 0x11
 7663 1c40 01       		.uleb128 0x1
 7664 1c41 53       		.byte	0x53
 7665 1c42 01       		.uleb128 0x1
 7666 1c43 31       		.byte	0x31
 7667 1c44 00       		.byte	0
ARM GAS  C:\Users\PIERRE~1\AppData\Local\Temp\ccqD7qlI.s 			page 159


 7668 1c45 13       		.uleb128 0x13
 7669 1c46 F6000000 		.4byte	.LVL309
 7670 1c4a DD050000 		.4byte	0x5dd
 7671 1c4e 691C0000 		.4byte	0x1c69
 7672 1c52 11       		.uleb128 0x11
 7673 1c53 01       		.uleb128 0x1
 7674 1c54 50       		.byte	0x50
 7675 1c55 01       		.uleb128 0x1
 7676 1c56 3E       		.byte	0x3e
 7677 1c57 11       		.uleb128 0x11
 7678 1c58 01       		.uleb128 0x1
 7679 1c59 51       		.byte	0x51
 7680 1c5a 02       		.uleb128 0x2
 7681 1c5b 09       		.byte	0x9
 7682 1c5c FF       		.byte	0xff
 7683 1c5d 11       		.uleb128 0x11
 7684 1c5e 01       		.uleb128 0x1
 7685 1c5f 52       		.byte	0x52
 7686 1c60 02       		.uleb128 0x2
 7687 1c61 74       		.byte	0x74
 7688 1c62 00       		.sleb128 0
 7689 1c63 11       		.uleb128 0x11
 7690 1c64 01       		.uleb128 0x1
 7691 1c65 53       		.byte	0x53
 7692 1c66 01       		.uleb128 0x1
 7693 1c67 34       		.byte	0x34
 7694 1c68 00       		.byte	0
 7695 1c69 13       		.uleb128 0x13
 7696 1c6a 12010000 		.4byte	.LVL310
 7697 1c6e DD050000 		.4byte	0x5dd
 7698 1c72 8D1C0000 		.4byte	0x1c8d
 7699 1c76 11       		.uleb128 0x11
 7700 1c77 01       		.uleb128 0x1
 7701 1c78 50       		.byte	0x50
 7702 1c79 01       		.uleb128 0x1
 7703 1c7a 48       		.byte	0x48
 7704 1c7b 11       		.uleb128 0x11
 7705 1c7c 01       		.uleb128 0x1
 7706 1c7d 51       		.byte	0x51
 7707 1c7e 02       		.uleb128 0x2
 7708 1c7f 09       		.byte	0x9
 7709 1c80 FF       		.byte	0xff
 7710 1c81 11       		.uleb128 0x11
 7711 1c82 01       		.uleb128 0x1
 7712 1c83 52       		.byte	0x52
 7713 1c84 02       		.uleb128 0x2
 7714 1c85 74       		.byte	0x74
 7715 1c86 00       		.sleb128 0
 7716 1c87 11       		.uleb128 0x11
 7717 1c88 01       		.uleb128 0x1
 7718 1c89 53       		.byte	0x53
 7719 1c8a 01       		.uleb128 0x1
 7720 1c8b 32       		.byte	0x32
 7721 1c8c 00       		.byte	0
 7722 1c8d 13       		.uleb128 0x13
 7723 1c8e 20010000 		.4byte	.LVL311
 7724 1c92 DD050000 		.4byte	0x5dd
ARM GAS  C:\Users\PIERRE~1\AppData\Local\Temp\ccqD7qlI.s 			page 160


 7725 1c96 B31C0000 		.4byte	0x1cb3
 7726 1c9a 11       		.uleb128 0x11
 7727 1c9b 01       		.uleb128 0x1
 7728 1c9c 50       		.byte	0x50
 7729 1c9d 02       		.uleb128 0x2
 7730 1c9e 08       		.byte	0x8
 7731 1c9f 2E       		.byte	0x2e
 7732 1ca0 11       		.uleb128 0x11
 7733 1ca1 01       		.uleb128 0x1
 7734 1ca2 51       		.byte	0x51
 7735 1ca3 03       		.uleb128 0x3
 7736 1ca4 0A       		.byte	0xa
 7737 1ca5 0418     		.2byte	0x1804
 7738 1ca7 11       		.uleb128 0x11
 7739 1ca8 01       		.uleb128 0x1
 7740 1ca9 52       		.byte	0x52
 7741 1caa 02       		.uleb128 0x2
 7742 1cab 74       		.byte	0x74
 7743 1cac 00       		.sleb128 0
 7744 1cad 11       		.uleb128 0x11
 7745 1cae 01       		.uleb128 0x1
 7746 1caf 53       		.byte	0x53
 7747 1cb0 01       		.uleb128 0x1
 7748 1cb1 32       		.byte	0x32
 7749 1cb2 00       		.byte	0
 7750 1cb3 13       		.uleb128 0x13
 7751 1cb4 26010000 		.4byte	.LVL312
 7752 1cb8 BC200000 		.4byte	0x20bc
 7753 1cbc C71C0000 		.4byte	0x1cc7
 7754 1cc0 11       		.uleb128 0x11
 7755 1cc1 01       		.uleb128 0x1
 7756 1cc2 50       		.byte	0x50
 7757 1cc3 02       		.uleb128 0x2
 7758 1cc4 08       		.byte	0x8
 7759 1cc5 64       		.byte	0x64
 7760 1cc6 00       		.byte	0
 7761 1cc7 13       		.uleb128 0x13
 7762 1cc8 34010000 		.4byte	.LVL313
 7763 1ccc D6040000 		.4byte	0x4d6
 7764 1cd0 EC1C0000 		.4byte	0x1cec
 7765 1cd4 11       		.uleb128 0x11
 7766 1cd5 01       		.uleb128 0x1
 7767 1cd6 50       		.byte	0x50
 7768 1cd7 02       		.uleb128 0x2
 7769 1cd8 75       		.byte	0x75
 7770 1cd9 00       		.sleb128 0
 7771 1cda 11       		.uleb128 0x11
 7772 1cdb 01       		.uleb128 0x1
 7773 1cdc 51       		.byte	0x51
 7774 1cdd 02       		.uleb128 0x2
 7775 1cde 09       		.byte	0x9
 7776 1cdf FF       		.byte	0xff
 7777 1ce0 11       		.uleb128 0x11
 7778 1ce1 01       		.uleb128 0x1
 7779 1ce2 52       		.byte	0x52
 7780 1ce3 02       		.uleb128 0x2
 7781 1ce4 91       		.byte	0x91
ARM GAS  C:\Users\PIERRE~1\AppData\Local\Temp\ccqD7qlI.s 			page 161


 7782 1ce5 6C       		.sleb128 -20
 7783 1ce6 11       		.uleb128 0x11
 7784 1ce7 01       		.uleb128 0x1
 7785 1ce8 53       		.byte	0x53
 7786 1ce9 01       		.uleb128 0x1
 7787 1cea 34       		.byte	0x34
 7788 1ceb 00       		.byte	0
 7789 1cec 10       		.uleb128 0x10
 7790 1ced 5C010000 		.4byte	.LVL316
 7791 1cf1 BC200000 		.4byte	0x20bc
 7792 1cf5 11       		.uleb128 0x11
 7793 1cf6 01       		.uleb128 0x1
 7794 1cf7 50       		.byte	0x50
 7795 1cf8 02       		.uleb128 0x2
 7796 1cf9 08       		.byte	0x8
 7797 1cfa 64       		.byte	0x64
 7798 1cfb 00       		.byte	0
 7799 1cfc 00       		.byte	0
 7800 1cfd 14       		.uleb128 0x14
 7801 1cfe 50080000 		.4byte	.LASF126
 7802 1d02 01       		.byte	0x1
 7803 1d03 C102     		.2byte	0x2c1
 7804 1d05 00000000 		.4byte	.LFB99
 7805 1d09 72000000 		.4byte	.LFE99-.LFB99
 7806 1d0d 01       		.uleb128 0x1
 7807 1d0e 9C       		.byte	0x9c
 7808 1d0f D61D0000 		.4byte	0x1dd6
 7809 1d13 1C       		.uleb128 0x1c
 7810 1d14 54000000 		.4byte	.LASF127
 7811 1d18 01       		.byte	0x1
 7812 1d19 C302     		.2byte	0x2c3
 7813 1d1b 930A0000 		.4byte	0xa93
 7814 1d1f 02       		.uleb128 0x2
 7815 1d20 91       		.byte	0x91
 7816 1d21 74       		.sleb128 -12
 7817 1d22 23       		.uleb128 0x23
 7818 1d23 61636B00 		.ascii	"ack\000"
 7819 1d27 01       		.byte	0x1
 7820 1d28 C402     		.2byte	0x2c4
 7821 1d2a 930A0000 		.4byte	0xa93
 7822 1d2e 02       		.uleb128 0x2
 7823 1d2f 91       		.byte	0x91
 7824 1d30 70       		.sleb128 -16
 7825 1d31 1C       		.uleb128 0x1c
 7826 1d32 6F030000 		.4byte	.LASF65
 7827 1d36 01       		.byte	0x1
 7828 1d37 C602     		.2byte	0x2c6
 7829 1d39 97000000 		.4byte	0x97
 7830 1d3d 01       		.uleb128 0x1
 7831 1d3e 54       		.byte	0x54
 7832 1d3f 26       		.uleb128 0x26
 7833 1d40 2B060000 		.4byte	.LASF128
 7834 1d44 01       		.byte	0x1
 7835 1d45 CB02     		.2byte	0x2cb
 7836 1d47 B8000000 		.4byte	0xb8
 7837 1d4b 00F42704 		.4byte	0x427f400
 7838 1d4f 1D       		.uleb128 0x1d
ARM GAS  C:\Users\PIERRE~1\AppData\Local\Temp\ccqD7qlI.s 			page 162


 7839 1d50 14000000 		.4byte	.LVL318
 7840 1d54 7A200000 		.4byte	0x207a
 7841 1d58 1D       		.uleb128 0x1d
 7842 1d59 1A000000 		.4byte	.LVL320
 7843 1d5d 85200000 		.4byte	0x2085
 7844 1d61 13       		.uleb128 0x13
 7845 1d62 2A000000 		.4byte	.LVL321
 7846 1d66 DD050000 		.4byte	0x5dd
 7847 1d6a 851D0000 		.4byte	0x1d85
 7848 1d6e 11       		.uleb128 0x11
 7849 1d6f 01       		.uleb128 0x1
 7850 1d70 50       		.byte	0x50
 7851 1d71 01       		.uleb128 0x1
 7852 1d72 3D       		.byte	0x3d
 7853 1d73 11       		.uleb128 0x11
 7854 1d74 01       		.uleb128 0x1
 7855 1d75 51       		.byte	0x51
 7856 1d76 02       		.uleb128 0x2
 7857 1d77 09       		.byte	0x9
 7858 1d78 FF       		.byte	0xff
 7859 1d79 11       		.uleb128 0x11
 7860 1d7a 01       		.uleb128 0x1
 7861 1d7b 52       		.byte	0x52
 7862 1d7c 02       		.uleb128 0x2
 7863 1d7d 91       		.byte	0x91
 7864 1d7e 74       		.sleb128 -12
 7865 1d7f 11       		.uleb128 0x11
 7866 1d80 01       		.uleb128 0x1
 7867 1d81 53       		.byte	0x53
 7868 1d82 01       		.uleb128 0x1
 7869 1d83 34       		.byte	0x34
 7870 1d84 00       		.byte	0
 7871 1d85 13       		.uleb128 0x13
 7872 1d86 36000000 		.4byte	.LVL322
 7873 1d8a D9030000 		.4byte	0x3d9
 7874 1d8e A81D0000 		.4byte	0x1da8
 7875 1d92 11       		.uleb128 0x11
 7876 1d93 01       		.uleb128 0x1
 7877 1d94 50       		.byte	0x50
 7878 1d95 02       		.uleb128 0x2
 7879 1d96 7D       		.byte	0x7d
 7880 1d97 00       		.sleb128 0
 7881 1d98 11       		.uleb128 0x11
 7882 1d99 01       		.uleb128 0x1
 7883 1d9a 51       		.byte	0x51
 7884 1d9b 01       		.uleb128 0x1
 7885 1d9c 34       		.byte	0x34
 7886 1d9d 11       		.uleb128 0x11
 7887 1d9e 01       		.uleb128 0x1
 7888 1d9f 52       		.byte	0x52
 7889 1da0 01       		.uleb128 0x1
 7890 1da1 37       		.byte	0x37
 7891 1da2 11       		.uleb128 0x11
 7892 1da3 01       		.uleb128 0x1
 7893 1da4 53       		.byte	0x53
 7894 1da5 01       		.uleb128 0x1
 7895 1da6 31       		.byte	0x31
ARM GAS  C:\Users\PIERRE~1\AppData\Local\Temp\ccqD7qlI.s 			page 163


 7896 1da7 00       		.byte	0
 7897 1da8 13       		.uleb128 0x13
 7898 1da9 68000000 		.4byte	.LVL323
 7899 1dad DD050000 		.4byte	0x5dd
 7900 1db1 CC1D0000 		.4byte	0x1dcc
 7901 1db5 11       		.uleb128 0x11
 7902 1db6 01       		.uleb128 0x1
 7903 1db7 50       		.byte	0x50
 7904 1db8 01       		.uleb128 0x1
 7905 1db9 3F       		.byte	0x3f
 7906 1dba 11       		.uleb128 0x11
 7907 1dbb 01       		.uleb128 0x1
 7908 1dbc 51       		.byte	0x51
 7909 1dbd 02       		.uleb128 0x2
 7910 1dbe 09       		.byte	0x9
 7911 1dbf FF       		.byte	0xff
 7912 1dc0 11       		.uleb128 0x11
 7913 1dc1 01       		.uleb128 0x1
 7914 1dc2 52       		.byte	0x52
 7915 1dc3 02       		.uleb128 0x2
 7916 1dc4 7D       		.byte	0x7d
 7917 1dc5 00       		.sleb128 0
 7918 1dc6 11       		.uleb128 0x11
 7919 1dc7 01       		.uleb128 0x1
 7920 1dc8 53       		.byte	0x53
 7921 1dc9 01       		.uleb128 0x1
 7922 1dca 34       		.byte	0x34
 7923 1dcb 00       		.byte	0
 7924 1dcc 1D       		.uleb128 0x1d
 7925 1dcd 6E000000 		.4byte	.LVL324
 7926 1dd1 B1200000 		.4byte	0x20b1
 7927 1dd5 00       		.byte	0
 7928 1dd6 14       		.uleb128 0x14
 7929 1dd7 45010000 		.4byte	.LASF129
 7930 1ddb 01       		.byte	0x1
 7931 1ddc F902     		.2byte	0x2f9
 7932 1dde 00000000 		.4byte	.LFB101
 7933 1de2 2E000000 		.4byte	.LFE101-.LFB101
 7934 1de6 01       		.uleb128 0x1
 7935 1de7 9C       		.byte	0x9c
 7936 1de8 401E0000 		.4byte	0x1e40
 7937 1dec 1C       		.uleb128 0x1c
 7938 1ded 16060000 		.4byte	.LASF115
 7939 1df1 01       		.byte	0x1
 7940 1df2 FA02     		.2byte	0x2fa
 7941 1df4 D40B0000 		.4byte	0xbd4
 7942 1df8 02       		.uleb128 0x2
 7943 1df9 91       		.byte	0x91
 7944 1dfa 74       		.sleb128 -12
 7945 1dfb 13       		.uleb128 0x13
 7946 1dfc 18000000 		.4byte	.LVL325
 7947 1e00 DD050000 		.4byte	0x5dd
 7948 1e04 1F1E0000 		.4byte	0x1e1f
 7949 1e08 11       		.uleb128 0x11
 7950 1e09 01       		.uleb128 0x1
 7951 1e0a 50       		.byte	0x50
 7952 1e0b 02       		.uleb128 0x2
ARM GAS  C:\Users\PIERRE~1\AppData\Local\Temp\ccqD7qlI.s 			page 164


 7953 1e0c 08       		.byte	0x8
 7954 1e0d 36       		.byte	0x36
 7955 1e0e 11       		.uleb128 0x11
 7956 1e0f 01       		.uleb128 0x1
 7957 1e10 51       		.byte	0x51
 7958 1e11 01       		.uleb128 0x1
 7959 1e12 33       		.byte	0x33
 7960 1e13 11       		.uleb128 0x11
 7961 1e14 01       		.uleb128 0x1
 7962 1e15 52       		.byte	0x52
 7963 1e16 02       		.uleb128 0x2
 7964 1e17 74       		.byte	0x74
 7965 1e18 00       		.sleb128 0
 7966 1e19 11       		.uleb128 0x11
 7967 1e1a 01       		.uleb128 0x1
 7968 1e1b 53       		.byte	0x53
 7969 1e1c 01       		.uleb128 0x1
 7970 1e1d 31       		.byte	0x31
 7971 1e1e 00       		.byte	0
 7972 1e1f 10       		.uleb128 0x10
 7973 1e20 2A000000 		.4byte	.LVL326
 7974 1e24 DD050000 		.4byte	0x5dd
 7975 1e28 11       		.uleb128 0x11
 7976 1e29 01       		.uleb128 0x1
 7977 1e2a 50       		.byte	0x50
 7978 1e2b 02       		.uleb128 0x2
 7979 1e2c 08       		.byte	0x8
 7980 1e2d 36       		.byte	0x36
 7981 1e2e 11       		.uleb128 0x11
 7982 1e2f 01       		.uleb128 0x1
 7983 1e30 51       		.byte	0x51
 7984 1e31 01       		.uleb128 0x1
 7985 1e32 33       		.byte	0x33
 7986 1e33 11       		.uleb128 0x11
 7987 1e34 01       		.uleb128 0x1
 7988 1e35 52       		.byte	0x52
 7989 1e36 02       		.uleb128 0x2
 7990 1e37 74       		.byte	0x74
 7991 1e38 00       		.sleb128 0
 7992 1e39 11       		.uleb128 0x11
 7993 1e3a 01       		.uleb128 0x1
 7994 1e3b 53       		.byte	0x53
 7995 1e3c 01       		.uleb128 0x1
 7996 1e3d 31       		.byte	0x31
 7997 1e3e 00       		.byte	0
 7998 1e3f 00       		.byte	0
 7999 1e40 14       		.uleb128 0x14
 8000 1e41 00000000 		.4byte	.LASF130
 8001 1e45 01       		.byte	0x1
 8002 1e46 0103     		.2byte	0x301
 8003 1e48 00000000 		.4byte	.LFB102
 8004 1e4c 2A000000 		.4byte	.LFE102-.LFB102
 8005 1e50 01       		.uleb128 0x1
 8006 1e51 9C       		.byte	0x9c
 8007 1e52 A91E0000 		.4byte	0x1ea9
 8008 1e56 1C       		.uleb128 0x1c
 8009 1e57 9E060000 		.4byte	.LASF131
ARM GAS  C:\Users\PIERRE~1\AppData\Local\Temp\ccqD7qlI.s 			page 165


 8010 1e5b 01       		.byte	0x1
 8011 1e5c 0203     		.2byte	0x302
 8012 1e5e 930A0000 		.4byte	0xa93
 8013 1e62 02       		.uleb128 0x2
 8014 1e63 91       		.byte	0x91
 8015 1e64 74       		.sleb128 -12
 8016 1e65 13       		.uleb128 0x13
 8017 1e66 18000000 		.4byte	.LVL327
 8018 1e6a D9030000 		.4byte	0x3d9
 8019 1e6e 881E0000 		.4byte	0x1e88
 8020 1e72 11       		.uleb128 0x11
 8021 1e73 01       		.uleb128 0x1
 8022 1e74 50       		.byte	0x50
 8023 1e75 02       		.uleb128 0x2
 8024 1e76 74       		.byte	0x74
 8025 1e77 00       		.sleb128 0
 8026 1e78 11       		.uleb128 0x11
 8027 1e79 01       		.uleb128 0x1
 8028 1e7a 51       		.byte	0x51
 8029 1e7b 01       		.uleb128 0x1
 8030 1e7c 34       		.byte	0x34
 8031 1e7d 11       		.uleb128 0x11
 8032 1e7e 01       		.uleb128 0x1
 8033 1e7f 52       		.byte	0x52
 8034 1e80 01       		.uleb128 0x1
 8035 1e81 38       		.byte	0x38
 8036 1e82 11       		.uleb128 0x11
 8037 1e83 01       		.uleb128 0x1
 8038 1e84 53       		.byte	0x53
 8039 1e85 01       		.uleb128 0x1
 8040 1e86 31       		.byte	0x31
 8041 1e87 00       		.byte	0
 8042 1e88 10       		.uleb128 0x10
 8043 1e89 26000000 		.4byte	.LVL328
 8044 1e8d DD050000 		.4byte	0x5dd
 8045 1e91 11       		.uleb128 0x11
 8046 1e92 01       		.uleb128 0x1
 8047 1e93 50       		.byte	0x50
 8048 1e94 01       		.uleb128 0x1
 8049 1e95 3D       		.byte	0x3d
 8050 1e96 11       		.uleb128 0x11
 8051 1e97 01       		.uleb128 0x1
 8052 1e98 51       		.byte	0x51
 8053 1e99 02       		.uleb128 0x2
 8054 1e9a 09       		.byte	0x9
 8055 1e9b FF       		.byte	0xff
 8056 1e9c 11       		.uleb128 0x11
 8057 1e9d 01       		.uleb128 0x1
 8058 1e9e 52       		.byte	0x52
 8059 1e9f 02       		.uleb128 0x2
 8060 1ea0 74       		.byte	0x74
 8061 1ea1 00       		.sleb128 0
 8062 1ea2 11       		.uleb128 0x11
 8063 1ea3 01       		.uleb128 0x1
 8064 1ea4 53       		.byte	0x53
 8065 1ea5 01       		.uleb128 0x1
 8066 1ea6 34       		.byte	0x34
ARM GAS  C:\Users\PIERRE~1\AppData\Local\Temp\ccqD7qlI.s 			page 166


 8067 1ea7 00       		.byte	0
 8068 1ea8 00       		.byte	0
 8069 1ea9 14       		.uleb128 0x14
 8070 1eaa AE010000 		.4byte	.LASF132
 8071 1eae 01       		.byte	0x1
 8072 1eaf 7303     		.2byte	0x373
 8073 1eb1 00000000 		.4byte	.LFB108
 8074 1eb5 6C000000 		.4byte	.LFE108-.LFB108
 8075 1eb9 01       		.uleb128 0x1
 8076 1eba 9C       		.byte	0x9c
 8077 1ebb 961F0000 		.4byte	0x1f96
 8078 1ebf 1A       		.uleb128 0x1a
 8079 1ec0 C7030000 		.4byte	.LASF52
 8080 1ec4 01       		.byte	0x1
 8081 1ec5 7303     		.2byte	0x373
 8082 1ec7 5C040000 		.4byte	0x45c
 8083 1ecb 29080000 		.4byte	.LLST44
 8084 1ecf 17       		.uleb128 0x17
 8085 1ed0 6C656E00 		.ascii	"len\000"
 8086 1ed4 01       		.byte	0x1
 8087 1ed5 7303     		.2byte	0x373
 8088 1ed7 97000000 		.4byte	0x97
 8089 1edb 55080000 		.4byte	.LLST45
 8090 1edf 1A       		.uleb128 0x1a
 8091 1ee0 3E030000 		.4byte	.LASF133
 8092 1ee4 01       		.byte	0x1
 8093 1ee5 7303     		.2byte	0x373
 8094 1ee7 97000000 		.4byte	0x97
 8095 1eeb 76080000 		.4byte	.LLST46
 8096 1eef 1C       		.uleb128 0x1c
 8097 1ef0 05010000 		.4byte	.LASF134
 8098 1ef4 01       		.byte	0x1
 8099 1ef5 7503     		.2byte	0x375
 8100 1ef7 97000000 		.4byte	0x97
 8101 1efb 02       		.uleb128 0x2
 8102 1efc 91       		.byte	0x91
 8103 1efd 6F       		.sleb128 -17
 8104 1efe 1C       		.uleb128 0x1c
 8105 1eff 54000000 		.4byte	.LASF127
 8106 1f03 01       		.byte	0x1
 8107 1f04 7B03     		.2byte	0x37b
 8108 1f06 930A0000 		.4byte	0xa93
 8109 1f0a 02       		.uleb128 0x2
 8110 1f0b 91       		.byte	0x91
 8111 1f0c 68       		.sleb128 -24
 8112 1f0d 13       		.uleb128 0x13
 8113 1f0e 1C000000 		.4byte	.LVL333
 8114 1f12 DD050000 		.4byte	0x5dd
 8115 1f16 2D1F0000 		.4byte	0x1f2d
 8116 1f1a 11       		.uleb128 0x11
 8117 1f1b 01       		.uleb128 0x1
 8118 1f1c 50       		.byte	0x50
 8119 1f1d 01       		.uleb128 0x1
 8120 1f1e 39       		.byte	0x39
 8121 1f1f 11       		.uleb128 0x11
 8122 1f20 01       		.uleb128 0x1
 8123 1f21 51       		.byte	0x51
ARM GAS  C:\Users\PIERRE~1\AppData\Local\Temp\ccqD7qlI.s 			page 167


 8124 1f22 02       		.uleb128 0x2
 8125 1f23 09       		.byte	0x9
 8126 1f24 FF       		.byte	0xff
 8127 1f25 11       		.uleb128 0x11
 8128 1f26 01       		.uleb128 0x1
 8129 1f27 52       		.byte	0x52
 8130 1f28 03       		.uleb128 0x3
 8131 1f29 F3       		.byte	0xf3
 8132 1f2a 01       		.uleb128 0x1
 8133 1f2b 50       		.byte	0x50
 8134 1f2c 00       		.byte	0
 8135 1f2d 13       		.uleb128 0x13
 8136 1f2e 2A000000 		.4byte	.LVL334
 8137 1f32 DD050000 		.4byte	0x5dd
 8138 1f36 511F0000 		.4byte	0x1f51
 8139 1f3a 11       		.uleb128 0x11
 8140 1f3b 01       		.uleb128 0x1
 8141 1f3c 50       		.byte	0x50
 8142 1f3d 01       		.uleb128 0x1
 8143 1f3e 38       		.byte	0x38
 8144 1f3f 11       		.uleb128 0x11
 8145 1f40 01       		.uleb128 0x1
 8146 1f41 51       		.byte	0x51
 8147 1f42 02       		.uleb128 0x2
 8148 1f43 09       		.byte	0x9
 8149 1f44 FF       		.byte	0xff
 8150 1f45 11       		.uleb128 0x11
 8151 1f46 01       		.uleb128 0x1
 8152 1f47 52       		.byte	0x52
 8153 1f48 02       		.uleb128 0x2
 8154 1f49 74       		.byte	0x74
 8155 1f4a 00       		.sleb128 0
 8156 1f4b 11       		.uleb128 0x11
 8157 1f4c 01       		.uleb128 0x1
 8158 1f4d 53       		.byte	0x53
 8159 1f4e 01       		.uleb128 0x1
 8160 1f4f 31       		.byte	0x31
 8161 1f50 00       		.byte	0
 8162 1f51 13       		.uleb128 0x13
 8163 1f52 3E000000 		.4byte	.LVL335
 8164 1f56 D6040000 		.4byte	0x4d6
 8165 1f5a 751F0000 		.4byte	0x1f75
 8166 1f5e 11       		.uleb128 0x11
 8167 1f5f 01       		.uleb128 0x1
 8168 1f60 50       		.byte	0x50
 8169 1f61 01       		.uleb128 0x1
 8170 1f62 3D       		.byte	0x3d
 8171 1f63 11       		.uleb128 0x11
 8172 1f64 01       		.uleb128 0x1
 8173 1f65 51       		.byte	0x51
 8174 1f66 02       		.uleb128 0x2
 8175 1f67 09       		.byte	0x9
 8176 1f68 FF       		.byte	0xff
 8177 1f69 11       		.uleb128 0x11
 8178 1f6a 01       		.uleb128 0x1
 8179 1f6b 52       		.byte	0x52
 8180 1f6c 02       		.uleb128 0x2
ARM GAS  C:\Users\PIERRE~1\AppData\Local\Temp\ccqD7qlI.s 			page 168


 8181 1f6d 74       		.byte	0x74
 8182 1f6e 79       		.sleb128 -7
 8183 1f6f 11       		.uleb128 0x11
 8184 1f70 01       		.uleb128 0x1
 8185 1f71 53       		.byte	0x53
 8186 1f72 01       		.uleb128 0x1
 8187 1f73 31       		.byte	0x31
 8188 1f74 00       		.byte	0
 8189 1f75 10       		.uleb128 0x10
 8190 1f76 68000000 		.4byte	.LVL336
 8191 1f7a DD050000 		.4byte	0x5dd
 8192 1f7e 11       		.uleb128 0x11
 8193 1f7f 01       		.uleb128 0x1
 8194 1f80 50       		.byte	0x50
 8195 1f81 01       		.uleb128 0x1
 8196 1f82 3D       		.byte	0x3d
 8197 1f83 11       		.uleb128 0x11
 8198 1f84 01       		.uleb128 0x1
 8199 1f85 51       		.byte	0x51
 8200 1f86 02       		.uleb128 0x2
 8201 1f87 09       		.byte	0x9
 8202 1f88 FF       		.byte	0xff
 8203 1f89 11       		.uleb128 0x11
 8204 1f8a 01       		.uleb128 0x1
 8205 1f8b 52       		.byte	0x52
 8206 1f8c 02       		.uleb128 0x2
 8207 1f8d 7D       		.byte	0x7d
 8208 1f8e 00       		.sleb128 0
 8209 1f8f 11       		.uleb128 0x11
 8210 1f90 01       		.uleb128 0x1
 8211 1f91 53       		.byte	0x53
 8212 1f92 01       		.uleb128 0x1
 8213 1f93 34       		.byte	0x34
 8214 1f94 00       		.byte	0
 8215 1f95 00       		.byte	0
 8216 1f96 14       		.uleb128 0x14
 8217 1f97 8E060000 		.4byte	.LASF135
 8218 1f9b 01       		.byte	0x1
 8219 1f9c 8A03     		.2byte	0x38a
 8220 1f9e 00000000 		.4byte	.LFB109
 8221 1fa2 68000000 		.4byte	.LFE109-.LFB109
 8222 1fa6 01       		.uleb128 0x1
 8223 1fa7 9C       		.byte	0x9c
 8224 1fa8 58200000 		.4byte	0x2058
 8225 1fac 1A       		.uleb128 0x1a
 8226 1fad 65000000 		.4byte	.LASF136
 8227 1fb1 01       		.byte	0x1
 8228 1fb2 8A03     		.2byte	0x38a
 8229 1fb4 5C040000 		.4byte	0x45c
 8230 1fb8 97080000 		.4byte	.LLST47
 8231 1fbc 1C       		.uleb128 0x1c
 8232 1fbd 4B080000 		.4byte	.LASF137
 8233 1fc1 01       		.byte	0x1
 8234 1fc2 8B03     		.2byte	0x38b
 8235 1fc4 97000000 		.4byte	0x97
 8236 1fc8 02       		.uleb128 0x2
 8237 1fc9 91       		.byte	0x91
ARM GAS  C:\Users\PIERRE~1\AppData\Local\Temp\ccqD7qlI.s 			page 169


 8238 1fca 77       		.sleb128 -9
 8239 1fcb 27       		.uleb128 0x27
 8240 1fcc 36000000 		.4byte	.LBB2
 8241 1fd0 2E000000 		.4byte	.LBE2-.LBB2
 8242 1fd4 18200000 		.4byte	0x2018
 8243 1fd8 1C       		.uleb128 0x1c
 8244 1fd9 52010000 		.4byte	.LASF138
 8245 1fdd 01       		.byte	0x1
 8246 1fde 9003     		.2byte	0x390
 8247 1fe0 97000000 		.4byte	0x97
 8248 1fe4 02       		.uleb128 0x2
 8249 1fe5 91       		.byte	0x91
 8250 1fe6 76       		.sleb128 -10
 8251 1fe7 18       		.uleb128 0x18
 8252 1fe8 64656300 		.ascii	"dec\000"
 8253 1fec 01       		.byte	0x1
 8254 1fed 9203     		.2byte	0x392
 8255 1fef 97000000 		.4byte	0x97
 8256 1ff3 B5080000 		.4byte	.LLST48
 8257 1ff7 10       		.uleb128 0x10
 8258 1ff8 4A000000 		.4byte	.LVL341
 8259 1ffc D6040000 		.4byte	0x4d6
 8260 2000 11       		.uleb128 0x11
 8261 2001 01       		.uleb128 0x1
 8262 2002 50       		.byte	0x50
 8263 2003 01       		.uleb128 0x1
 8264 2004 41       		.byte	0x41
 8265 2005 11       		.uleb128 0x11
 8266 2006 01       		.uleb128 0x1
 8267 2007 51       		.byte	0x51
 8268 2008 02       		.uleb128 0x2
 8269 2009 09       		.byte	0x9
 8270 200a FF       		.byte	0xff
 8271 200b 11       		.uleb128 0x11
 8272 200c 01       		.uleb128 0x1
 8273 200d 52       		.byte	0x52
 8274 200e 02       		.uleb128 0x2
 8275 200f 91       		.byte	0x91
 8276 2010 76       		.sleb128 -10
 8277 2011 11       		.uleb128 0x11
 8278 2012 01       		.uleb128 0x1
 8279 2013 53       		.byte	0x53
 8280 2014 01       		.uleb128 0x1
 8281 2015 31       		.byte	0x31
 8282 2016 00       		.byte	0
 8283 2017 00       		.byte	0
 8284 2018 13       		.uleb128 0x13
 8285 2019 16000000 		.4byte	.LVL339
 8286 201d D6040000 		.4byte	0x4d6
 8287 2021 3C200000 		.4byte	0x203c
 8288 2025 11       		.uleb128 0x11
 8289 2026 01       		.uleb128 0x1
 8290 2027 50       		.byte	0x50
 8291 2028 01       		.uleb128 0x1
 8292 2029 40       		.byte	0x40
 8293 202a 11       		.uleb128 0x11
 8294 202b 01       		.uleb128 0x1
ARM GAS  C:\Users\PIERRE~1\AppData\Local\Temp\ccqD7qlI.s 			page 170


 8295 202c 51       		.byte	0x51
 8296 202d 02       		.uleb128 0x2
 8297 202e 09       		.byte	0x9
 8298 202f FF       		.byte	0xff
 8299 2030 11       		.uleb128 0x11
 8300 2031 01       		.uleb128 0x1
 8301 2032 52       		.byte	0x52
 8302 2033 02       		.uleb128 0x2
 8303 2034 91       		.byte	0x91
 8304 2035 77       		.sleb128 -9
 8305 2036 11       		.uleb128 0x11
 8306 2037 01       		.uleb128 0x1
 8307 2038 53       		.byte	0x53
 8308 2039 01       		.uleb128 0x1
 8309 203a 31       		.byte	0x31
 8310 203b 00       		.byte	0
 8311 203c 10       		.uleb128 0x10
 8312 203d 2E000000 		.4byte	.LVL340
 8313 2041 D6040000 		.4byte	0x4d6
 8314 2045 11       		.uleb128 0x11
 8315 2046 01       		.uleb128 0x1
 8316 2047 50       		.byte	0x50
 8317 2048 01       		.uleb128 0x1
 8318 2049 41       		.byte	0x41
 8319 204a 11       		.uleb128 0x11
 8320 204b 01       		.uleb128 0x1
 8321 204c 51       		.byte	0x51
 8322 204d 02       		.uleb128 0x2
 8323 204e 09       		.byte	0x9
 8324 204f FF       		.byte	0xff
 8325 2050 11       		.uleb128 0x11
 8326 2051 01       		.uleb128 0x1
 8327 2052 52       		.byte	0x52
 8328 2053 02       		.uleb128 0x2
 8329 2054 74       		.byte	0x74
 8330 2055 00       		.sleb128 0
 8331 2056 00       		.byte	0
 8332 2057 00       		.byte	0
 8333 2058 22       		.uleb128 0x22
 8334 2059 BD050000 		.4byte	.LASF139
 8335 205d 01       		.byte	0x1
 8336 205e 19       		.byte	0x19
 8337 205f 40020000 		.4byte	0x240
 8338 2063 05       		.uleb128 0x5
 8339 2064 03       		.byte	0x3
 8340 2065 00000000 		.4byte	config
 8341 2069 28       		.uleb128 0x28
 8342 206a F3050000 		.4byte	.LASF150
 8343 206e 09       		.byte	0x9
 8344 206f 1207     		.2byte	0x712
 8345 2071 75200000 		.4byte	0x2075
 8346 2075 29       		.uleb128 0x29
 8347 2076 AD000000 		.4byte	0xad
 8348 207a 2A       		.uleb128 0x2a
 8349 207b 79050000 		.4byte	.LASF140
 8350 207f 79050000 		.4byte	.LASF140
 8351 2083 06       		.byte	0x6
ARM GAS  C:\Users\PIERRE~1\AppData\Local\Temp\ccqD7qlI.s 			page 171


 8352 2084 24       		.byte	0x24
 8353 2085 2A       		.uleb128 0x2a
 8354 2086 FD060000 		.4byte	.LASF141
 8355 208a FD060000 		.4byte	.LASF141
 8356 208e 06       		.byte	0x6
 8357 208f 25       		.byte	0x25
 8358 2090 2A       		.uleb128 0x2a
 8359 2091 A9070000 		.4byte	.LASF142
 8360 2095 A9070000 		.4byte	.LASF142
 8361 2099 07       		.byte	0x7
 8362 209a 5E       		.byte	0x5e
 8363 209b 2A       		.uleb128 0x2a
 8364 209c 14050000 		.4byte	.LASF143
 8365 20a0 14050000 		.4byte	.LASF143
 8366 20a4 07       		.byte	0x7
 8367 20a5 5C       		.byte	0x5c
 8368 20a6 2A       		.uleb128 0x2a
 8369 20a7 24070000 		.4byte	.LASF144
 8370 20ab 24070000 		.4byte	.LASF144
 8371 20af 07       		.byte	0x7
 8372 20b0 60       		.byte	0x60
 8373 20b1 2A       		.uleb128 0x2a
 8374 20b2 40080000 		.4byte	.LASF145
 8375 20b6 40080000 		.4byte	.LASF145
 8376 20ba 06       		.byte	0x6
 8377 20bb 23       		.byte	0x23
 8378 20bc 2A       		.uleb128 0x2a
 8379 20bd 0E000000 		.4byte	.LASF146
 8380 20c1 0E000000 		.4byte	.LASF146
 8381 20c5 08       		.byte	0x8
 8382 20c6 76       		.byte	0x76
 8383 20c7 00       		.byte	0
 8384              		.section	.debug_abbrev,"",%progbits
 8385              	.Ldebug_abbrev0:
 8386 0000 01       		.uleb128 0x1
 8387 0001 11       		.uleb128 0x11
 8388 0002 01       		.byte	0x1
 8389 0003 25       		.uleb128 0x25
 8390 0004 0E       		.uleb128 0xe
 8391 0005 13       		.uleb128 0x13
 8392 0006 0B       		.uleb128 0xb
 8393 0007 03       		.uleb128 0x3
 8394 0008 0E       		.uleb128 0xe
 8395 0009 1B       		.uleb128 0x1b
 8396 000a 0E       		.uleb128 0xe
 8397 000b 55       		.uleb128 0x55
 8398 000c 17       		.uleb128 0x17
 8399 000d 11       		.uleb128 0x11
 8400 000e 01       		.uleb128 0x1
 8401 000f 10       		.uleb128 0x10
 8402 0010 17       		.uleb128 0x17
 8403 0011 00       		.byte	0
 8404 0012 00       		.byte	0
 8405 0013 02       		.uleb128 0x2
 8406 0014 24       		.uleb128 0x24
 8407 0015 00       		.byte	0
 8408 0016 0B       		.uleb128 0xb
ARM GAS  C:\Users\PIERRE~1\AppData\Local\Temp\ccqD7qlI.s 			page 172


 8409 0017 0B       		.uleb128 0xb
 8410 0018 3E       		.uleb128 0x3e
 8411 0019 0B       		.uleb128 0xb
 8412 001a 03       		.uleb128 0x3
 8413 001b 0E       		.uleb128 0xe
 8414 001c 00       		.byte	0
 8415 001d 00       		.byte	0
 8416 001e 03       		.uleb128 0x3
 8417 001f 16       		.uleb128 0x16
 8418 0020 00       		.byte	0
 8419 0021 03       		.uleb128 0x3
 8420 0022 0E       		.uleb128 0xe
 8421 0023 3A       		.uleb128 0x3a
 8422 0024 0B       		.uleb128 0xb
 8423 0025 3B       		.uleb128 0x3b
 8424 0026 0B       		.uleb128 0xb
 8425 0027 49       		.uleb128 0x49
 8426 0028 13       		.uleb128 0x13
 8427 0029 00       		.byte	0
 8428 002a 00       		.byte	0
 8429 002b 04       		.uleb128 0x4
 8430 002c 24       		.uleb128 0x24
 8431 002d 00       		.byte	0
 8432 002e 0B       		.uleb128 0xb
 8433 002f 0B       		.uleb128 0xb
 8434 0030 3E       		.uleb128 0x3e
 8435 0031 0B       		.uleb128 0xb
 8436 0032 03       		.uleb128 0x3
 8437 0033 08       		.uleb128 0x8
 8438 0034 00       		.byte	0
 8439 0035 00       		.byte	0
 8440 0036 05       		.uleb128 0x5
 8441 0037 16       		.uleb128 0x16
 8442 0038 00       		.byte	0
 8443 0039 03       		.uleb128 0x3
 8444 003a 0E       		.uleb128 0xe
 8445 003b 3A       		.uleb128 0x3a
 8446 003c 0B       		.uleb128 0xb
 8447 003d 3B       		.uleb128 0x3b
 8448 003e 05       		.uleb128 0x5
 8449 003f 49       		.uleb128 0x49
 8450 0040 13       		.uleb128 0x13
 8451 0041 00       		.byte	0
 8452 0042 00       		.byte	0
 8453 0043 06       		.uleb128 0x6
 8454 0044 04       		.uleb128 0x4
 8455 0045 01       		.byte	0x1
 8456 0046 03       		.uleb128 0x3
 8457 0047 0E       		.uleb128 0xe
 8458 0048 0B       		.uleb128 0xb
 8459 0049 0B       		.uleb128 0xb
 8460 004a 49       		.uleb128 0x49
 8461 004b 13       		.uleb128 0x13
 8462 004c 3A       		.uleb128 0x3a
 8463 004d 0B       		.uleb128 0xb
 8464 004e 3B       		.uleb128 0x3b
 8465 004f 0B       		.uleb128 0xb
ARM GAS  C:\Users\PIERRE~1\AppData\Local\Temp\ccqD7qlI.s 			page 173


 8466 0050 01       		.uleb128 0x1
 8467 0051 13       		.uleb128 0x13
 8468 0052 00       		.byte	0
 8469 0053 00       		.byte	0
 8470 0054 07       		.uleb128 0x7
 8471 0055 28       		.uleb128 0x28
 8472 0056 00       		.byte	0
 8473 0057 03       		.uleb128 0x3
 8474 0058 08       		.uleb128 0x8
 8475 0059 1C       		.uleb128 0x1c
 8476 005a 0B       		.uleb128 0xb
 8477 005b 00       		.byte	0
 8478 005c 00       		.byte	0
 8479 005d 08       		.uleb128 0x8
 8480 005e 04       		.uleb128 0x4
 8481 005f 01       		.byte	0x1
 8482 0060 03       		.uleb128 0x3
 8483 0061 08       		.uleb128 0x8
 8484 0062 0B       		.uleb128 0xb
 8485 0063 0B       		.uleb128 0xb
 8486 0064 49       		.uleb128 0x49
 8487 0065 13       		.uleb128 0x13
 8488 0066 3A       		.uleb128 0x3a
 8489 0067 0B       		.uleb128 0xb
 8490 0068 3B       		.uleb128 0x3b
 8491 0069 0B       		.uleb128 0xb
 8492 006a 01       		.uleb128 0x1
 8493 006b 13       		.uleb128 0x13
 8494 006c 00       		.byte	0
 8495 006d 00       		.byte	0
 8496 006e 09       		.uleb128 0x9
 8497 006f 28       		.uleb128 0x28
 8498 0070 00       		.byte	0
 8499 0071 03       		.uleb128 0x3
 8500 0072 0E       		.uleb128 0xe
 8501 0073 1C       		.uleb128 0x1c
 8502 0074 0B       		.uleb128 0xb
 8503 0075 00       		.byte	0
 8504 0076 00       		.byte	0
 8505 0077 0A       		.uleb128 0xa
 8506 0078 13       		.uleb128 0x13
 8507 0079 01       		.byte	0x1
 8508 007a 03       		.uleb128 0x3
 8509 007b 0E       		.uleb128 0xe
 8510 007c 0B       		.uleb128 0xb
 8511 007d 0B       		.uleb128 0xb
 8512 007e 3A       		.uleb128 0x3a
 8513 007f 0B       		.uleb128 0xb
 8514 0080 3B       		.uleb128 0x3b
 8515 0081 0B       		.uleb128 0xb
 8516 0082 01       		.uleb128 0x1
 8517 0083 13       		.uleb128 0x13
 8518 0084 00       		.byte	0
 8519 0085 00       		.byte	0
 8520 0086 0B       		.uleb128 0xb
 8521 0087 0D       		.uleb128 0xd
 8522 0088 00       		.byte	0
ARM GAS  C:\Users\PIERRE~1\AppData\Local\Temp\ccqD7qlI.s 			page 174


 8523 0089 03       		.uleb128 0x3
 8524 008a 0E       		.uleb128 0xe
 8525 008b 3A       		.uleb128 0x3a
 8526 008c 0B       		.uleb128 0xb
 8527 008d 3B       		.uleb128 0x3b
 8528 008e 0B       		.uleb128 0xb
 8529 008f 49       		.uleb128 0x49
 8530 0090 13       		.uleb128 0x13
 8531 0091 38       		.uleb128 0x38
 8532 0092 0B       		.uleb128 0xb
 8533 0093 00       		.byte	0
 8534 0094 00       		.byte	0
 8535 0095 0C       		.uleb128 0xc
 8536 0096 0D       		.uleb128 0xd
 8537 0097 00       		.byte	0
 8538 0098 03       		.uleb128 0x3
 8539 0099 08       		.uleb128 0x8
 8540 009a 3A       		.uleb128 0x3a
 8541 009b 0B       		.uleb128 0xb
 8542 009c 3B       		.uleb128 0x3b
 8543 009d 0B       		.uleb128 0xb
 8544 009e 49       		.uleb128 0x49
 8545 009f 13       		.uleb128 0x13
 8546 00a0 38       		.uleb128 0x38
 8547 00a1 0B       		.uleb128 0xb
 8548 00a2 00       		.byte	0
 8549 00a3 00       		.byte	0
 8550 00a4 0D       		.uleb128 0xd
 8551 00a5 2E       		.uleb128 0x2e
 8552 00a6 01       		.byte	0x1
 8553 00a7 03       		.uleb128 0x3
 8554 00a8 0E       		.uleb128 0xe
 8555 00a9 3A       		.uleb128 0x3a
 8556 00aa 0B       		.uleb128 0xb
 8557 00ab 3B       		.uleb128 0x3b
 8558 00ac 0B       		.uleb128 0xb
 8559 00ad 27       		.uleb128 0x27
 8560 00ae 19       		.uleb128 0x19
 8561 00af 49       		.uleb128 0x49
 8562 00b0 13       		.uleb128 0x13
 8563 00b1 11       		.uleb128 0x11
 8564 00b2 01       		.uleb128 0x1
 8565 00b3 12       		.uleb128 0x12
 8566 00b4 06       		.uleb128 0x6
 8567 00b5 40       		.uleb128 0x40
 8568 00b6 18       		.uleb128 0x18
 8569 00b7 9742     		.uleb128 0x2117
 8570 00b9 19       		.uleb128 0x19
 8571 00ba 01       		.uleb128 0x1
 8572 00bb 13       		.uleb128 0x13
 8573 00bc 00       		.byte	0
 8574 00bd 00       		.byte	0
 8575 00be 0E       		.uleb128 0xe
 8576 00bf 05       		.uleb128 0x5
 8577 00c0 00       		.byte	0
 8578 00c1 03       		.uleb128 0x3
 8579 00c2 0E       		.uleb128 0xe
ARM GAS  C:\Users\PIERRE~1\AppData\Local\Temp\ccqD7qlI.s 			page 175


 8580 00c3 3A       		.uleb128 0x3a
 8581 00c4 0B       		.uleb128 0xb
 8582 00c5 3B       		.uleb128 0x3b
 8583 00c6 0B       		.uleb128 0xb
 8584 00c7 49       		.uleb128 0x49
 8585 00c8 13       		.uleb128 0x13
 8586 00c9 02       		.uleb128 0x2
 8587 00ca 17       		.uleb128 0x17
 8588 00cb 00       		.byte	0
 8589 00cc 00       		.byte	0
 8590 00cd 0F       		.uleb128 0xf
 8591 00ce 0F       		.uleb128 0xf
 8592 00cf 00       		.byte	0
 8593 00d0 0B       		.uleb128 0xb
 8594 00d1 0B       		.uleb128 0xb
 8595 00d2 49       		.uleb128 0x49
 8596 00d3 13       		.uleb128 0x13
 8597 00d4 00       		.byte	0
 8598 00d5 00       		.byte	0
 8599 00d6 10       		.uleb128 0x10
 8600 00d7 898201   		.uleb128 0x4109
 8601 00da 01       		.byte	0x1
 8602 00db 11       		.uleb128 0x11
 8603 00dc 01       		.uleb128 0x1
 8604 00dd 31       		.uleb128 0x31
 8605 00de 13       		.uleb128 0x13
 8606 00df 00       		.byte	0
 8607 00e0 00       		.byte	0
 8608 00e1 11       		.uleb128 0x11
 8609 00e2 8A8201   		.uleb128 0x410a
 8610 00e5 00       		.byte	0
 8611 00e6 02       		.uleb128 0x2
 8612 00e7 18       		.uleb128 0x18
 8613 00e8 9142     		.uleb128 0x2111
 8614 00ea 18       		.uleb128 0x18
 8615 00eb 00       		.byte	0
 8616 00ec 00       		.byte	0
 8617 00ed 12       		.uleb128 0x12
 8618 00ee 2E       		.uleb128 0x2e
 8619 00ef 01       		.byte	0x1
 8620 00f0 03       		.uleb128 0x3
 8621 00f1 0E       		.uleb128 0xe
 8622 00f2 3A       		.uleb128 0x3a
 8623 00f3 0B       		.uleb128 0xb
 8624 00f4 3B       		.uleb128 0x3b
 8625 00f5 0B       		.uleb128 0xb
 8626 00f6 27       		.uleb128 0x27
 8627 00f7 19       		.uleb128 0x19
 8628 00f8 11       		.uleb128 0x11
 8629 00f9 01       		.uleb128 0x1
 8630 00fa 12       		.uleb128 0x12
 8631 00fb 06       		.uleb128 0x6
 8632 00fc 40       		.uleb128 0x40
 8633 00fd 18       		.uleb128 0x18
 8634 00fe 9742     		.uleb128 0x2117
 8635 0100 19       		.uleb128 0x19
 8636 0101 01       		.uleb128 0x1
ARM GAS  C:\Users\PIERRE~1\AppData\Local\Temp\ccqD7qlI.s 			page 176


 8637 0102 13       		.uleb128 0x13
 8638 0103 00       		.byte	0
 8639 0104 00       		.byte	0
 8640 0105 13       		.uleb128 0x13
 8641 0106 898201   		.uleb128 0x4109
 8642 0109 01       		.byte	0x1
 8643 010a 11       		.uleb128 0x11
 8644 010b 01       		.uleb128 0x1
 8645 010c 31       		.uleb128 0x31
 8646 010d 13       		.uleb128 0x13
 8647 010e 01       		.uleb128 0x1
 8648 010f 13       		.uleb128 0x13
 8649 0110 00       		.byte	0
 8650 0111 00       		.byte	0
 8651 0112 14       		.uleb128 0x14
 8652 0113 2E       		.uleb128 0x2e
 8653 0114 01       		.byte	0x1
 8654 0115 3F       		.uleb128 0x3f
 8655 0116 19       		.uleb128 0x19
 8656 0117 03       		.uleb128 0x3
 8657 0118 0E       		.uleb128 0xe
 8658 0119 3A       		.uleb128 0x3a
 8659 011a 0B       		.uleb128 0xb
 8660 011b 3B       		.uleb128 0x3b
 8661 011c 05       		.uleb128 0x5
 8662 011d 27       		.uleb128 0x27
 8663 011e 19       		.uleb128 0x19
 8664 011f 11       		.uleb128 0x11
 8665 0120 01       		.uleb128 0x1
 8666 0121 12       		.uleb128 0x12
 8667 0122 06       		.uleb128 0x6
 8668 0123 40       		.uleb128 0x40
 8669 0124 18       		.uleb128 0x18
 8670 0125 9742     		.uleb128 0x2117
 8671 0127 19       		.uleb128 0x19
 8672 0128 01       		.uleb128 0x1
 8673 0129 13       		.uleb128 0x13
 8674 012a 00       		.byte	0
 8675 012b 00       		.byte	0
 8676 012c 15       		.uleb128 0x15
 8677 012d 05       		.uleb128 0x5
 8678 012e 00       		.byte	0
 8679 012f 03       		.uleb128 0x3
 8680 0130 0E       		.uleb128 0xe
 8681 0131 3A       		.uleb128 0x3a
 8682 0132 0B       		.uleb128 0xb
 8683 0133 3B       		.uleb128 0x3b
 8684 0134 05       		.uleb128 0x5
 8685 0135 49       		.uleb128 0x49
 8686 0136 13       		.uleb128 0x13
 8687 0137 02       		.uleb128 0x2
 8688 0138 18       		.uleb128 0x18
 8689 0139 00       		.byte	0
 8690 013a 00       		.byte	0
 8691 013b 16       		.uleb128 0x16
 8692 013c 05       		.uleb128 0x5
 8693 013d 00       		.byte	0
ARM GAS  C:\Users\PIERRE~1\AppData\Local\Temp\ccqD7qlI.s 			page 177


 8694 013e 03       		.uleb128 0x3
 8695 013f 08       		.uleb128 0x8
 8696 0140 3A       		.uleb128 0x3a
 8697 0141 0B       		.uleb128 0xb
 8698 0142 3B       		.uleb128 0x3b
 8699 0143 05       		.uleb128 0x5
 8700 0144 49       		.uleb128 0x49
 8701 0145 13       		.uleb128 0x13
 8702 0146 02       		.uleb128 0x2
 8703 0147 18       		.uleb128 0x18
 8704 0148 00       		.byte	0
 8705 0149 00       		.byte	0
 8706 014a 17       		.uleb128 0x17
 8707 014b 05       		.uleb128 0x5
 8708 014c 00       		.byte	0
 8709 014d 03       		.uleb128 0x3
 8710 014e 08       		.uleb128 0x8
 8711 014f 3A       		.uleb128 0x3a
 8712 0150 0B       		.uleb128 0xb
 8713 0151 3B       		.uleb128 0x3b
 8714 0152 05       		.uleb128 0x5
 8715 0153 49       		.uleb128 0x49
 8716 0154 13       		.uleb128 0x13
 8717 0155 02       		.uleb128 0x2
 8718 0156 17       		.uleb128 0x17
 8719 0157 00       		.byte	0
 8720 0158 00       		.byte	0
 8721 0159 18       		.uleb128 0x18
 8722 015a 34       		.uleb128 0x34
 8723 015b 00       		.byte	0
 8724 015c 03       		.uleb128 0x3
 8725 015d 08       		.uleb128 0x8
 8726 015e 3A       		.uleb128 0x3a
 8727 015f 0B       		.uleb128 0xb
 8728 0160 3B       		.uleb128 0x3b
 8729 0161 05       		.uleb128 0x5
 8730 0162 49       		.uleb128 0x49
 8731 0163 13       		.uleb128 0x13
 8732 0164 02       		.uleb128 0x2
 8733 0165 17       		.uleb128 0x17
 8734 0166 00       		.byte	0
 8735 0167 00       		.byte	0
 8736 0168 19       		.uleb128 0x19
 8737 0169 34       		.uleb128 0x34
 8738 016a 00       		.byte	0
 8739 016b 03       		.uleb128 0x3
 8740 016c 0E       		.uleb128 0xe
 8741 016d 3A       		.uleb128 0x3a
 8742 016e 0B       		.uleb128 0xb
 8743 016f 3B       		.uleb128 0x3b
 8744 0170 05       		.uleb128 0x5
 8745 0171 49       		.uleb128 0x49
 8746 0172 13       		.uleb128 0x13
 8747 0173 02       		.uleb128 0x2
 8748 0174 17       		.uleb128 0x17
 8749 0175 00       		.byte	0
 8750 0176 00       		.byte	0
ARM GAS  C:\Users\PIERRE~1\AppData\Local\Temp\ccqD7qlI.s 			page 178


 8751 0177 1A       		.uleb128 0x1a
 8752 0178 05       		.uleb128 0x5
 8753 0179 00       		.byte	0
 8754 017a 03       		.uleb128 0x3
 8755 017b 0E       		.uleb128 0xe
 8756 017c 3A       		.uleb128 0x3a
 8757 017d 0B       		.uleb128 0xb
 8758 017e 3B       		.uleb128 0x3b
 8759 017f 05       		.uleb128 0x5
 8760 0180 49       		.uleb128 0x49
 8761 0181 13       		.uleb128 0x13
 8762 0182 02       		.uleb128 0x2
 8763 0183 17       		.uleb128 0x17
 8764 0184 00       		.byte	0
 8765 0185 00       		.byte	0
 8766 0186 1B       		.uleb128 0x1b
 8767 0187 26       		.uleb128 0x26
 8768 0188 00       		.byte	0
 8769 0189 49       		.uleb128 0x49
 8770 018a 13       		.uleb128 0x13
 8771 018b 00       		.byte	0
 8772 018c 00       		.byte	0
 8773 018d 1C       		.uleb128 0x1c
 8774 018e 34       		.uleb128 0x34
 8775 018f 00       		.byte	0
 8776 0190 03       		.uleb128 0x3
 8777 0191 0E       		.uleb128 0xe
 8778 0192 3A       		.uleb128 0x3a
 8779 0193 0B       		.uleb128 0xb
 8780 0194 3B       		.uleb128 0x3b
 8781 0195 05       		.uleb128 0x5
 8782 0196 49       		.uleb128 0x49
 8783 0197 13       		.uleb128 0x13
 8784 0198 02       		.uleb128 0x2
 8785 0199 18       		.uleb128 0x18
 8786 019a 00       		.byte	0
 8787 019b 00       		.byte	0
 8788 019c 1D       		.uleb128 0x1d
 8789 019d 898201   		.uleb128 0x4109
 8790 01a0 00       		.byte	0
 8791 01a1 11       		.uleb128 0x11
 8792 01a2 01       		.uleb128 0x1
 8793 01a3 31       		.uleb128 0x31
 8794 01a4 13       		.uleb128 0x13
 8795 01a5 00       		.byte	0
 8796 01a6 00       		.byte	0
 8797 01a7 1E       		.uleb128 0x1e
 8798 01a8 01       		.uleb128 0x1
 8799 01a9 01       		.byte	0x1
 8800 01aa 49       		.uleb128 0x49
 8801 01ab 13       		.uleb128 0x13
 8802 01ac 01       		.uleb128 0x1
 8803 01ad 13       		.uleb128 0x13
 8804 01ae 00       		.byte	0
 8805 01af 00       		.byte	0
 8806 01b0 1F       		.uleb128 0x1f
 8807 01b1 21       		.uleb128 0x21
ARM GAS  C:\Users\PIERRE~1\AppData\Local\Temp\ccqD7qlI.s 			page 179


 8808 01b2 00       		.byte	0
 8809 01b3 49       		.uleb128 0x49
 8810 01b4 13       		.uleb128 0x13
 8811 01b5 2F       		.uleb128 0x2f
 8812 01b6 0B       		.uleb128 0xb
 8813 01b7 00       		.byte	0
 8814 01b8 00       		.byte	0
 8815 01b9 20       		.uleb128 0x20
 8816 01ba 2E       		.uleb128 0x2e
 8817 01bb 01       		.byte	0x1
 8818 01bc 03       		.uleb128 0x3
 8819 01bd 0E       		.uleb128 0xe
 8820 01be 3A       		.uleb128 0x3a
 8821 01bf 0B       		.uleb128 0xb
 8822 01c0 3B       		.uleb128 0x3b
 8823 01c1 05       		.uleb128 0x5
 8824 01c2 11       		.uleb128 0x11
 8825 01c3 01       		.uleb128 0x1
 8826 01c4 12       		.uleb128 0x12
 8827 01c5 06       		.uleb128 0x6
 8828 01c6 40       		.uleb128 0x40
 8829 01c7 18       		.uleb128 0x18
 8830 01c8 9742     		.uleb128 0x2117
 8831 01ca 19       		.uleb128 0x19
 8832 01cb 01       		.uleb128 0x1
 8833 01cc 13       		.uleb128 0x13
 8834 01cd 00       		.byte	0
 8835 01ce 00       		.byte	0
 8836 01cf 21       		.uleb128 0x21
 8837 01d0 2E       		.uleb128 0x2e
 8838 01d1 01       		.byte	0x1
 8839 01d2 03       		.uleb128 0x3
 8840 01d3 0E       		.uleb128 0xe
 8841 01d4 3A       		.uleb128 0x3a
 8842 01d5 0B       		.uleb128 0xb
 8843 01d6 3B       		.uleb128 0x3b
 8844 01d7 0B       		.uleb128 0xb
 8845 01d8 11       		.uleb128 0x11
 8846 01d9 01       		.uleb128 0x1
 8847 01da 12       		.uleb128 0x12
 8848 01db 06       		.uleb128 0x6
 8849 01dc 40       		.uleb128 0x40
 8850 01dd 18       		.uleb128 0x18
 8851 01de 9742     		.uleb128 0x2117
 8852 01e0 19       		.uleb128 0x19
 8853 01e1 01       		.uleb128 0x1
 8854 01e2 13       		.uleb128 0x13
 8855 01e3 00       		.byte	0
 8856 01e4 00       		.byte	0
 8857 01e5 22       		.uleb128 0x22
 8858 01e6 34       		.uleb128 0x34
 8859 01e7 00       		.byte	0
 8860 01e8 03       		.uleb128 0x3
 8861 01e9 0E       		.uleb128 0xe
 8862 01ea 3A       		.uleb128 0x3a
 8863 01eb 0B       		.uleb128 0xb
 8864 01ec 3B       		.uleb128 0x3b
ARM GAS  C:\Users\PIERRE~1\AppData\Local\Temp\ccqD7qlI.s 			page 180


 8865 01ed 0B       		.uleb128 0xb
 8866 01ee 49       		.uleb128 0x49
 8867 01ef 13       		.uleb128 0x13
 8868 01f0 02       		.uleb128 0x2
 8869 01f1 18       		.uleb128 0x18
 8870 01f2 00       		.byte	0
 8871 01f3 00       		.byte	0
 8872 01f4 23       		.uleb128 0x23
 8873 01f5 34       		.uleb128 0x34
 8874 01f6 00       		.byte	0
 8875 01f7 03       		.uleb128 0x3
 8876 01f8 08       		.uleb128 0x8
 8877 01f9 3A       		.uleb128 0x3a
 8878 01fa 0B       		.uleb128 0xb
 8879 01fb 3B       		.uleb128 0x3b
 8880 01fc 05       		.uleb128 0x5
 8881 01fd 49       		.uleb128 0x49
 8882 01fe 13       		.uleb128 0x13
 8883 01ff 02       		.uleb128 0x2
 8884 0200 18       		.uleb128 0x18
 8885 0201 00       		.byte	0
 8886 0202 00       		.byte	0
 8887 0203 24       		.uleb128 0x24
 8888 0204 2E       		.uleb128 0x2e
 8889 0205 01       		.byte	0x1
 8890 0206 03       		.uleb128 0x3
 8891 0207 0E       		.uleb128 0xe
 8892 0208 3A       		.uleb128 0x3a
 8893 0209 0B       		.uleb128 0xb
 8894 020a 3B       		.uleb128 0x3b
 8895 020b 05       		.uleb128 0x5
 8896 020c 27       		.uleb128 0x27
 8897 020d 19       		.uleb128 0x19
 8898 020e 11       		.uleb128 0x11
 8899 020f 01       		.uleb128 0x1
 8900 0210 12       		.uleb128 0x12
 8901 0211 06       		.uleb128 0x6
 8902 0212 40       		.uleb128 0x40
 8903 0213 18       		.uleb128 0x18
 8904 0214 9742     		.uleb128 0x2117
 8905 0216 19       		.uleb128 0x19
 8906 0217 01       		.uleb128 0x1
 8907 0218 13       		.uleb128 0x13
 8908 0219 00       		.byte	0
 8909 021a 00       		.byte	0
 8910 021b 25       		.uleb128 0x25
 8911 021c 34       		.uleb128 0x34
 8912 021d 00       		.byte	0
 8913 021e 03       		.uleb128 0x3
 8914 021f 0E       		.uleb128 0xe
 8915 0220 3A       		.uleb128 0x3a
 8916 0221 0B       		.uleb128 0xb
 8917 0222 3B       		.uleb128 0x3b
 8918 0223 05       		.uleb128 0x5
 8919 0224 49       		.uleb128 0x49
 8920 0225 13       		.uleb128 0x13
 8921 0226 1C       		.uleb128 0x1c
ARM GAS  C:\Users\PIERRE~1\AppData\Local\Temp\ccqD7qlI.s 			page 181


 8922 0227 0D       		.uleb128 0xd
 8923 0228 00       		.byte	0
 8924 0229 00       		.byte	0
 8925 022a 26       		.uleb128 0x26
 8926 022b 34       		.uleb128 0x34
 8927 022c 00       		.byte	0
 8928 022d 03       		.uleb128 0x3
 8929 022e 0E       		.uleb128 0xe
 8930 022f 3A       		.uleb128 0x3a
 8931 0230 0B       		.uleb128 0xb
 8932 0231 3B       		.uleb128 0x3b
 8933 0232 05       		.uleb128 0x5
 8934 0233 49       		.uleb128 0x49
 8935 0234 13       		.uleb128 0x13
 8936 0235 1C       		.uleb128 0x1c
 8937 0236 06       		.uleb128 0x6
 8938 0237 00       		.byte	0
 8939 0238 00       		.byte	0
 8940 0239 27       		.uleb128 0x27
 8941 023a 0B       		.uleb128 0xb
 8942 023b 01       		.byte	0x1
 8943 023c 11       		.uleb128 0x11
 8944 023d 01       		.uleb128 0x1
 8945 023e 12       		.uleb128 0x12
 8946 023f 06       		.uleb128 0x6
 8947 0240 01       		.uleb128 0x1
 8948 0241 13       		.uleb128 0x13
 8949 0242 00       		.byte	0
 8950 0243 00       		.byte	0
 8951 0244 28       		.uleb128 0x28
 8952 0245 34       		.uleb128 0x34
 8953 0246 00       		.byte	0
 8954 0247 03       		.uleb128 0x3
 8955 0248 0E       		.uleb128 0xe
 8956 0249 3A       		.uleb128 0x3a
 8957 024a 0B       		.uleb128 0xb
 8958 024b 3B       		.uleb128 0x3b
 8959 024c 05       		.uleb128 0x5
 8960 024d 49       		.uleb128 0x49
 8961 024e 13       		.uleb128 0x13
 8962 024f 3F       		.uleb128 0x3f
 8963 0250 19       		.uleb128 0x19
 8964 0251 3C       		.uleb128 0x3c
 8965 0252 19       		.uleb128 0x19
 8966 0253 00       		.byte	0
 8967 0254 00       		.byte	0
 8968 0255 29       		.uleb128 0x29
 8969 0256 35       		.uleb128 0x35
 8970 0257 00       		.byte	0
 8971 0258 49       		.uleb128 0x49
 8972 0259 13       		.uleb128 0x13
 8973 025a 00       		.byte	0
 8974 025b 00       		.byte	0
 8975 025c 2A       		.uleb128 0x2a
 8976 025d 2E       		.uleb128 0x2e
 8977 025e 00       		.byte	0
 8978 025f 3F       		.uleb128 0x3f
ARM GAS  C:\Users\PIERRE~1\AppData\Local\Temp\ccqD7qlI.s 			page 182


 8979 0260 19       		.uleb128 0x19
 8980 0261 3C       		.uleb128 0x3c
 8981 0262 19       		.uleb128 0x19
 8982 0263 6E       		.uleb128 0x6e
 8983 0264 0E       		.uleb128 0xe
 8984 0265 03       		.uleb128 0x3
 8985 0266 0E       		.uleb128 0xe
 8986 0267 3A       		.uleb128 0x3a
 8987 0268 0B       		.uleb128 0xb
 8988 0269 3B       		.uleb128 0x3b
 8989 026a 0B       		.uleb128 0xb
 8990 026b 00       		.byte	0
 8991 026c 00       		.byte	0
 8992 026d 00       		.byte	0
 8993              		.section	.debug_loc,"",%progbits
 8994              	.Ldebug_loc0:
 8995              	.LLST0:
 8996 0000 00000000 		.4byte	.LVL0
 8997 0004 8C000000 		.4byte	.LVL12
 8998 0008 0100     		.2byte	0x1
 8999 000a 50       		.byte	0x50
 9000 000b 8C000000 		.4byte	.LVL12
 9001 000f 8E000000 		.4byte	.LFE63
 9002 0013 0400     		.2byte	0x4
 9003 0015 F3       		.byte	0xf3
 9004 0016 01       		.uleb128 0x1
 9005 0017 50       		.byte	0x50
 9006 0018 9F       		.byte	0x9f
 9007 0019 00000000 		.4byte	0
 9008 001d 00000000 		.4byte	0
 9009              	.LLST1:
 9010 0021 00000000 		.4byte	.LVL0
 9011 0025 76000000 		.4byte	.LVL1
 9012 0029 0100     		.2byte	0x1
 9013 002b 51       		.byte	0x51
 9014 002c 76000000 		.4byte	.LVL1
 9015 0030 78000000 		.4byte	.LVL2
 9016 0034 0400     		.2byte	0x4
 9017 0036 F3       		.byte	0xf3
 9018 0037 01       		.uleb128 0x1
 9019 0038 51       		.byte	0x51
 9020 0039 9F       		.byte	0x9f
 9021 003a 78000000 		.4byte	.LVL2
 9022 003e 7A000000 		.4byte	.LVL3
 9023 0042 0100     		.2byte	0x1
 9024 0044 51       		.byte	0x51
 9025 0045 7A000000 		.4byte	.LVL3
 9026 0049 7C000000 		.4byte	.LVL4
 9027 004d 0400     		.2byte	0x4
 9028 004f F3       		.byte	0xf3
 9029 0050 01       		.uleb128 0x1
 9030 0051 51       		.byte	0x51
 9031 0052 9F       		.byte	0x9f
 9032 0053 7C000000 		.4byte	.LVL4
 9033 0057 7E000000 		.4byte	.LVL5
 9034 005b 0100     		.2byte	0x1
 9035 005d 51       		.byte	0x51
ARM GAS  C:\Users\PIERRE~1\AppData\Local\Temp\ccqD7qlI.s 			page 183


 9036 005e 7E000000 		.4byte	.LVL5
 9037 0062 80000000 		.4byte	.LVL6
 9038 0066 0400     		.2byte	0x4
 9039 0068 F3       		.byte	0xf3
 9040 0069 01       		.uleb128 0x1
 9041 006a 51       		.byte	0x51
 9042 006b 9F       		.byte	0x9f
 9043 006c 80000000 		.4byte	.LVL6
 9044 0070 82000000 		.4byte	.LVL7
 9045 0074 0100     		.2byte	0x1
 9046 0076 51       		.byte	0x51
 9047 0077 82000000 		.4byte	.LVL7
 9048 007b 84000000 		.4byte	.LVL8
 9049 007f 0400     		.2byte	0x4
 9050 0081 F3       		.byte	0xf3
 9051 0082 01       		.uleb128 0x1
 9052 0083 51       		.byte	0x51
 9053 0084 9F       		.byte	0x9f
 9054 0085 84000000 		.4byte	.LVL8
 9055 0089 86000000 		.4byte	.LVL9
 9056 008d 0100     		.2byte	0x1
 9057 008f 51       		.byte	0x51
 9058 0090 86000000 		.4byte	.LVL9
 9059 0094 88000000 		.4byte	.LVL10
 9060 0098 0400     		.2byte	0x4
 9061 009a F3       		.byte	0xf3
 9062 009b 01       		.uleb128 0x1
 9063 009c 51       		.byte	0x51
 9064 009d 9F       		.byte	0x9f
 9065 009e 88000000 		.4byte	.LVL10
 9066 00a2 8E000000 		.4byte	.LFE63
 9067 00a6 0100     		.2byte	0x1
 9068 00a8 51       		.byte	0x51
 9069 00a9 00000000 		.4byte	0
 9070 00ad 00000000 		.4byte	0
 9071              	.LLST2:
 9072 00b1 00000000 		.4byte	.LVL13
 9073 00b5 07000000 		.4byte	.LVL14-1
 9074 00b9 0100     		.2byte	0x1
 9075 00bb 50       		.byte	0x50
 9076 00bc 07000000 		.4byte	.LVL14-1
 9077 00c0 12000000 		.4byte	.LFE64
 9078 00c4 0400     		.2byte	0x4
 9079 00c6 F3       		.byte	0xf3
 9080 00c7 01       		.uleb128 0x1
 9081 00c8 50       		.byte	0x50
 9082 00c9 9F       		.byte	0x9f
 9083 00ca 00000000 		.4byte	0
 9084 00ce 00000000 		.4byte	0
 9085              	.LLST3:
 9086 00d2 00000000 		.4byte	.LVL13
 9087 00d6 07000000 		.4byte	.LVL14-1
 9088 00da 0100     		.2byte	0x1
 9089 00dc 51       		.byte	0x51
 9090 00dd 07000000 		.4byte	.LVL14-1
 9091 00e1 12000000 		.4byte	.LFE64
 9092 00e5 0400     		.2byte	0x4
ARM GAS  C:\Users\PIERRE~1\AppData\Local\Temp\ccqD7qlI.s 			page 184


 9093 00e7 F3       		.byte	0xf3
 9094 00e8 01       		.uleb128 0x1
 9095 00e9 51       		.byte	0x51
 9096 00ea 9F       		.byte	0x9f
 9097 00eb 00000000 		.4byte	0
 9098 00ef 00000000 		.4byte	0
 9099              	.LLST4:
 9100 00f3 00000000 		.4byte	.LVL15
 9101 00f7 3E000000 		.4byte	.LVL23
 9102 00fb 0100     		.2byte	0x1
 9103 00fd 50       		.byte	0x50
 9104 00fe 3E000000 		.4byte	.LVL23
 9105 0102 40000000 		.4byte	.LFE65
 9106 0106 0400     		.2byte	0x4
 9107 0108 F3       		.byte	0xf3
 9108 0109 01       		.uleb128 0x1
 9109 010a 50       		.byte	0x50
 9110 010b 9F       		.byte	0x9f
 9111 010c 00000000 		.4byte	0
 9112 0110 00000000 		.4byte	0
 9113              	.LLST5:
 9114 0114 00000000 		.4byte	.LVL15
 9115 0118 2E000000 		.4byte	.LVL16
 9116 011c 0100     		.2byte	0x1
 9117 011e 51       		.byte	0x51
 9118 011f 2E000000 		.4byte	.LVL16
 9119 0123 32000000 		.4byte	.LVL17
 9120 0127 0200     		.2byte	0x2
 9121 0129 36       		.byte	0x36
 9122 012a 9F       		.byte	0x9f
 9123 012b 32000000 		.4byte	.LVL17
 9124 012f 34000000 		.4byte	.LVL18
 9125 0133 0100     		.2byte	0x1
 9126 0135 51       		.byte	0x51
 9127 0136 34000000 		.4byte	.LVL18
 9128 013a 36000000 		.4byte	.LVL19
 9129 013e 0400     		.2byte	0x4
 9130 0140 F3       		.byte	0xf3
 9131 0141 01       		.uleb128 0x1
 9132 0142 51       		.byte	0x51
 9133 0143 9F       		.byte	0x9f
 9134 0144 36000000 		.4byte	.LVL19
 9135 0148 38000000 		.4byte	.LVL20
 9136 014c 0100     		.2byte	0x1
 9137 014e 51       		.byte	0x51
 9138 014f 38000000 		.4byte	.LVL20
 9139 0153 3A000000 		.4byte	.LVL21
 9140 0157 0400     		.2byte	0x4
 9141 0159 F3       		.byte	0xf3
 9142 015a 01       		.uleb128 0x1
 9143 015b 51       		.byte	0x51
 9144 015c 9F       		.byte	0x9f
 9145 015d 3A000000 		.4byte	.LVL21
 9146 0161 40000000 		.4byte	.LFE65
 9147 0165 0100     		.2byte	0x1
 9148 0167 51       		.byte	0x51
 9149 0168 00000000 		.4byte	0
ARM GAS  C:\Users\PIERRE~1\AppData\Local\Temp\ccqD7qlI.s 			page 185


 9150 016c 00000000 		.4byte	0
 9151              	.LLST6:
 9152 0170 00000000 		.4byte	.LVL24
 9153 0174 07000000 		.4byte	.LVL25-1
 9154 0178 0100     		.2byte	0x1
 9155 017a 50       		.byte	0x50
 9156 017b 07000000 		.4byte	.LVL25-1
 9157 017f 12000000 		.4byte	.LFE66
 9158 0183 0400     		.2byte	0x4
 9159 0185 F3       		.byte	0xf3
 9160 0186 01       		.uleb128 0x1
 9161 0187 50       		.byte	0x50
 9162 0188 9F       		.byte	0x9f
 9163 0189 00000000 		.4byte	0
 9164 018d 00000000 		.4byte	0
 9165              	.LLST7:
 9166 0191 00000000 		.4byte	.LVL24
 9167 0195 07000000 		.4byte	.LVL25-1
 9168 0199 0100     		.2byte	0x1
 9169 019b 51       		.byte	0x51
 9170 019c 07000000 		.4byte	.LVL25-1
 9171 01a0 12000000 		.4byte	.LFE66
 9172 01a4 0400     		.2byte	0x4
 9173 01a6 F3       		.byte	0xf3
 9174 01a7 01       		.uleb128 0x1
 9175 01a8 51       		.byte	0x51
 9176 01a9 9F       		.byte	0x9f
 9177 01aa 00000000 		.4byte	0
 9178 01ae 00000000 		.4byte	0
 9179              	.LLST8:
 9180 01b2 00000000 		.4byte	.LVL26
 9181 01b6 15000000 		.4byte	.LVL27-1
 9182 01ba 0100     		.2byte	0x1
 9183 01bc 50       		.byte	0x50
 9184 01bd 15000000 		.4byte	.LVL27-1
 9185 01c1 24000000 		.4byte	.LFE68
 9186 01c5 0100     		.2byte	0x1
 9187 01c7 54       		.byte	0x54
 9188 01c8 00000000 		.4byte	0
 9189 01cc 00000000 		.4byte	0
 9190              	.LLST9:
 9191 01d0 00000000 		.4byte	.LVL29
 9192 01d4 0E000000 		.4byte	.LVL32
 9193 01d8 0100     		.2byte	0x1
 9194 01da 52       		.byte	0x52
 9195 01db 0E000000 		.4byte	.LVL32
 9196 01df 30000000 		.4byte	.LFE103
 9197 01e3 0400     		.2byte	0x4
 9198 01e5 F3       		.byte	0xf3
 9199 01e6 01       		.uleb128 0x1
 9200 01e7 52       		.byte	0x52
 9201 01e8 9F       		.byte	0x9f
 9202 01e9 00000000 		.4byte	0
 9203 01ed 00000000 		.4byte	0
 9204              	.LLST10:
 9205 01f1 00000000 		.4byte	.LVL29
 9206 01f5 12000000 		.4byte	.LVL33
ARM GAS  C:\Users\PIERRE~1\AppData\Local\Temp\ccqD7qlI.s 			page 186


 9207 01f9 0100     		.2byte	0x1
 9208 01fb 53       		.byte	0x53
 9209 01fc 12000000 		.4byte	.LVL33
 9210 0200 1E000000 		.4byte	.LVL35
 9211 0204 0400     		.2byte	0x4
 9212 0206 F3       		.byte	0xf3
 9213 0207 01       		.uleb128 0x1
 9214 0208 53       		.byte	0x53
 9215 0209 9F       		.byte	0x9f
 9216 020a 1E000000 		.4byte	.LVL35
 9217 020e 20000000 		.4byte	.LVL36
 9218 0212 0100     		.2byte	0x1
 9219 0214 53       		.byte	0x53
 9220 0215 20000000 		.4byte	.LVL36
 9221 0219 30000000 		.4byte	.LFE103
 9222 021d 0400     		.2byte	0x4
 9223 021f F3       		.byte	0xf3
 9224 0220 01       		.uleb128 0x1
 9225 0221 53       		.byte	0x53
 9226 0222 9F       		.byte	0x9f
 9227 0223 00000000 		.4byte	0
 9228 0227 00000000 		.4byte	0
 9229              	.LLST11:
 9230 022b 06000000 		.4byte	.LVL30
 9231 022f 2E000000 		.4byte	.LVL39
 9232 0233 0100     		.2byte	0x1
 9233 0235 55       		.byte	0x55
 9234 0236 00000000 		.4byte	0
 9235 023a 00000000 		.4byte	0
 9236              	.LLST12:
 9237 023e 0E000000 		.4byte	.LVL32
 9238 0242 16000000 		.4byte	.LVL34
 9239 0246 0100     		.2byte	0x1
 9240 0248 52       		.byte	0x52
 9241 0249 1E000000 		.4byte	.LVL35
 9242 024d 24000000 		.4byte	.LVL37
 9243 0251 0100     		.2byte	0x1
 9244 0253 52       		.byte	0x52
 9245 0254 00000000 		.4byte	0
 9246 0258 00000000 		.4byte	0
 9247              	.LLST13:
 9248 025c 0A000000 		.4byte	.LVL31
 9249 0260 2C000000 		.4byte	.LVL38
 9250 0264 0600     		.2byte	0x6
 9251 0266 70       		.byte	0x70
 9252 0267 00       		.sleb128 0
 9253 0268 74       		.byte	0x74
 9254 0269 00       		.sleb128 0
 9255 026a 22       		.byte	0x22
 9256 026b 9F       		.byte	0x9f
 9257 026c 00000000 		.4byte	0
 9258 0270 00000000 		.4byte	0
 9259              	.LLST14:
 9260 0274 00000000 		.4byte	.LVL40
 9261 0278 0C000000 		.4byte	.LVL41
 9262 027c 0100     		.2byte	0x1
 9263 027e 50       		.byte	0x50
ARM GAS  C:\Users\PIERRE~1\AppData\Local\Temp\ccqD7qlI.s 			page 187


 9264 027f 0C000000 		.4byte	.LVL41
 9265 0283 10000000 		.4byte	.LFE104
 9266 0287 0400     		.2byte	0x4
 9267 0289 F3       		.byte	0xf3
 9268 028a 01       		.uleb128 0x1
 9269 028b 50       		.byte	0x50
 9270 028c 9F       		.byte	0x9f
 9271 028d 00000000 		.4byte	0
 9272 0291 00000000 		.4byte	0
 9273              	.LLST15:
 9274 0295 00000000 		.4byte	.LVL42
 9275 0299 04000000 		.4byte	.LVL43
 9276 029d 0100     		.2byte	0x1
 9277 029f 50       		.byte	0x50
 9278 02a0 04000000 		.4byte	.LVL43
 9279 02a4 08000000 		.4byte	.LFE105
 9280 02a8 0400     		.2byte	0x4
 9281 02aa F3       		.byte	0xf3
 9282 02ab 01       		.uleb128 0x1
 9283 02ac 50       		.byte	0x50
 9284 02ad 9F       		.byte	0x9f
 9285 02ae 00000000 		.4byte	0
 9286 02b2 00000000 		.4byte	0
 9287              	.LLST16:
 9288 02b6 00000000 		.4byte	.LVL44
 9289 02ba 2A000000 		.4byte	.LVL47
 9290 02be 0100     		.2byte	0x1
 9291 02c0 50       		.byte	0x50
 9292 02c1 2A000000 		.4byte	.LVL47
 9293 02c5 C0000000 		.4byte	.LFE106
 9294 02c9 0400     		.2byte	0x4
 9295 02cb F3       		.byte	0xf3
 9296 02cc 01       		.uleb128 0x1
 9297 02cd 50       		.byte	0x50
 9298 02ce 9F       		.byte	0x9f
 9299 02cf 00000000 		.4byte	0
 9300 02d3 00000000 		.4byte	0
 9301              	.LLST17:
 9302 02d7 00000000 		.4byte	.LVL44
 9303 02db 48000000 		.4byte	.LVL50
 9304 02df 0100     		.2byte	0x1
 9305 02e1 51       		.byte	0x51
 9306 02e2 48000000 		.4byte	.LVL50
 9307 02e6 C0000000 		.4byte	.LFE106
 9308 02ea 0400     		.2byte	0x4
 9309 02ec F3       		.byte	0xf3
 9310 02ed 01       		.uleb128 0x1
 9311 02ee 51       		.byte	0x51
 9312 02ef 9F       		.byte	0x9f
 9313 02f0 00000000 		.4byte	0
 9314 02f4 00000000 		.4byte	0
 9315              	.LLST18:
 9316 02f8 00000000 		.4byte	.LVL44
 9317 02fc 53000000 		.4byte	.LVL53-1
 9318 0300 0100     		.2byte	0x1
 9319 0302 52       		.byte	0x52
 9320 0303 53000000 		.4byte	.LVL53-1
ARM GAS  C:\Users\PIERRE~1\AppData\Local\Temp\ccqD7qlI.s 			page 188


 9321 0307 C0000000 		.4byte	.LFE106
 9322 030b 0100     		.2byte	0x1
 9323 030d 56       		.byte	0x56
 9324 030e 00000000 		.4byte	0
 9325 0312 00000000 		.4byte	0
 9326              	.LLST19:
 9327 0316 00000000 		.4byte	.LVL44
 9328 031a 0C000000 		.4byte	.LVL45
 9329 031e 0100     		.2byte	0x1
 9330 0320 53       		.byte	0x53
 9331 0321 0C000000 		.4byte	.LVL45
 9332 0325 C0000000 		.4byte	.LFE106
 9333 0329 0400     		.2byte	0x4
 9334 032b F3       		.byte	0xf3
 9335 032c 01       		.uleb128 0x1
 9336 032d 53       		.byte	0x53
 9337 032e 9F       		.byte	0x9f
 9338 032f 00000000 		.4byte	0
 9339 0333 00000000 		.4byte	0
 9340              	.LLST20:
 9341 0337 14000000 		.4byte	.LVL46
 9342 033b 5E000000 		.4byte	.LVL56
 9343 033f 0200     		.2byte	0x2
 9344 0341 30       		.byte	0x30
 9345 0342 9F       		.byte	0x9f
 9346 0343 5E000000 		.4byte	.LVL56
 9347 0347 6C000000 		.4byte	.LVL58
 9348 034b 0100     		.2byte	0x1
 9349 034d 54       		.byte	0x54
 9350 034e 6E000000 		.4byte	.LVL59
 9351 0352 78000000 		.4byte	.LVL60
 9352 0356 0100     		.2byte	0x1
 9353 0358 54       		.byte	0x54
 9354 0359 7A000000 		.4byte	.LVL61
 9355 035d 82000000 		.4byte	.LVL63
 9356 0361 0100     		.2byte	0x1
 9357 0363 54       		.byte	0x54
 9358 0364 84000000 		.4byte	.LVL64
 9359 0368 94000000 		.4byte	.LVL66
 9360 036c 0100     		.2byte	0x1
 9361 036e 54       		.byte	0x54
 9362 036f 96000000 		.4byte	.LVL67
 9363 0373 9C000000 		.4byte	.LVL69
 9364 0377 0100     		.2byte	0x1
 9365 0379 54       		.byte	0x54
 9366 037a 9E000000 		.4byte	.LVL70
 9367 037e A4000000 		.4byte	.LVL71
 9368 0382 0100     		.2byte	0x1
 9369 0384 54       		.byte	0x54
 9370 0385 A6000000 		.4byte	.LVL72
 9371 0389 AE000000 		.4byte	.LVL74
 9372 038d 0100     		.2byte	0x1
 9373 038f 54       		.byte	0x54
 9374 0390 B0000000 		.4byte	.LVL75
 9375 0394 C0000000 		.4byte	.LFE106
 9376 0398 0100     		.2byte	0x1
 9377 039a 54       		.byte	0x54
ARM GAS  C:\Users\PIERRE~1\AppData\Local\Temp\ccqD7qlI.s 			page 189


 9378 039b 00000000 		.4byte	0
 9379 039f 00000000 		.4byte	0
 9380              	.LLST21:
 9381 03a3 14000000 		.4byte	.LVL46
 9382 03a7 36000000 		.4byte	.LVL48
 9383 03ab 0200     		.2byte	0x2
 9384 03ad 31       		.byte	0x31
 9385 03ae 9F       		.byte	0x9f
 9386 03af 36000000 		.4byte	.LVL48
 9387 03b3 3C000000 		.4byte	.LVL49
 9388 03b7 0200     		.2byte	0x2
 9389 03b9 32       		.byte	0x32
 9390 03ba 9F       		.byte	0x9f
 9391 03bb 3C000000 		.4byte	.LVL49
 9392 03bf 4C000000 		.4byte	.LVL51
 9393 03c3 0200     		.2byte	0x2
 9394 03c5 31       		.byte	0x31
 9395 03c6 9F       		.byte	0x9f
 9396 03c7 4C000000 		.4byte	.LVL51
 9397 03cb 50000000 		.4byte	.LVL52
 9398 03cf 0200     		.2byte	0x2
 9399 03d1 33       		.byte	0x33
 9400 03d2 9F       		.byte	0x9f
 9401 03d3 50000000 		.4byte	.LVL52
 9402 03d7 C0000000 		.4byte	.LFE106
 9403 03db 0100     		.2byte	0x1
 9404 03dd 59       		.byte	0x59
 9405 03de 00000000 		.4byte	0
 9406 03e2 00000000 		.4byte	0
 9407              	.LLST22:
 9408 03e6 00000000 		.4byte	.LVL77
 9409 03ea 16000000 		.4byte	.LVL80
 9410 03ee 0100     		.2byte	0x1
 9411 03f0 50       		.byte	0x50
 9412 03f1 16000000 		.4byte	.LVL80
 9413 03f5 1E000000 		.4byte	.LVL81
 9414 03f9 0400     		.2byte	0x4
 9415 03fb F3       		.byte	0xf3
 9416 03fc 01       		.uleb128 0x1
 9417 03fd 50       		.byte	0x50
 9418 03fe 9F       		.byte	0x9f
 9419 03ff 1E000000 		.4byte	.LVL81
 9420 0403 22000000 		.4byte	.LVL82
 9421 0407 0100     		.2byte	0x1
 9422 0409 50       		.byte	0x50
 9423 040a 22000000 		.4byte	.LVL82
 9424 040e A4000000 		.4byte	.LFE107
 9425 0412 0400     		.2byte	0x4
 9426 0414 F3       		.byte	0xf3
 9427 0415 01       		.uleb128 0x1
 9428 0416 50       		.byte	0x50
 9429 0417 9F       		.byte	0x9f
 9430 0418 00000000 		.4byte	0
 9431 041c 00000000 		.4byte	0
 9432              	.LLST23:
 9433 0420 00000000 		.4byte	.LVL77
 9434 0424 3E000000 		.4byte	.LVL85
ARM GAS  C:\Users\PIERRE~1\AppData\Local\Temp\ccqD7qlI.s 			page 190


 9435 0428 0100     		.2byte	0x1
 9436 042a 51       		.byte	0x51
 9437 042b 3E000000 		.4byte	.LVL85
 9438 042f A4000000 		.4byte	.LFE107
 9439 0433 0400     		.2byte	0x4
 9440 0435 F3       		.byte	0xf3
 9441 0436 01       		.uleb128 0x1
 9442 0437 51       		.byte	0x51
 9443 0438 9F       		.byte	0x9f
 9444 0439 00000000 		.4byte	0
 9445 043d 00000000 		.4byte	0
 9446              	.LLST24:
 9447 0441 00000000 		.4byte	.LVL77
 9448 0445 47000000 		.4byte	.LVL88-1
 9449 0449 0100     		.2byte	0x1
 9450 044b 52       		.byte	0x52
 9451 044c 47000000 		.4byte	.LVL88-1
 9452 0450 A4000000 		.4byte	.LFE107
 9453 0454 0100     		.2byte	0x1
 9454 0456 58       		.byte	0x58
 9455 0457 00000000 		.4byte	0
 9456 045b 00000000 		.4byte	0
 9457              	.LLST25:
 9458 045f 00000000 		.4byte	.LVL77
 9459 0463 0E000000 		.4byte	.LVL79
 9460 0467 0100     		.2byte	0x1
 9461 0469 53       		.byte	0x53
 9462 046a 0E000000 		.4byte	.LVL79
 9463 046e A4000000 		.4byte	.LFE107
 9464 0472 0400     		.2byte	0x4
 9465 0474 F3       		.byte	0xf3
 9466 0475 01       		.uleb128 0x1
 9467 0476 53       		.byte	0x53
 9468 0477 9F       		.byte	0x9f
 9469 0478 00000000 		.4byte	0
 9470 047c 00000000 		.4byte	0
 9471              	.LLST26:
 9472 0480 0A000000 		.4byte	.LVL78
 9473 0484 2E000000 		.4byte	.LVL83
 9474 0488 0200     		.2byte	0x2
 9475 048a 31       		.byte	0x31
 9476 048b 9F       		.byte	0x9f
 9477 048c 2E000000 		.4byte	.LVL83
 9478 0490 32000000 		.4byte	.LVL84
 9479 0494 0200     		.2byte	0x2
 9480 0496 32       		.byte	0x32
 9481 0497 9F       		.byte	0x9f
 9482 0498 32000000 		.4byte	.LVL84
 9483 049c 42000000 		.4byte	.LVL86
 9484 04a0 0200     		.2byte	0x2
 9485 04a2 31       		.byte	0x31
 9486 04a3 9F       		.byte	0x9f
 9487 04a4 42000000 		.4byte	.LVL86
 9488 04a8 44000000 		.4byte	.LVL87
 9489 04ac 0200     		.2byte	0x2
 9490 04ae 33       		.byte	0x33
 9491 04af 9F       		.byte	0x9f
ARM GAS  C:\Users\PIERRE~1\AppData\Local\Temp\ccqD7qlI.s 			page 191


 9492 04b0 44000000 		.4byte	.LVL87
 9493 04b4 A4000000 		.4byte	.LFE107
 9494 04b8 0100     		.2byte	0x1
 9495 04ba 56       		.byte	0x56
 9496 04bb 00000000 		.4byte	0
 9497 04bf 00000000 		.4byte	0
 9498              	.LLST27:
 9499 04c3 0A000000 		.4byte	.LVL78
 9500 04c7 52000000 		.4byte	.LVL91
 9501 04cb 0200     		.2byte	0x2
 9502 04cd 30       		.byte	0x30
 9503 04ce 9F       		.byte	0x9f
 9504 04cf 52000000 		.4byte	.LVL91
 9505 04d3 60000000 		.4byte	.LVL93
 9506 04d7 0100     		.2byte	0x1
 9507 04d9 54       		.byte	0x54
 9508 04da 62000000 		.4byte	.LVL94
 9509 04de 6A000000 		.4byte	.LVL95
 9510 04e2 0100     		.2byte	0x1
 9511 04e4 54       		.byte	0x54
 9512 04e5 6C000000 		.4byte	.LVL96
 9513 04e9 76000000 		.4byte	.LVL98
 9514 04ed 0100     		.2byte	0x1
 9515 04ef 54       		.byte	0x54
 9516 04f0 78000000 		.4byte	.LVL99
 9517 04f4 88000000 		.4byte	.LVL101
 9518 04f8 0100     		.2byte	0x1
 9519 04fa 54       		.byte	0x54
 9520 04fb 8A000000 		.4byte	.LVL102
 9521 04ff 90000000 		.4byte	.LVL104
 9522 0503 0100     		.2byte	0x1
 9523 0505 54       		.byte	0x54
 9524 0506 92000000 		.4byte	.LVL105
 9525 050a A4000000 		.4byte	.LFE107
 9526 050e 0100     		.2byte	0x1
 9527 0510 54       		.byte	0x54
 9528 0511 00000000 		.4byte	0
 9529 0515 00000000 		.4byte	0
 9530              	.LLST28:
 9531 0519 14000000 		.4byte	.LVL108
 9532 051d 3A000000 		.4byte	.LVL109
 9533 0521 0100     		.2byte	0x1
 9534 0523 51       		.byte	0x51
 9535 0524 3A000000 		.4byte	.LVL109
 9536 0528 3F000000 		.4byte	.LVL110-1
 9537 052c 0500     		.2byte	0x5
 9538 052e 03       		.byte	0x3
 9539 052f 01000000 		.4byte	config+1
 9540 0533 00000000 		.4byte	0
 9541 0537 00000000 		.4byte	0
 9542              	.LLST29:
 9543 053b 00000000 		.4byte	.LVL111
 9544 053f 08000000 		.4byte	.LVL112
 9545 0543 0100     		.2byte	0x1
 9546 0545 50       		.byte	0x50
 9547 0546 08000000 		.4byte	.LVL112
 9548 054a 18000000 		.4byte	.LFE75
ARM GAS  C:\Users\PIERRE~1\AppData\Local\Temp\ccqD7qlI.s 			page 192


 9549 054e 0400     		.2byte	0x4
 9550 0550 F3       		.byte	0xf3
 9551 0551 01       		.uleb128 0x1
 9552 0552 50       		.byte	0x50
 9553 0553 9F       		.byte	0x9f
 9554 0554 00000000 		.4byte	0
 9555 0558 00000000 		.4byte	0
 9556              	.LLST30:
 9557 055c 00000000 		.4byte	.LVL116
 9558 0560 08000000 		.4byte	.LVL117
 9559 0564 0100     		.2byte	0x1
 9560 0566 50       		.byte	0x50
 9561 0567 08000000 		.4byte	.LVL117
 9562 056b 18000000 		.4byte	.LFE76
 9563 056f 0400     		.2byte	0x4
 9564 0571 F3       		.byte	0xf3
 9565 0572 01       		.uleb128 0x1
 9566 0573 50       		.byte	0x50
 9567 0574 9F       		.byte	0x9f
 9568 0575 00000000 		.4byte	0
 9569 0579 00000000 		.4byte	0
 9570              	.LLST31:
 9571 057d 00000000 		.4byte	.LVL150
 9572 0581 0C000000 		.4byte	.LVL151
 9573 0585 0100     		.2byte	0x1
 9574 0587 50       		.byte	0x50
 9575 0588 0C000000 		.4byte	.LVL151
 9576 058c 0F000000 		.4byte	.LVL152-1
 9577 0590 0500     		.2byte	0x5
 9578 0592 03       		.byte	0x3
 9579 0593 00000000 		.4byte	config
 9580 0597 0F000000 		.4byte	.LVL152-1
 9581 059b 24000000 		.4byte	.LFE77
 9582 059f 0400     		.2byte	0x4
 9583 05a1 F3       		.byte	0xf3
 9584 05a2 01       		.uleb128 0x1
 9585 05a3 50       		.byte	0x50
 9586 05a4 9F       		.byte	0x9f
 9587 05a5 00000000 		.4byte	0
 9588 05a9 00000000 		.4byte	0
 9589              	.LLST32:
 9590 05ad 00000000 		.4byte	.LVL157
 9591 05b1 0C000000 		.4byte	.LVL158
 9592 05b5 0100     		.2byte	0x1
 9593 05b7 50       		.byte	0x50
 9594 05b8 0C000000 		.4byte	.LVL158
 9595 05bc 0F000000 		.4byte	.LVL159-1
 9596 05c0 0500     		.2byte	0x5
 9597 05c2 03       		.byte	0x3
 9598 05c3 03000000 		.4byte	config+3
 9599 05c7 0F000000 		.4byte	.LVL159-1
 9600 05cb 24000000 		.4byte	.LFE78
 9601 05cf 0400     		.2byte	0x4
 9602 05d1 F3       		.byte	0xf3
 9603 05d2 01       		.uleb128 0x1
 9604 05d3 50       		.byte	0x50
 9605 05d4 9F       		.byte	0x9f
ARM GAS  C:\Users\PIERRE~1\AppData\Local\Temp\ccqD7qlI.s 			page 193


 9606 05d5 00000000 		.4byte	0
 9607 05d9 00000000 		.4byte	0
 9608              	.LLST33:
 9609 05dd 00000000 		.4byte	.LVL164
 9610 05e1 0C000000 		.4byte	.LVL165
 9611 05e5 0100     		.2byte	0x1
 9612 05e7 50       		.byte	0x50
 9613 05e8 0C000000 		.4byte	.LVL165
 9614 05ec 0F000000 		.4byte	.LVL166-1
 9615 05f0 0500     		.2byte	0x5
 9616 05f2 03       		.byte	0x3
 9617 05f3 04000000 		.4byte	config+4
 9618 05f7 0F000000 		.4byte	.LVL166-1
 9619 05fb 24000000 		.4byte	.LFE79
 9620 05ff 0400     		.2byte	0x4
 9621 0601 F3       		.byte	0xf3
 9622 0602 01       		.uleb128 0x1
 9623 0603 50       		.byte	0x50
 9624 0604 9F       		.byte	0x9f
 9625 0605 00000000 		.4byte	0
 9626 0609 00000000 		.4byte	0
 9627              	.LLST34:
 9628 060d 14000000 		.4byte	.LVL176
 9629 0611 28000000 		.4byte	.LVL177
 9630 0615 0100     		.2byte	0x1
 9631 0617 52       		.byte	0x52
 9632 0618 28000000 		.4byte	.LVL177
 9633 061c 2F000000 		.4byte	.LVL178-1
 9634 0620 0500     		.2byte	0x5
 9635 0622 03       		.byte	0x3
 9636 0623 07000000 		.4byte	config+7
 9637 0627 00000000 		.4byte	0
 9638 062b 00000000 		.4byte	0
 9639              	.LLST35:
 9640 062f 00000000 		.4byte	.LVL179
 9641 0633 08000000 		.4byte	.LVL180
 9642 0637 0100     		.2byte	0x1
 9643 0639 50       		.byte	0x50
 9644 063a 08000000 		.4byte	.LVL180
 9645 063e 18000000 		.4byte	.LFE89
 9646 0642 0400     		.2byte	0x4
 9647 0644 F3       		.byte	0xf3
 9648 0645 01       		.uleb128 0x1
 9649 0646 50       		.byte	0x50
 9650 0647 9F       		.byte	0x9f
 9651 0648 00000000 		.4byte	0
 9652 064c 00000000 		.4byte	0
 9653              	.LLST36:
 9654 0650 04000000 		.4byte	.LVL192
 9655 0654 26000000 		.4byte	.LVL193
 9656 0658 0400     		.2byte	0x4
 9657 065a 0A       		.byte	0xa
 9658 065b 0010     		.2byte	0x1000
 9659 065d 9F       		.byte	0x9f
 9660 065e 26000000 		.4byte	.LVL193
 9661 0662 2A000000 		.4byte	.LVL194
 9662 0666 0300     		.2byte	0x3
ARM GAS  C:\Users\PIERRE~1\AppData\Local\Temp\ccqD7qlI.s 			page 194


 9663 0668 08       		.byte	0x8
 9664 0669 80       		.byte	0x80
 9665 066a 9F       		.byte	0x9f
 9666 066b 2A000000 		.4byte	.LVL194
 9667 066f 30000000 		.4byte	.LVL195
 9668 0673 0400     		.2byte	0x4
 9669 0675 0A       		.byte	0xa
 9670 0676 0001     		.2byte	0x100
 9671 0678 9F       		.byte	0x9f
 9672 0679 30000000 		.4byte	.LVL195
 9673 067d 36000000 		.4byte	.LVL196
 9674 0681 0400     		.2byte	0x4
 9675 0683 0A       		.byte	0xa
 9676 0684 0002     		.2byte	0x200
 9677 0686 9F       		.byte	0x9f
 9678 0687 36000000 		.4byte	.LVL196
 9679 068b 3C000000 		.4byte	.LVL197
 9680 068f 0400     		.2byte	0x4
 9681 0691 0A       		.byte	0xa
 9682 0692 0004     		.2byte	0x400
 9683 0694 9F       		.byte	0x9f
 9684 0695 3C000000 		.4byte	.LVL197
 9685 0699 42000000 		.4byte	.LVL198
 9686 069d 0400     		.2byte	0x4
 9687 069f 0A       		.byte	0xa
 9688 06a0 0006     		.2byte	0x600
 9689 06a2 9F       		.byte	0x9f
 9690 06a3 42000000 		.4byte	.LVL198
 9691 06a7 48000000 		.4byte	.LVL199
 9692 06ab 0400     		.2byte	0x4
 9693 06ad 0A       		.byte	0xa
 9694 06ae 0008     		.2byte	0x800
 9695 06b0 9F       		.byte	0x9f
 9696 06b1 48000000 		.4byte	.LVL199
 9697 06b5 4A000000 		.4byte	.LVL200
 9698 06b9 0400     		.2byte	0x4
 9699 06bb 0A       		.byte	0xa
 9700 06bc 0010     		.2byte	0x1000
 9701 06be 9F       		.byte	0x9f
 9702 06bf 4A000000 		.4byte	.LVL200
 9703 06c3 52000000 		.4byte	.LVL201
 9704 06c7 0100     		.2byte	0x1
 9705 06c9 50       		.byte	0x50
 9706 06ca 00000000 		.4byte	0
 9707 06ce 00000000 		.4byte	0
 9708              	.LLST37:
 9709 06d2 00000000 		.4byte	.LVL214
 9710 06d6 08000000 		.4byte	.LVL215
 9711 06da 0100     		.2byte	0x1
 9712 06dc 50       		.byte	0x50
 9713 06dd 08000000 		.4byte	.LVL215
 9714 06e1 18000000 		.4byte	.LFE90
 9715 06e5 0400     		.2byte	0x4
 9716 06e7 F3       		.byte	0xf3
 9717 06e8 01       		.uleb128 0x1
 9718 06e9 50       		.byte	0x50
 9719 06ea 9F       		.byte	0x9f
ARM GAS  C:\Users\PIERRE~1\AppData\Local\Temp\ccqD7qlI.s 			page 195


 9720 06eb 00000000 		.4byte	0
 9721 06ef 00000000 		.4byte	0
 9722              	.LLST38:
 9723 06f3 00000000 		.4byte	.LVL219
 9724 06f7 0C000000 		.4byte	.LVL220
 9725 06fb 0100     		.2byte	0x1
 9726 06fd 50       		.byte	0x50
 9727 06fe 0C000000 		.4byte	.LVL220
 9728 0702 0F000000 		.4byte	.LVL221-1
 9729 0706 0500     		.2byte	0x5
 9730 0708 03       		.byte	0x3
 9731 0709 06000000 		.4byte	config+6
 9732 070d 0F000000 		.4byte	.LVL221-1
 9733 0711 24000000 		.4byte	.LFE91
 9734 0715 0400     		.2byte	0x4
 9735 0717 F3       		.byte	0xf3
 9736 0718 01       		.uleb128 0x1
 9737 0719 50       		.byte	0x50
 9738 071a 9F       		.byte	0x9f
 9739 071b 00000000 		.4byte	0
 9740 071f 00000000 		.4byte	0
 9741              	.LLST39:
 9742 0723 00000000 		.4byte	.LVL229
 9743 0727 0C000000 		.4byte	.LVL230
 9744 072b 0100     		.2byte	0x1
 9745 072d 50       		.byte	0x50
 9746 072e 0C000000 		.4byte	.LVL230
 9747 0732 0F000000 		.4byte	.LVL231-1
 9748 0736 0500     		.2byte	0x5
 9749 0738 03       		.byte	0x3
 9750 0739 09000000 		.4byte	config+9
 9751 073d 0F000000 		.4byte	.LVL231-1
 9752 0741 24000000 		.4byte	.LFE92
 9753 0745 0400     		.2byte	0x4
 9754 0747 F3       		.byte	0xf3
 9755 0748 01       		.uleb128 0x1
 9756 0749 50       		.byte	0x50
 9757 074a 9F       		.byte	0x9f
 9758 074b 00000000 		.4byte	0
 9759 074f 00000000 		.4byte	0
 9760              	.LLST40:
 9761 0753 00000000 		.4byte	.LVL246
 9762 0757 0C000000 		.4byte	.LVL247
 9763 075b 0100     		.2byte	0x1
 9764 075d 50       		.byte	0x50
 9765 075e 0C000000 		.4byte	.LVL247
 9766 0762 0F000000 		.4byte	.LVL248-1
 9767 0766 0500     		.2byte	0x5
 9768 0768 03       		.byte	0x3
 9769 0769 0A000000 		.4byte	config+10
 9770 076d 0F000000 		.4byte	.LVL248-1
 9771 0771 24000000 		.4byte	.LFE93
 9772 0775 0400     		.2byte	0x4
 9773 0777 F3       		.byte	0xf3
 9774 0778 01       		.uleb128 0x1
 9775 0779 50       		.byte	0x50
 9776 077a 9F       		.byte	0x9f
ARM GAS  C:\Users\PIERRE~1\AppData\Local\Temp\ccqD7qlI.s 			page 196


 9777 077b 00000000 		.4byte	0
 9778 077f 00000000 		.4byte	0
 9779              	.LLST41:
 9780 0783 00000000 		.4byte	.LVL255
 9781 0787 09000000 		.4byte	.LVL256-1
 9782 078b 0100     		.2byte	0x1
 9783 078d 50       		.byte	0x50
 9784 078e 09000000 		.4byte	.LVL256-1
 9785 0792 10000000 		.4byte	.LFE94
 9786 0796 0400     		.2byte	0x4
 9787 0798 F3       		.byte	0xf3
 9788 0799 01       		.uleb128 0x1
 9789 079a 50       		.byte	0x50
 9790 079b 9F       		.byte	0x9f
 9791 079c 00000000 		.4byte	0
 9792 07a0 00000000 		.4byte	0
 9793              	.LLST42:
 9794 07a4 00000000 		.4byte	.LVL271
 9795 07a8 0B000000 		.4byte	.LVL272-1
 9796 07ac 0100     		.2byte	0x1
 9797 07ae 50       		.byte	0x50
 9798 07af 0B000000 		.4byte	.LVL272-1
 9799 07b3 1C000000 		.4byte	.LFE96
 9800 07b7 0400     		.2byte	0x4
 9801 07b9 F3       		.byte	0xf3
 9802 07ba 01       		.uleb128 0x1
 9803 07bb 50       		.byte	0x50
 9804 07bc 9F       		.byte	0x9f
 9805 07bd 00000000 		.4byte	0
 9806 07c1 00000000 		.4byte	0
 9807              	.LLST43:
 9808 07c5 32000000 		.4byte	.LVL292
 9809 07c9 38000000 		.4byte	.LVL293
 9810 07cd 0100     		.2byte	0x1
 9811 07cf 53       		.byte	0x53
 9812 07d0 40000000 		.4byte	.LVL295
 9813 07d4 42000000 		.4byte	.LVL296
 9814 07d8 0100     		.2byte	0x1
 9815 07da 53       		.byte	0x53
 9816 07db 42000000 		.4byte	.LVL296
 9817 07df 51000000 		.4byte	.LVL297-1
 9818 07e3 2600     		.2byte	0x26
 9819 07e5 91       		.byte	0x91
 9820 07e6 6F       		.sleb128 -17
 9821 07e7 94       		.byte	0x94
 9822 07e8 01       		.byte	0x1
 9823 07e9 08       		.byte	0x8
 9824 07ea FF       		.byte	0xff
 9825 07eb 1A       		.byte	0x1a
 9826 07ec 48       		.byte	0x48
 9827 07ed 24       		.byte	0x24
 9828 07ee 91       		.byte	0x91
 9829 07ef 6E       		.sleb128 -18
 9830 07f0 94       		.byte	0x94
 9831 07f1 01       		.byte	0x1
 9832 07f2 08       		.byte	0x8
 9833 07f3 FF       		.byte	0xff
ARM GAS  C:\Users\PIERRE~1\AppData\Local\Temp\ccqD7qlI.s 			page 197


 9834 07f4 1A       		.byte	0x1a
 9835 07f5 40       		.byte	0x40
 9836 07f6 24       		.byte	0x24
 9837 07f7 21       		.byte	0x21
 9838 07f8 91       		.byte	0x91
 9839 07f9 6D       		.sleb128 -19
 9840 07fa 94       		.byte	0x94
 9841 07fb 01       		.byte	0x1
 9842 07fc 08       		.byte	0x8
 9843 07fd FF       		.byte	0xff
 9844 07fe 1A       		.byte	0x1a
 9845 07ff 38       		.byte	0x38
 9846 0800 24       		.byte	0x24
 9847 0801 21       		.byte	0x21
 9848 0802 91       		.byte	0x91
 9849 0803 6C       		.sleb128 -20
 9850 0804 94       		.byte	0x94
 9851 0805 01       		.byte	0x1
 9852 0806 08       		.byte	0x8
 9853 0807 FF       		.byte	0xff
 9854 0808 1A       		.byte	0x1a
 9855 0809 21       		.byte	0x21
 9856 080a 9F       		.byte	0x9f
 9857 080b 50010000 		.4byte	.LVL314
 9858 080f 56010000 		.4byte	.LVL315
 9859 0813 0100     		.2byte	0x1
 9860 0815 53       		.byte	0x53
 9861 0816 5E010000 		.4byte	.LVL317
 9862 081a 6C010000 		.4byte	.LFE98
 9863 081e 0100     		.2byte	0x1
 9864 0820 53       		.byte	0x53
 9865 0821 00000000 		.4byte	0
 9866 0825 00000000 		.4byte	0
 9867              	.LLST44:
 9868 0829 00000000 		.4byte	.LVL329
 9869 082d 18000000 		.4byte	.LVL332
 9870 0831 0100     		.2byte	0x1
 9871 0833 50       		.byte	0x50
 9872 0834 18000000 		.4byte	.LVL332
 9873 0838 1B000000 		.4byte	.LVL333-1
 9874 083c 0100     		.2byte	0x1
 9875 083e 52       		.byte	0x52
 9876 083f 1B000000 		.4byte	.LVL333-1
 9877 0843 6C000000 		.4byte	.LFE108
 9878 0847 0400     		.2byte	0x4
 9879 0849 F3       		.byte	0xf3
 9880 084a 01       		.uleb128 0x1
 9881 084b 50       		.byte	0x50
 9882 084c 9F       		.byte	0x9f
 9883 084d 00000000 		.4byte	0
 9884 0851 00000000 		.4byte	0
 9885              	.LLST45:
 9886 0855 00000000 		.4byte	.LVL329
 9887 0859 16000000 		.4byte	.LVL331
 9888 085d 0100     		.2byte	0x1
 9889 085f 51       		.byte	0x51
 9890 0860 16000000 		.4byte	.LVL331
ARM GAS  C:\Users\PIERRE~1\AppData\Local\Temp\ccqD7qlI.s 			page 198


 9891 0864 6C000000 		.4byte	.LFE108
 9892 0868 0400     		.2byte	0x4
 9893 086a F3       		.byte	0xf3
 9894 086b 01       		.uleb128 0x1
 9895 086c 51       		.byte	0x51
 9896 086d 9F       		.byte	0x9f
 9897 086e 00000000 		.4byte	0
 9898 0872 00000000 		.4byte	0
 9899              	.LLST46:
 9900 0876 00000000 		.4byte	.LVL329
 9901 087a 0A000000 		.4byte	.LVL330
 9902 087e 0100     		.2byte	0x1
 9903 0880 52       		.byte	0x52
 9904 0881 0A000000 		.4byte	.LVL330
 9905 0885 6C000000 		.4byte	.LFE108
 9906 0889 0400     		.2byte	0x4
 9907 088b F3       		.byte	0xf3
 9908 088c 01       		.uleb128 0x1
 9909 088d 52       		.byte	0x52
 9910 088e 9F       		.byte	0x9f
 9911 088f 00000000 		.4byte	0
 9912 0893 00000000 		.4byte	0
 9913              	.LLST47:
 9914 0897 00000000 		.4byte	.LVL337
 9915 089b 12000000 		.4byte	.LVL338
 9916 089f 0100     		.2byte	0x1
 9917 08a1 50       		.byte	0x50
 9918 08a2 12000000 		.4byte	.LVL338
 9919 08a6 68000000 		.4byte	.LFE109
 9920 08aa 0100     		.2byte	0x1
 9921 08ac 54       		.byte	0x54
 9922 08ad 00000000 		.4byte	0
 9923 08b1 00000000 		.4byte	0
 9924              	.LLST48:
 9925 08b5 4A000000 		.4byte	.LVL341
 9926 08b9 4E000000 		.4byte	.LVL342
 9927 08bd 0200     		.2byte	0x2
 9928 08bf 3D       		.byte	0x3d
 9929 08c0 9F       		.byte	0x9f
 9930 08c1 4E000000 		.4byte	.LVL342
 9931 08c5 58000000 		.4byte	.LVL343
 9932 08c9 0100     		.2byte	0x1
 9933 08cb 53       		.byte	0x53
 9934 08cc 5A000000 		.4byte	.LVL344
 9935 08d0 62000000 		.4byte	.LVL345
 9936 08d4 0100     		.2byte	0x1
 9937 08d6 53       		.byte	0x53
 9938 08d7 00000000 		.4byte	0
 9939 08db 00000000 		.4byte	0
 9940              		.section	.debug_aranges,"",%progbits
 9941 0000 8C010000 		.4byte	0x18c
 9942 0004 0200     		.2byte	0x2
 9943 0006 00000000 		.4byte	.Ldebug_info0
 9944 000a 04       		.byte	0x4
 9945 000b 00       		.byte	0
 9946 000c 0000     		.2byte	0
 9947 000e 0000     		.2byte	0
ARM GAS  C:\Users\PIERRE~1\AppData\Local\Temp\ccqD7qlI.s 			page 199


 9948 0010 00000000 		.4byte	.LFB63
 9949 0014 8E000000 		.4byte	.LFE63-.LFB63
 9950 0018 00000000 		.4byte	.LFB64
 9951 001c 12000000 		.4byte	.LFE64-.LFB64
 9952 0020 00000000 		.4byte	.LFB65
 9953 0024 40000000 		.4byte	.LFE65-.LFB65
 9954 0028 00000000 		.4byte	.LFB66
 9955 002c 12000000 		.4byte	.LFE66-.LFB66
 9956 0030 00000000 		.4byte	.LFB68
 9957 0034 24000000 		.4byte	.LFE68-.LFB68
 9958 0038 00000000 		.4byte	.LFB103
 9959 003c 30000000 		.4byte	.LFE103-.LFB103
 9960 0040 00000000 		.4byte	.LFB104
 9961 0044 10000000 		.4byte	.LFE104-.LFB104
 9962 0048 00000000 		.4byte	.LFB105
 9963 004c 08000000 		.4byte	.LFE105-.LFB105
 9964 0050 00000000 		.4byte	.LFB106
 9965 0054 C0000000 		.4byte	.LFE106-.LFB106
 9966 0058 00000000 		.4byte	.LFB107
 9967 005c A4000000 		.4byte	.LFE107-.LFB107
 9968 0060 00000000 		.4byte	.LFB72
 9969 0064 4C000000 		.4byte	.LFE72-.LFB72
 9970 0068 00000000 		.4byte	.LFB75
 9971 006c 18000000 		.4byte	.LFE75-.LFB75
 9972 0070 00000000 		.4byte	.LFB73
 9973 0074 28000000 		.4byte	.LFE73-.LFB73
 9974 0078 00000000 		.4byte	.LFB76
 9975 007c 18000000 		.4byte	.LFE76-.LFB76
 9976 0080 00000000 		.4byte	.LFB69
 9977 0084 A0010000 		.4byte	.LFE69-.LFB69
 9978 0088 00000000 		.4byte	.LFB70
 9979 008c B4000000 		.4byte	.LFE70-.LFB70
 9980 0090 00000000 		.4byte	.LFB77
 9981 0094 24000000 		.4byte	.LFE77-.LFB77
 9982 0098 00000000 		.4byte	.LFB71
 9983 009c 2C000000 		.4byte	.LFE71-.LFB71
 9984 00a0 00000000 		.4byte	.LFB78
 9985 00a4 24000000 		.4byte	.LFE78-.LFB78
 9986 00a8 00000000 		.4byte	.LFB74
 9987 00ac 2C000000 		.4byte	.LFE74-.LFB74
 9988 00b0 00000000 		.4byte	.LFB79
 9989 00b4 24000000 		.4byte	.LFE79-.LFB79
 9990 00b8 00000000 		.4byte	.LFB80
 9991 00bc 24000000 		.4byte	.LFE80-.LFB80
 9992 00c0 00000000 		.4byte	.LFB86
 9993 00c4 3C000000 		.4byte	.LFE86-.LFB86
 9994 00c8 00000000 		.4byte	.LFB89
 9995 00cc 18000000 		.4byte	.LFE89-.LFB89
 9996 00d0 00000000 		.4byte	.LFB82
 9997 00d4 00010000 		.4byte	.LFE82-.LFB82
 9998 00d8 00000000 		.4byte	.LFB81
 9999 00dc 74000000 		.4byte	.LFE81-.LFB81
 10000 00e0 00000000 		.4byte	.LFB87
 10001 00e4 88000000 		.4byte	.LFE87-.LFB87
 10002 00e8 00000000 		.4byte	.LFB90
 10003 00ec 18000000 		.4byte	.LFE90-.LFB90
 10004 00f0 00000000 		.4byte	.LFB84
ARM GAS  C:\Users\PIERRE~1\AppData\Local\Temp\ccqD7qlI.s 			page 200


 10005 00f4 40000000 		.4byte	.LFE84-.LFB84
 10006 00f8 00000000 		.4byte	.LFB91
 10007 00fc 24000000 		.4byte	.LFE91-.LFB91
 10008 0100 00000000 		.4byte	.LFB85
 10009 0104 60000000 		.4byte	.LFE85-.LFB85
 10010 0108 00000000 		.4byte	.LFB92
 10011 010c 24000000 		.4byte	.LFE92-.LFB92
 10012 0110 00000000 		.4byte	.LFB88
 10013 0114 A8000000 		.4byte	.LFE88-.LFB88
 10014 0118 00000000 		.4byte	.LFB93
 10015 011c 24000000 		.4byte	.LFE93-.LFB93
 10016 0120 00000000 		.4byte	.LFB83
 10017 0124 58000000 		.4byte	.LFE83-.LFB83
 10018 0128 00000000 		.4byte	.LFB94
 10019 012c 10000000 		.4byte	.LFE94-.LFB94
 10020 0130 00000000 		.4byte	.LFB95
 10021 0134 2C000000 		.4byte	.LFE95-.LFB95
 10022 0138 00000000 		.4byte	.LFB67
 10023 013c A4000000 		.4byte	.LFE67-.LFB67
 10024 0140 00000000 		.4byte	.LFB96
 10025 0144 1C000000 		.4byte	.LFE96-.LFB96
 10026 0148 00000000 		.4byte	.LFB100
 10027 014c 9E000000 		.4byte	.LFE100-.LFB100
 10028 0150 00000000 		.4byte	.LFB97
 10029 0154 20000000 		.4byte	.LFE97-.LFB97
 10030 0158 00000000 		.4byte	.LFB98
 10031 015c 6C010000 		.4byte	.LFE98-.LFB98
 10032 0160 00000000 		.4byte	.LFB99
 10033 0164 72000000 		.4byte	.LFE99-.LFB99
 10034 0168 00000000 		.4byte	.LFB101
 10035 016c 2E000000 		.4byte	.LFE101-.LFB101
 10036 0170 00000000 		.4byte	.LFB102
 10037 0174 2A000000 		.4byte	.LFE102-.LFB102
 10038 0178 00000000 		.4byte	.LFB108
 10039 017c 6C000000 		.4byte	.LFE108-.LFB108
 10040 0180 00000000 		.4byte	.LFB109
 10041 0184 68000000 		.4byte	.LFE109-.LFB109
 10042 0188 00000000 		.4byte	0
 10043 018c 00000000 		.4byte	0
 10044              		.section	.debug_ranges,"",%progbits
 10045              	.Ldebug_ranges0:
 10046 0000 00000000 		.4byte	.LFB63
 10047 0004 8E000000 		.4byte	.LFE63
 10048 0008 00000000 		.4byte	.LFB64
 10049 000c 12000000 		.4byte	.LFE64
 10050 0010 00000000 		.4byte	.LFB65
 10051 0014 40000000 		.4byte	.LFE65
 10052 0018 00000000 		.4byte	.LFB66
 10053 001c 12000000 		.4byte	.LFE66
 10054 0020 00000000 		.4byte	.LFB68
 10055 0024 24000000 		.4byte	.LFE68
 10056 0028 00000000 		.4byte	.LFB103
 10057 002c 30000000 		.4byte	.LFE103
 10058 0030 00000000 		.4byte	.LFB104
 10059 0034 10000000 		.4byte	.LFE104
 10060 0038 00000000 		.4byte	.LFB105
 10061 003c 08000000 		.4byte	.LFE105
ARM GAS  C:\Users\PIERRE~1\AppData\Local\Temp\ccqD7qlI.s 			page 201


 10062 0040 00000000 		.4byte	.LFB106
 10063 0044 C0000000 		.4byte	.LFE106
 10064 0048 00000000 		.4byte	.LFB107
 10065 004c A4000000 		.4byte	.LFE107
 10066 0050 00000000 		.4byte	.LFB72
 10067 0054 4C000000 		.4byte	.LFE72
 10068 0058 00000000 		.4byte	.LFB75
 10069 005c 18000000 		.4byte	.LFE75
 10070 0060 00000000 		.4byte	.LFB73
 10071 0064 28000000 		.4byte	.LFE73
 10072 0068 00000000 		.4byte	.LFB76
 10073 006c 18000000 		.4byte	.LFE76
 10074 0070 00000000 		.4byte	.LFB69
 10075 0074 A0010000 		.4byte	.LFE69
 10076 0078 00000000 		.4byte	.LFB70
 10077 007c B4000000 		.4byte	.LFE70
 10078 0080 00000000 		.4byte	.LFB77
 10079 0084 24000000 		.4byte	.LFE77
 10080 0088 00000000 		.4byte	.LFB71
 10081 008c 2C000000 		.4byte	.LFE71
 10082 0090 00000000 		.4byte	.LFB78
 10083 0094 24000000 		.4byte	.LFE78
 10084 0098 00000000 		.4byte	.LFB74
 10085 009c 2C000000 		.4byte	.LFE74
 10086 00a0 00000000 		.4byte	.LFB79
 10087 00a4 24000000 		.4byte	.LFE79
 10088 00a8 00000000 		.4byte	.LFB80
 10089 00ac 24000000 		.4byte	.LFE80
 10090 00b0 00000000 		.4byte	.LFB86
 10091 00b4 3C000000 		.4byte	.LFE86
 10092 00b8 00000000 		.4byte	.LFB89
 10093 00bc 18000000 		.4byte	.LFE89
 10094 00c0 00000000 		.4byte	.LFB82
 10095 00c4 00010000 		.4byte	.LFE82
 10096 00c8 00000000 		.4byte	.LFB81
 10097 00cc 74000000 		.4byte	.LFE81
 10098 00d0 00000000 		.4byte	.LFB87
 10099 00d4 88000000 		.4byte	.LFE87
 10100 00d8 00000000 		.4byte	.LFB90
 10101 00dc 18000000 		.4byte	.LFE90
 10102 00e0 00000000 		.4byte	.LFB84
 10103 00e4 40000000 		.4byte	.LFE84
 10104 00e8 00000000 		.4byte	.LFB91
 10105 00ec 24000000 		.4byte	.LFE91
 10106 00f0 00000000 		.4byte	.LFB85
 10107 00f4 60000000 		.4byte	.LFE85
 10108 00f8 00000000 		.4byte	.LFB92
 10109 00fc 24000000 		.4byte	.LFE92
 10110 0100 00000000 		.4byte	.LFB88
 10111 0104 A8000000 		.4byte	.LFE88
 10112 0108 00000000 		.4byte	.LFB93
 10113 010c 24000000 		.4byte	.LFE93
 10114 0110 00000000 		.4byte	.LFB83
 10115 0114 58000000 		.4byte	.LFE83
 10116 0118 00000000 		.4byte	.LFB94
 10117 011c 10000000 		.4byte	.LFE94
 10118 0120 00000000 		.4byte	.LFB95
ARM GAS  C:\Users\PIERRE~1\AppData\Local\Temp\ccqD7qlI.s 			page 202


 10119 0124 2C000000 		.4byte	.LFE95
 10120 0128 00000000 		.4byte	.LFB67
 10121 012c A4000000 		.4byte	.LFE67
 10122 0130 00000000 		.4byte	.LFB96
 10123 0134 1C000000 		.4byte	.LFE96
 10124 0138 00000000 		.4byte	.LFB100
 10125 013c 9E000000 		.4byte	.LFE100
 10126 0140 00000000 		.4byte	.LFB97
 10127 0144 20000000 		.4byte	.LFE97
 10128 0148 00000000 		.4byte	.LFB98
 10129 014c 6C010000 		.4byte	.LFE98
 10130 0150 00000000 		.4byte	.LFB99
 10131 0154 72000000 		.4byte	.LFE99
 10132 0158 00000000 		.4byte	.LFB101
 10133 015c 2E000000 		.4byte	.LFE101
 10134 0160 00000000 		.4byte	.LFB102
 10135 0164 2A000000 		.4byte	.LFE102
 10136 0168 00000000 		.4byte	.LFB108
 10137 016c 6C000000 		.4byte	.LFE108
 10138 0170 00000000 		.4byte	.LFB109
 10139 0174 68000000 		.4byte	.LFE109
 10140 0178 00000000 		.4byte	0
 10141 017c 00000000 		.4byte	0
 10142              		.section	.debug_line,"",%progbits
 10143              	.Ldebug_line0:
 10144 0000 E0060000 		.section	.debug_str,"MS",%progbits,1
 10144      02007A01 
 10144      00000201 
 10144      FB0E0D00 
 10144      01010101 
 10145              	.LASF130:
 10146 0000 44574D5F 		.ascii	"DWM_Enable_Rx\000"
 10146      456E6162 
 10146      6C655F52 
 10146      7800
 10147              	.LASF146:
 10148 000e 43794465 		.ascii	"CyDelay\000"
 10148      6C617900 
 10149              	.LASF96:
 10150 0016 52454345 		.ascii	"RECEIVER_UpdateBitrate\000"
 10150      49564552 
 10150      5F557064 
 10150      61746542 
 10150      69747261 
 10151              	.LASF55:
 10152 002d 73657442 		.ascii	"setBit\000"
 10152      697400
 10153              	.LASF27:
 10154 0034 5F313130 		.ascii	"_110KBPS\000"
 10154      4B425053 
 10154      00
 10155              	.LASF78:
 10156 003d 5452414E 		.ascii	"TRANSMITTER_SetBitRate\000"
 10156      534D4954 
 10156      5445525F 
 10156      53657442 
 10156      69745261 
ARM GAS  C:\Users\PIERRE~1\AppData\Local\Temp\ccqD7qlI.s 			page 203


 10157              	.LASF127:
 10158 0054 73797343 		.ascii	"sysCtrl\000"
 10158      74726C00 
 10159              	.LASF116:
 10160 005c 6F70745F 		.ascii	"opt_ctrl\000"
 10160      6374726C 
 10160      00
 10161              	.LASF136:
 10162 0065 62756666 		.ascii	"buffer\000"
 10162      657200
 10163              	.LASF99:
 10164 006c 52454345 		.ascii	"RECEIVER_UpdatePrf\000"
 10164      49564552 
 10164      5F557064 
 10164      61746550 
 10164      726600
 10165              	.LASF47:
 10166 007f 72656365 		.ascii	"receiver\000"
 10166      69766572 
 10166      00
 10167              	.LASF59:
 10168 0088 64617461 		.ascii	"dataShort\000"
 10168      53686F72 
 10168      7400
 10169              	.LASF149:
 10170 0092 433A5C55 		.ascii	"C:\\Users\\Pierre Vander Eyken\\Desktop\\memoire\\N"
 10170      73657273 
 10170      5C506965 
 10170      72726520 
 10170      56616E64 
 10171 00c0 6577436F 		.ascii	"ewCode\\TAG-RTOS\\PSoC\\write_fonction_spi.cydsn\000"
 10171      64655C54 
 10171      41472D52 
 10171      544F535C 
 10171      50536F43 
 10172              	.LASF12:
 10173 00ee 756E7369 		.ascii	"unsigned int\000"
 10173      676E6564 
 10173      20696E74 
 10173      00
 10174              	.LASF6:
 10175 00fb 5F5F696E 		.ascii	"__int32_t\000"
 10175      7433325F 
 10175      7400
 10176              	.LASF134:
 10177 0105 66637472 		.ascii	"fctrl\000"
 10177      6C00
 10178              	.LASF68:
 10179 010b 5452414E 		.ascii	"TRANSMITTER_SetPreambleCode\000"
 10179      534D4954 
 10179      5445525F 
 10179      53657450 
 10179      7265616D 
 10180              	.LASF107:
 10181 0127 52454345 		.ascii	"RECEIVER_SetRrameTimeoutDelay\000"
 10181      49564552 
 10181      5F536574 
ARM GAS  C:\Users\PIERRE~1\AppData\Local\Temp\ccqD7qlI.s 			page 204


 10181      5272616D 
 10181      6554696D 
 10182              	.LASF129:
 10183 0145 44574D5F 		.ascii	"DWM_Reset_Rx\000"
 10183      52657365 
 10183      745F5278 
 10183      00
 10184              	.LASF138:
 10185 0152 636F7272 		.ascii	"correction\000"
 10185      65637469 
 10185      6F6E00
 10186              	.LASF30:
 10187 015d 5F313238 		.ascii	"_128\000"
 10187      00
 10188              	.LASF60:
 10189 0162 44574D5F 		.ascii	"DWM_ReadSPI_ext\000"
 10189      52656164 
 10189      5350495F 
 10189      65787400 
 10190              	.LASF69:
 10191 0172 5452414E 		.ascii	"TRANSMITTER_UpdatePreambleCode\000"
 10191      534D4954 
 10191      5445525F 
 10191      55706461 
 10191      74655072 
 10192              	.LASF66:
 10193 0191 44574D5F 		.ascii	"DWM_WriteSPI_ext\000"
 10193      57726974 
 10193      65535049 
 10193      5F657874 
 10193      00
 10194              	.LASF117:
 10195 01a2 434F4E46 		.ascii	"CONFIG_Init\000"
 10195      49475F49 
 10195      6E697400 
 10196              	.LASF132:
 10197 01ae 44574D5F 		.ascii	"DWM_SendData\000"
 10197      53656E64 
 10197      44617461 
 10197      00
 10198              	.LASF16:
 10199 01bb 75696E74 		.ascii	"uint32_t\000"
 10199      33325F74 
 10199      00
 10200              	.LASF21:
 10201 01c4 666C6F61 		.ascii	"float\000"
 10201      7400
 10202              	.LASF53:
 10203 01ca 73686966 		.ascii	"shift\000"
 10203      7400
 10204              	.LASF11:
 10205 01d0 6C6F6E67 		.ascii	"long long unsigned int\000"
 10205      206C6F6E 
 10205      6720756E 
 10205      7369676E 
 10205      65642069 
 10206              	.LASF108:
ARM GAS  C:\Users\PIERRE~1\AppData\Local\Temp\ccqD7qlI.s 			page 205


 10207 01e7 74696D65 		.ascii	"timeoutDelay\000"
 10207      6F757444 
 10207      656C6179 
 10207      00
 10208              	.LASF38:
 10209 01f4 70726561 		.ascii	"preambleCode\000"
 10209      6D626C65 
 10209      436F6465 
 10209      00
 10210              	.LASF42:
 10211 0201 5472616E 		.ascii	"Transmitter\000"
 10211      736D6974 
 10211      74657200 
 10212              	.LASF125:
 10213 020d 616E7465 		.ascii	"antennaDelay\000"
 10213      6E6E6144 
 10213      656C6179 
 10213      00
 10214              	.LASF4:
 10215 021a 5F5F7569 		.ascii	"__uint16_t\000"
 10215      6E743136 
 10215      5F7400
 10216              	.LASF50:
 10217 0225 4348414E 		.ascii	"CHANNEL_ValidPreambleSize\000"
 10217      4E454C5F 
 10217      56616C69 
 10217      64507265 
 10217      616D626C 
 10218              	.LASF73:
 10219 023f 7478506F 		.ascii	"txPower\000"
 10219      77657200 
 10220              	.LASF45:
 10221 0247 436F6E66 		.ascii	"Config\000"
 10221      696700
 10222              	.LASF23:
 10223 024e 4348414E 		.ascii	"CHANNEL\000"
 10223      4E454C00 
 10224              	.LASF147:
 10225 0256 474E5520 		.ascii	"GNU C11 5.4.1 20160609 (release) [ARM/embedded-5-br"
 10225      43313120 
 10225      352E342E 
 10225      31203230 
 10225      31363036 
 10226 0289 616E6368 		.ascii	"anch revision 237715] -mcpu=cortex-m3 -mthumb -g -O"
 10226      20726576 
 10226      6973696F 
 10226      6E203233 
 10226      37373135 
 10227 02bc 67202D66 		.ascii	"g -ffunction-sections -ffat-lto-objects\000"
 10227      66756E63 
 10227      74696F6E 
 10227      2D736563 
 10227      74696F6E 
 10228              	.LASF83:
 10229 02e4 52454345 		.ascii	"RECEIVER_UpdatePreambleCode\000"
 10229      49564552 
 10229      5F557064 
ARM GAS  C:\Users\PIERRE~1\AppData\Local\Temp\ccqD7qlI.s 			page 206


 10229      61746550 
 10229      7265616D 
 10230              	.LASF74:
 10231 0300 5452414E 		.ascii	"TRANSMITTER_UpdateChannel\000"
 10231      534D4954 
 10231      5445525F 
 10231      55706461 
 10231      74654368 
 10232              	.LASF28:
 10233 031a 5F383530 		.ascii	"_850KBPS\000"
 10233      4B425053 
 10233      00
 10234              	.LASF29:
 10235 0323 5F363830 		.ascii	"_6800KBPS\000"
 10235      304B4250 
 10235      5300
 10236              	.LASF62:
 10237 032d 6F666673 		.ascii	"offset\000"
 10237      657400
 10238              	.LASF121:
 10239 0334 6167635F 		.ascii	"agc_tune2\000"
 10239      74756E65 
 10239      3200
 10240              	.LASF133:
 10241 033e 77616974 		.ascii	"waitResponse\000"
 10241      52657370 
 10241      6F6E7365 
 10241      00
 10242              	.LASF123:
 10243 034b 7379734D 		.ascii	"sysMask\000"
 10243      61736B00 
 10244              	.LASF112:
 10245 0353 706C6C43 		.ascii	"pllCfg\000"
 10245      666700
 10246              	.LASF58:
 10247 035a 73686F72 		.ascii	"short2Bytes\000"
 10247      74324279 
 10247      74657300 
 10248              	.LASF43:
 10249 0366 52656365 		.ascii	"Receiver\000"
 10249      69766572 
 10249      00
 10250              	.LASF65:
 10251 036f 7072696D 		.ascii	"prim\000"
 10251      00
 10252              	.LASF110:
 10253 0374 44574D5F 		.ascii	"DWM_UpdateChannel\000"
 10253      55706461 
 10253      74654368 
 10253      616E6E65 
 10253      6C00
 10254              	.LASF67:
 10255 0386 6368616E 		.ascii	"chan\000"
 10255      00
 10256              	.LASF19:
 10257 038b 63686172 		.ascii	"char\000"
 10257      00
ARM GAS  C:\Users\PIERRE~1\AppData\Local\Temp\ccqD7qlI.s 			page 207


 10258              	.LASF119:
 10259 0390 53504952 		.ascii	"SPIRxBuffer8\000"
 10259      78427566 
 10259      66657238 
 10259      00
 10260              	.LASF71:
 10261 039d 5452414E 		.ascii	"TRANSMITTER_SetPreambleSize\000"
 10261      534D4954 
 10261      5445525F 
 10261      53657450 
 10261      7265616D 
 10262              	.LASF24:
 10263 03b9 5F31364D 		.ascii	"_16MHZ\000"
 10263      485A00
 10264              	.LASF106:
 10265 03c0 72786677 		.ascii	"rxfwto\000"
 10265      746F00
 10266              	.LASF52:
 10267 03c7 64617461 		.ascii	"data\000"
 10267      00
 10268              	.LASF93:
 10269 03cc 52454345 		.ascii	"RECEIVER_UpdateChannel\000"
 10269      49564552 
 10269      5F557064 
 10269      61746543 
 10269      68616E6E 
 10270              	.LASF87:
 10271 03e3 52454345 		.ascii	"RECEIVER_UpdateSFDTimeout\000"
 10271      49564552 
 10271      5F557064 
 10271      61746553 
 10271      46445469 
 10272              	.LASF84:
 10273 03fd 52454345 		.ascii	"RECEIVER_SetPreambleCode\000"
 10273      49564552 
 10273      5F536574 
 10273      50726561 
 10273      6D626C65 
 10274              	.LASF13:
 10275 0416 75696E74 		.ascii	"uint8_t\000"
 10275      385F7400 
 10276              	.LASF70:
 10277 041e 5452414E 		.ascii	"TRANSMITTER_UpdatePreambleSize\000"
 10277      534D4954 
 10277      5445525F 
 10277      55706461 
 10277      74655072 
 10278              	.LASF44:
 10279 043d 6672616D 		.ascii	"frameTimeoutDelay\000"
 10279      6554696D 
 10279      656F7574 
 10279      44656C61 
 10279      7900
 10280              	.LASF148:
 10281 044f 64776D31 		.ascii	"dwm1000.c\000"
 10281      3030302E 
 10281      6300
ARM GAS  C:\Users\PIERRE~1\AppData\Local\Temp\ccqD7qlI.s 			page 208


 10282              	.LASF33:
 10283 0459 5F313032 		.ascii	"_1024\000"
 10283      3400
 10284              	.LASF10:
 10285 045f 6C6F6E67 		.ascii	"long long int\000"
 10285      206C6F6E 
 10285      6720696E 
 10285      7400
 10286              	.LASF95:
 10287 046d 52454345 		.ascii	"RECEIVER_SetChannel\000"
 10287      49564552 
 10287      5F536574 
 10287      4368616E 
 10287      6E656C00 
 10288              	.LASF81:
 10289 0481 4348414E 		.ascii	"CHANNEL_Init\000"
 10289      4E454C5F 
 10289      496E6974 
 10289      00
 10290              	.LASF35:
 10291 048e 5F323034 		.ascii	"_2048\000"
 10291      3800
 10292              	.LASF90:
 10293 0494 6472785F 		.ascii	"drx_tune1b\000"
 10293      74756E65 
 10293      316200
 10294              	.LASF85:
 10295 049f 52454345 		.ascii	"RECEIVER_UpdatePacSize\000"
 10295      49564552 
 10295      5F557064 
 10295      61746550 
 10295      61635369 
 10296              	.LASF25:
 10297 04b6 5F36344D 		.ascii	"_64MHZ\000"
 10297      485A00
 10298              	.LASF34:
 10299 04bd 5F313533 		.ascii	"_1536\000"
 10299      3600
 10300              	.LASF86:
 10301 04c3 64727854 		.ascii	"drxTune2\000"
 10301      756E6532 
 10301      00
 10302              	.LASF124:
 10303 04cc 64656C61 		.ascii	"delayuint8\000"
 10303      7975696E 
 10303      743800
 10304              	.LASF39:
 10305 04d7 70726561 		.ascii	"preambleSize\000"
 10305      6D626C65 
 10305      53697A65 
 10305      00
 10306              	.LASF79:
 10307 04e4 5452414E 		.ascii	"TRANSMITTER_UpdatePrf\000"
 10307      534D4954 
 10307      5445525F 
 10307      55706461 
 10307      74655072 
ARM GAS  C:\Users\PIERRE~1\AppData\Local\Temp\ccqD7qlI.s 			page 209


 10308              	.LASF72:
 10309 04fa 5452414E 		.ascii	"TRANSMITTER_UpdateTxPower\000"
 10309      534D4954 
 10309      5445525F 
 10309      55706461 
 10309      74655478 
 10310              	.LASF143:
 10311 0514 5350494D 		.ascii	"SPIM_ReadTxStatus\000"
 10311      5F526561 
 10311      64547853 
 10311      74617475 
 10311      7300
 10312              	.LASF63:
 10313 0526 68656164 		.ascii	"header\000"
 10313      657200
 10314              	.LASF89:
 10315 052d 52454345 		.ascii	"RECEIVER_UpdatePreambleSize\000"
 10315      49564552 
 10315      5F557064 
 10315      61746550 
 10315      7265616D 
 10316              	.LASF49:
 10317 0549 4348414E 		.ascii	"CHANNEL_IsValidPreambleCode\000"
 10317      4E454C5F 
 10317      49735661 
 10317      6C696450 
 10317      7265616D 
 10318              	.LASF98:
 10319 0565 52454345 		.ascii	"RECEIVER_SetBitRate\000"
 10319      49564552 
 10319      5F536574 
 10319      42697452 
 10319      61746500 
 10320              	.LASF140:
 10321 0579 4952515F 		.ascii	"IRQ_GetState\000"
 10321      47657453 
 10321      74617465 
 10321      00
 10322              	.LASF64:
 10323 0586 68656164 		.ascii	"headerLen\000"
 10323      65724C65 
 10323      6E00
 10324              	.LASF17:
 10325 0590 6C6F6E67 		.ascii	"long double\000"
 10325      20646F75 
 10325      626C6500 
 10326              	.LASF14:
 10327 059c 75696E74 		.ascii	"uint16_t\000"
 10327      31365F74 
 10327      00
 10328              	.LASF101:
 10329 05a5 61676354 		.ascii	"agcTune1\000"
 10329      756E6531 
 10329      00
 10330              	.LASF37:
 10331 05ae 6368616E 		.ascii	"channel\000"
 10331      6E656C00 
ARM GAS  C:\Users\PIERRE~1\AppData\Local\Temp\ccqD7qlI.s 			page 210


 10332              	.LASF75:
 10333 05b6 74786374 		.ascii	"txctrl\000"
 10333      726C00
 10334              	.LASF139:
 10335 05bd 636F6E66 		.ascii	"config\000"
 10335      696700
 10336              	.LASF32:
 10337 05c4 5F353132 		.ascii	"_512\000"
 10337      00
 10338              	.LASF105:
 10339 05c9 73797343 		.ascii	"sysCfg\000"
 10339      666700
 10340              	.LASF56:
 10341 05d0 696E7432 		.ascii	"int2Bytes\000"
 10341      42797465 
 10341      7300
 10342              	.LASF2:
 10343 05da 73686F72 		.ascii	"short int\000"
 10343      7420696E 
 10343      7400
 10344              	.LASF36:
 10345 05e4 5F343039 		.ascii	"_4096\000"
 10345      3600
 10346              	.LASF7:
 10347 05ea 6C6F6E67 		.ascii	"long int\000"
 10347      20696E74 
 10347      00
 10348              	.LASF150:
 10349 05f3 49544D5F 		.ascii	"ITM_RxBuffer\000"
 10349      52784275 
 10349      66666572 
 10349      00
 10350              	.LASF46:
 10351 0600 7472616E 		.ascii	"transmitter\000"
 10351      736D6974 
 10351      74657200 
 10352              	.LASF114:
 10353 060c 44574D5F 		.ascii	"DWM_Reset\000"
 10353      52657365 
 10353      7400
 10354              	.LASF115:
 10355 0616 706D7363 		.ascii	"pmscCtrl0\000"
 10355      4374726C 
 10355      3000
 10356              	.LASF91:
 10357 0620 6472785F 		.ascii	"drx_tune4h\000"
 10357      74756E65 
 10357      346800
 10358              	.LASF128:
 10359 062b 52785F6D 		.ascii	"Rx_mask\000"
 10359      61736B00 
 10360              	.LASF31:
 10361 0633 5F323536 		.ascii	"_256\000"
 10361      00
 10362              	.LASF92:
 10363 0638 52454345 		.ascii	"RECEIVER_SetPreambleSize\000"
 10363      49564552 
ARM GAS  C:\Users\PIERRE~1\AppData\Local\Temp\ccqD7qlI.s 			page 211


 10363      5F536574 
 10363      50726561 
 10363      6D626C65 
 10364              	.LASF57:
 10365 0651 64617461 		.ascii	"dataInt\000"
 10365      496E7400 
 10366              	.LASF3:
 10367 0659 5F5F7569 		.ascii	"__uint8_t\000"
 10367      6E74385F 
 10367      7400
 10368              	.LASF40:
 10369 0663 62697452 		.ascii	"bitRate\000"
 10369      61746500 
 10370              	.LASF18:
 10371 066b 73697A65 		.ascii	"sizetype\000"
 10371      74797065 
 10371      00
 10372              	.LASF9:
 10373 0674 6C6F6E67 		.ascii	"long unsigned int\000"
 10373      20756E73 
 10373      69676E65 
 10373      6420696E 
 10373      7400
 10374              	.LASF61:
 10375 0686 61646472 		.ascii	"address\000"
 10375      65737300 
 10376              	.LASF135:
 10377 068e 44574D5F 		.ascii	"DWM_ReceiveData\000"
 10377      52656365 
 10377      69766544 
 10377      61746100 
 10378              	.LASF131:
 10379 069e 54784275 		.ascii	"TxBuf8\000"
 10379      663800
 10380              	.LASF15:
 10381 06a5 696E7433 		.ascii	"int32_t\000"
 10381      325F7400 
 10382              	.LASF41:
 10383 06ad 4368616E 		.ascii	"Channel\000"
 10383      6E656C00 
 10384              	.LASF103:
 10385 06b5 52454345 		.ascii	"RECEIVER_SetPrf\000"
 10385      49564552 
 10385      5F536574 
 10385      50726600 
 10386              	.LASF1:
 10387 06c5 756E7369 		.ascii	"unsigned char\000"
 10387      676E6564 
 10387      20636861 
 10387      7200
 10388              	.LASF113:
 10389 06d3 44574D5F 		.ascii	"DWM_SetChannel\000"
 10389      53657443 
 10389      68616E6E 
 10389      656C00
 10390              	.LASF8:
 10391 06e2 5F5F7569 		.ascii	"__uint32_t\000"
ARM GAS  C:\Users\PIERRE~1\AppData\Local\Temp\ccqD7qlI.s 			page 212


 10391      6E743332 
 10391      5F7400
 10392              	.LASF88:
 10393 06ed 74696D65 		.ascii	"timeout\000"
 10393      6F757400 
 10394              	.LASF111:
 10395 06f5 706C6C54 		.ascii	"pllTune\000"
 10395      756E6500 
 10396              	.LASF141:
 10397 06fd 4952515F 		.ascii	"IRQ_Disable\000"
 10397      44697361 
 10397      626C6500 
 10398              	.LASF97:
 10399 0709 64727854 		.ascii	"drxTune0b\000"
 10399      756E6530 
 10399      6200
 10400              	.LASF26:
 10401 0713 42495452 		.ascii	"BITRATE\000"
 10401      41544500 
 10402              	.LASF122:
 10403 071b 6C64655F 		.ascii	"lde_cfg1\000"
 10403      63666731 
 10403      00
 10404              	.LASF144:
 10405 0724 5350494D 		.ascii	"SPIM_ReadRxData\000"
 10405      5F526561 
 10405      64527844 
 10405      61746100 
 10406              	.LASF54:
 10407 0734 74617267 		.ascii	"targetByte\000"
 10407      65744279 
 10407      746500
 10408              	.LASF77:
 10409 073f 5452414E 		.ascii	"TRANSMITTER_UpdateBitrate\000"
 10409      534D4954 
 10409      5445525F 
 10409      55706461 
 10409      74654269 
 10410              	.LASF51:
 10411 0759 4348414E 		.ascii	"CHANNEL_IsValidPreambleSize\000"
 10411      4E454C5F 
 10411      49735661 
 10411      6C696450 
 10411      7265616D 
 10412              	.LASF0:
 10413 0775 7369676E 		.ascii	"signed char\000"
 10413      65642063 
 10413      68617200 
 10414              	.LASF94:
 10415 0781 72784374 		.ascii	"rxCtrl\000"
 10415      726C00
 10416              	.LASF109:
 10417 0788 52454345 		.ascii	"RECEIVER_Init\000"
 10417      49564552 
 10417      5F496E69 
 10417      7400
 10418              	.LASF5:
ARM GAS  C:\Users\PIERRE~1\AppData\Local\Temp\ccqD7qlI.s 			page 213


 10419 0796 73686F72 		.ascii	"short unsigned int\000"
 10419      7420756E 
 10419      7369676E 
 10419      65642069 
 10419      6E7400
 10420              	.LASF142:
 10421 07a9 5350494D 		.ascii	"SPIM_WriteTxData\000"
 10421      5F577269 
 10421      74655478 
 10421      44617461 
 10421      00
 10422              	.LASF76:
 10423 07ba 5452414E 		.ascii	"TRANSMITTER_SetChannel\000"
 10423      534D4954 
 10423      5445525F 
 10423      53657443 
 10423      68616E6E 
 10424              	.LASF100:
 10425 07d1 64727854 		.ascii	"drxTune1a\000"
 10425      756E6531 
 10425      6100
 10426              	.LASF120:
 10427 07db 64657669 		.ascii	"deviceID\000"
 10427      63654944 
 10427      00
 10428              	.LASF22:
 10429 07e4 75696E74 		.ascii	"uint8\000"
 10429      3800
 10430              	.LASF20:
 10431 07ea 646F7562 		.ascii	"double\000"
 10431      6C6500
 10432              	.LASF82:
 10433 07f1 5452414E 		.ascii	"TRANSMITTER_Init\000"
 10433      534D4954 
 10433      5445525F 
 10433      496E6974 
 10433      00
 10434              	.LASF118:
 10435 0802 44574D5F 		.ascii	"DWM_Init\000"
 10435      496E6974 
 10435      00
 10436              	.LASF102:
 10437 080b 6C646543 		.ascii	"ldeCfg2\000"
 10437      66673200 
 10438              	.LASF48:
 10439 0813 4348414E 		.ascii	"CHANNEL_ValidPreambleCode\000"
 10439      4E454C5F 
 10439      56616C69 
 10439      64507265 
 10439      616D626C 
 10440              	.LASF80:
 10441 082d 5452414E 		.ascii	"TRANSMITTER_SetPrf\000"
 10441      534D4954 
 10441      5445525F 
 10441      53657450 
 10441      726600
 10442              	.LASF145:
ARM GAS  C:\Users\PIERRE~1\AppData\Local\Temp\ccqD7qlI.s 			page 214


 10443 0840 4952515F 		.ascii	"IRQ_Enable\000"
 10443      456E6162 
 10443      6C6500
 10444              	.LASF137:
 10445 084b 666C656E 		.ascii	"flen\000"
 10445      00
 10446              	.LASF126:
 10447 0850 69646C65 		.ascii	"idle\000"
 10447      00
 10448              	.LASF104:
 10449 0855 52454345 		.ascii	"RECEIVER_UpdateFrameTimeoutDelay\000"
 10449      49564552 
 10449      5F557064 
 10449      61746546 
 10449      72616D65 
 10450              		.ident	"GCC: (GNU Tools for ARM Embedded Processors) 5.4.1 20160609 (release) [ARM/embedded-5-bran
