ARM GAS  C:\Users\PIERRE~1\AppData\Local\Temp\ccCMPfkd.s 			page 1


   1              		.syntax unified
   2              		.cpu cortex-m3
   3              		.fpu softvfp
   4              		.eabi_attribute 20, 1
   5              		.eabi_attribute 21, 1
   6              		.eabi_attribute 23, 3
   7              		.eabi_attribute 24, 1
   8              		.eabi_attribute 25, 1
   9              		.eabi_attribute 26, 1
  10              		.eabi_attribute 30, 1
  11              		.eabi_attribute 34, 1
  12              		.eabi_attribute 18, 4
  13              		.thumb
  14              		.syntax unified
  15              		.file	"main.c"
  16              		.text
  17              	.Ltext0:
  18              		.cfi_sections	.debug_frame
  19              		.section	.text.freeRTOSInit,"ax",%progbits
  20              		.align	2
  21              		.thumb
  22              		.thumb_func
  23              		.type	freeRTOSInit, %function
  24              	freeRTOSInit:
  25              	.LFB70:
  26              		.file 1 "main.c"
   1:main.c        **** /* Includes ------------------------------------------------------------------*/
   2:main.c        **** 
   3:main.c        **** #include <project.h>
   4:main.c        **** 
   5:main.c        **** /* RTOS includes. */
   6:main.c        **** #include "FreeRTOS.h"
   7:main.c        **** #include "task.h"
   8:main.c        **** #include "queue.h"
   9:main.c        **** #include "timers.h"
  10:main.c        **** #include "semphr.h"
  11:main.c        **** 
  12:main.c        **** #include "main.h"
  13:main.c        **** #include "stdio.h"
  14:main.c        **** #include "dwm1000.h"
  15:main.c        **** #include <string.h>
  16:main.c        **** #include <inttypes.h>
  17:main.c        **** #include <math.h>
  18:main.c        **** 
  19:main.c        **** uint8_t prio_matrice[NUMBER_OF_ANCHOR+1][NUMBER_OF_ANCHOR+1] = {{10,-10,-10,-10},
  20:main.c        ****                                                                 {-10,10,-10,-10},
  21:main.c        ****                                                                 {-10,-10,10,-10},
  22:main.c        ****                                                                 {-10,-10,-10,10},
  23:main.c        ****                                                                 }; //each anchor + usb_out + usb_in
  24:main.c        **** #define ISR_PRIORITY                    (5u)
  25:main.c        **** #define INTERRUPT_PRIORITY              (6u)
  26:main.c        **** uint8_t prio1 = 20;
  27:main.c        **** uint8_t prio2 = 20;
  28:main.c        **** uint8_t prio3 = 20;
  29:main.c        **** uint8_t prio4 = 20;
  30:main.c        **** uint8_t usb_out_prio = 19;
  31:main.c        **** uint8_t usb_in_prio = 30;
ARM GAS  C:\Users\PIERRE~1\AppData\Local\Temp\ccCMPfkd.s 			page 2


  32:main.c        **** 
  33:main.c        **** uint16_t number_bytes_receive=0;
  34:main.c        **** uint8_t RxPhoneData[8];
  35:main.c        **** uint8_t TxPhoneData[63];
  36:main.c        **** uint64_t all_clock_time[12]={0};
  37:main.c        **** uint8_t found = 0;
  38:main.c        **** 
  39:main.c        **** // Boolean variables
  40:main.c        **** uint8_t TxOk = 0;
  41:main.c        **** static volatile uint8_t RxState = 0;
  42:main.c        **** 
  43:main.c        **** enum STATE state;
  44:main.c        **** 
  45:main.c        **** /* 		Tasks 		 */
  46:main.c        **** static void freeRTOSInit(void);
  47:main.c        **** static void state_machine_task(void *arg);
  48:main.c        **** static void interrupt_routine(void *arg);
  49:main.c        **** static void usb_out(void *arg);
  50:main.c        **** static void usb_in(void *arg);
  51:main.c        **** 
  52:main.c        **** /* 		Queues 		 */
  53:main.c        **** static xQueueHandle irq_queue = NULL;
  54:main.c        **** static xQueueHandle Rx_q = NULL;
  55:main.c        **** static xQueueHandle Tx_q = NULL;
  56:main.c        **** 
  57:main.c        **** /*      Tasks handle    */
  58:main.c        **** TaskHandle_t taskHandler1; 
  59:main.c        **** TaskHandle_t taskHandler2; 
  60:main.c        **** TaskHandle_t taskHandler3;
  61:main.c        **** TaskHandle_t taskHandler4;
  62:main.c        **** TaskHandle_t usbOutHandler;
  63:main.c        **** TaskHandle_t usbInHandler;
  64:main.c        **** 
  65:main.c        **** SemaphoreHandle_t semaphoreBuf1;
  66:main.c        **** 
  67:main.c        **** //fonction
  68:main.c        **** static void change_priorities(int slave);
  69:main.c        **** 
  70:main.c        **** /* Interrupt prototypes */
  71:main.c        **** CY_ISR_PROTO(ISR);
  72:main.c        **** CY_ISR(ISR){
  73:main.c        ****     IRQ_ClearPending();    /* Clear pending Interrupt */
  74:main.c        ****     pin_1_ClearInterrupt();    /* Clear pin Interrupt */
  75:main.c        **** 	uint32_t gpio_num = (uint32_t) ISR;
  76:main.c        ****     xQueueSendFromISR(irq_queue, (void *) &gpio_num, NULL);
  77:main.c        **** }
  78:main.c        ****     
  79:main.c        **** static void freeRTOSInit( void ){
  27              		.loc 1 79 0
  28              		.cfi_startproc
  29              		@ args = 0, pretend = 0, frame = 0
  30              		@ frame_needed = 0, uses_anonymous_args = 0
  31              		@ link register save eliminated.
  80:main.c        **** /* Port layer functions that need to be copied into the vector table. */
  81:main.c        **** extern void xPortPendSVHandler( void );
  82:main.c        **** extern void xPortSysTickHandler( void );
  83:main.c        **** extern void vPortSVCHandler( void );
ARM GAS  C:\Users\PIERRE~1\AppData\Local\Temp\ccCMPfkd.s 			page 3


  84:main.c        **** extern cyisraddress CyRamVectors[];
  85:main.c        **** 
  86:main.c        **** 	/* Install the OS Interrupt Handlers. */
  87:main.c        **** 	CyRamVectors[ 11 ] = ( cyisraddress ) vPortSVCHandler;
  32              		.loc 1 87 0
  33 0000 034B     		ldr	r3, .L2
  34 0002 044A     		ldr	r2, .L2+4
  35 0004 DA62     		str	r2, [r3, #44]
  88:main.c        **** 	CyRamVectors[ 14 ] = ( cyisraddress ) xPortPendSVHandler;
  36              		.loc 1 88 0
  37 0006 044A     		ldr	r2, .L2+8
  38 0008 9A63     		str	r2, [r3, #56]
  89:main.c        **** 	CyRamVectors[ 15 ] = ( cyisraddress ) xPortSysTickHandler;
  39              		.loc 1 89 0
  40 000a 044A     		ldr	r2, .L2+12
  41 000c DA63     		str	r2, [r3, #60]
  42 000e 7047     		bx	lr
  43              	.L3:
  44              		.align	2
  45              	.L2:
  46 0010 00000000 		.word	CyRamVectors
  47 0014 00000000 		.word	vPortSVCHandler
  48 0018 00000000 		.word	xPortPendSVHandler
  49 001c 00000000 		.word	xPortSysTickHandler
  50              		.cfi_endproc
  51              	.LFE70:
  52              		.size	freeRTOSInit, .-freeRTOSInit
  53              		.section	.text.ISR,"ax",%progbits
  54              		.align	2
  55              		.global	ISR
  56              		.thumb
  57              		.thumb_func
  58              		.type	ISR, %function
  59              	ISR:
  60              	.LFB69:
  72:main.c        ****     IRQ_ClearPending();    /* Clear pending Interrupt */
  61              		.loc 1 72 0
  62              		.cfi_startproc
  63              		@ args = 0, pretend = 0, frame = 8
  64              		@ frame_needed = 0, uses_anonymous_args = 0
  65 0000 00B5     		push	{lr}
  66              		.cfi_def_cfa_offset 4
  67              		.cfi_offset 14, -4
  68 0002 83B0     		sub	sp, sp, #12
  69              		.cfi_def_cfa_offset 16
  73:main.c        ****     pin_1_ClearInterrupt();    /* Clear pin Interrupt */
  70              		.loc 1 73 0
  71 0004 FFF7FEFF 		bl	IRQ_ClearPending
  72              	.LVL0:
  74:main.c        **** 	uint32_t gpio_num = (uint32_t) ISR;
  73              		.loc 1 74 0
  74 0008 FFF7FEFF 		bl	pin_1_ClearInterrupt
  75              	.LVL1:
  75:main.c        ****     xQueueSendFromISR(irq_queue, (void *) &gpio_num, NULL);
  76              		.loc 1 75 0
  77 000c 02A9     		add	r1, sp, #8
  78 000e 064B     		ldr	r3, .L6
ARM GAS  C:\Users\PIERRE~1\AppData\Local\Temp\ccCMPfkd.s 			page 4


  79 0010 41F8043D 		str	r3, [r1, #-4]!
  76:main.c        **** }
  80              		.loc 1 76 0
  81 0014 0023     		movs	r3, #0
  82 0016 1A46     		mov	r2, r3
  83 0018 0448     		ldr	r0, .L6+4
  84 001a 0068     		ldr	r0, [r0]
  85 001c FFF7FEFF 		bl	xQueueGenericSendFromISR
  86              	.LVL2:
  77:main.c        ****     
  87              		.loc 1 77 0
  88 0020 03B0     		add	sp, sp, #12
  89              		.cfi_def_cfa_offset 4
  90              		@ sp needed
  91 0022 5DF804FB 		ldr	pc, [sp], #4
  92              	.L7:
  93 0026 00BF     		.align	2
  94              	.L6:
  95 0028 00000000 		.word	ISR
  96 002c 00000000 		.word	.LANCHOR0
  97              		.cfi_endproc
  98              	.LFE69:
  99              		.size	ISR, .-ISR
 100              		.section	.text.change_priorities,"ax",%progbits
 101              		.align	2
 102              		.thumb
 103              		.thumb_func
 104              		.type	change_priorities, %function
 105              	change_priorities:
 106              	.LFB74:
  90:main.c        **** }
  91:main.c        **** 
  92:main.c        **** static void interrupt_routine(void *arg){	
  93:main.c        **** 
  94:main.c        ****     (void) arg;
  95:main.c        ****     uint32_t io_num;
  96:main.c        **** 
  97:main.c        ****     for (;;) 
  98:main.c        ****     {	
  99:main.c        ****         if (xQueueReceive(irq_queue, &io_num, 30)) {
 100:main.c        ****             uint8_t RxBuffer[4];
 101:main.c        **** 			uint32_t StatusRegister;
 102:main.c        **** 			uint8_t ack[4] = {0};
 103:main.c        **** 			DWM_ReadSPI_ext(SYS_STATUS, NO_SUB,  RxBuffer, 4);
 104:main.c        **** 			StatusRegister  = (RxBuffer[3] << 24) | (RxBuffer[2] << 16) | (RxBuffer[1] << 8) | RxBuffer[0];
 105:main.c        **** 			if (StatusRegister == 0xFFFFFFFF) {
 106:main.c        **** 				DWM_ReadSPI_ext(SYS_STATUS, NO_SUB,  RxBuffer, 4);
 107:main.c        **** 				StatusRegister  = (RxBuffer[3] << 24) | (RxBuffer[2] << 16) | (RxBuffer[1] << 8) | RxBuffer[0];
 108:main.c        **** 			}
 109:main.c        **** 			if (StatusRegister & TX_OK_MASK){
 110:main.c        **** 				TxOk = 1;
 111:main.c        **** 				xQueueSend(Tx_q,(void*) &TxOk,portMAX_DELAY);
 112:main.c        **** 				setBit(ack, 4, TX_OK_BIT, 1);
 113:main.c        **** 			}
 114:main.c        **** 			// check if RX finished
 115:main.c        **** 
 116:main.c        **** 			if ((StatusRegister & RX_FINISHED_MASK) == RX_FINISHED_MASK) {
ARM GAS  C:\Users\PIERRE~1\AppData\Local\Temp\ccCMPfkd.s 			page 5


 117:main.c        **** 				ack[0] |= RX_FINISHED_MASK;
 118:main.c        **** 				ack[1] |= RX_FINISHED_MASK >> 8;
 119:main.c        **** 				ack[2] |= RX_FINISHED_MASK >> 16;
 120:main.c        **** 				ack[3] |= RX_FINISHED_MASK >> 24;
 121:main.c        **** 				RxState = 1;
 122:main.c        **** 			}
 123:main.c        **** 			if (StatusRegister & RX_ERROR_MASK) {
 124:main.c        **** 				ack[0] |= RX_ERROR_MASK;
 125:main.c        **** 				ack[1] |= RX_ERROR_MASK >> 8;
 126:main.c        **** 				ack[2] |= RX_ERROR_MASK >> 16;
 127:main.c        **** 				ack[3] |= RX_ERROR_MASK >> 24;
 128:main.c        **** 				RxState = 2;
 129:main.c        **** 			}
 130:main.c        **** 			if(RxState == 1 || RxState == 2){
 131:main.c        ****                 xQueueSend(Rx_q,(void*) &RxState,portMAX_DELAY);
 132:main.c        ****             }
 133:main.c        **** 			DWM_WriteSPI_ext(SYS_STATUS ,NO_SUB, ack, 4);
 134:main.c        ****          }
 135:main.c        ****     }
 136:main.c        ****      vTaskDelete(NULL);
 137:main.c        **** }
 138:main.c        **** 
 139:main.c        **** static void usb_out(void *arg){
 140:main.c        **** 
 141:main.c        ****     (void) *arg;
 142:main.c        ****     for(;;){
 143:main.c        ****         for(int i=0;i<12;i++){                  // Preparation of data
 144:main.c        ****             TxPhoneData[5*i]=all_clock_time[i];       
 145:main.c        ****             TxPhoneData[5*i+1]=all_clock_time[i]>>8;       
 146:main.c        ****             TxPhoneData[5*i+2]=all_clock_time[i]>>16;       
 147:main.c        ****             TxPhoneData[5*i+3]=all_clock_time[i]>>24;       
 148:main.c        ****             TxPhoneData[5*i+4]=all_clock_time[i]>>32;
 149:main.c        ****             all_clock_time[i]=0;
 150:main.c        ****         }
 151:main.c        ****         USBP_LoadInEP(1,TxPhoneData,63);
 152:main.c        ****         change_priorities(-2);
 153:main.c        ****     }
 154:main.c        **** }
 155:main.c        **** 
 156:main.c        **** static void usb_in(void *arg){
 157:main.c        ****     (void) *arg;
 158:main.c        ****     for(;;){
 159:main.c        ****         USBP_EnableOutEP(2);
 160:main.c        ****         while(USBP_bGetEPAckState(2)==USBP_OUT_BUFFER_EMPTY)
 161:main.c        ****         number_bytes_receive=USBP_GetEPCount(2);
 162:main.c        ****         USBP_ReadOutEP(2,RxPhoneData,number_bytes_receive);
 163:main.c        ****         USBP_DisableOutEP(2);
 164:main.c        ****         if(RxPhoneData[0]==0x04 && RxPhoneData[1]==0x06){   //test connection
 165:main.c        ****             TxPhoneData[0]=0x02;
 166:main.c        ****             TxPhoneData[1]=0x03;
 167:main.c        ****             TxPhoneData[2]=0x46;
 168:main.c        ****             TxPhoneData[3]=0x37;
 169:main.c        ****             USBP_LoadInEP(1,TxPhoneData,4);
 170:main.c        ****         }else{
 171:main.c        ****             LED_1_Write(LIGHT_OFF);
 172:main.c        ****             LED_2_Write(LIGHT_OFF);
 173:main.c        ****             LED_3_Write(LIGHT_OFF);
ARM GAS  C:\Users\PIERRE~1\AppData\Local\Temp\ccCMPfkd.s 			page 6


 174:main.c        ****             LED_4_Write(LIGHT_OFF);
 175:main.c        ****             change_priorities(-1);
 176:main.c        ****         }
 177:main.c        ****     }
 178:main.c        **** }
 179:main.c        **** 
 180:main.c        **** static void change_priorities(int num){
 107              		.loc 1 180 0
 108              		.cfi_startproc
 109              		@ args = 0, pretend = 0, frame = 0
 110              		@ frame_needed = 0, uses_anonymous_args = 0
 111              	.LVL3:
 112 0000 38B5     		push	{r3, r4, r5, lr}
 113              		.cfi_def_cfa_offset 16
 114              		.cfi_offset 3, -16
 115              		.cfi_offset 4, -12
 116              		.cfi_offset 5, -8
 117              		.cfi_offset 14, -4
 118 0002 0446     		mov	r4, r0
 181:main.c        ****     taskENTER_CRITICAL();
 119              		.loc 1 181 0
 120 0004 FFF7FEFF 		bl	vPortEnterCritical
 121              	.LVL4:
 182:main.c        ****     if(num == -1){
 122              		.loc 1 182 0
 123 0008 B4F1FF3F 		cmp	r4, #-1
 124 000c 21D1     		bne	.L9
 183:main.c        ****         vTaskPrioritySet(taskHandler1, prio1);
 125              		.loc 1 183 0
 126 000e 2A4C     		ldr	r4, .L13
 127              	.LVL5:
 128 0010 2178     		ldrb	r1, [r4]	@ zero_extendqisi2
 129 0012 2A4B     		ldr	r3, .L13+4
 130 0014 1868     		ldr	r0, [r3]
 131 0016 FFF7FEFF 		bl	vTaskPrioritySet
 132              	.LVL6:
 184:main.c        ****         vTaskPrioritySet(taskHandler2, prio2);
 133              		.loc 1 184 0
 134 001a 6178     		ldrb	r1, [r4, #1]	@ zero_extendqisi2
 135 001c 284B     		ldr	r3, .L13+8
 136 001e 1868     		ldr	r0, [r3]
 137 0020 FFF7FEFF 		bl	vTaskPrioritySet
 138              	.LVL7:
 185:main.c        ****         vTaskPrioritySet(taskHandler3, prio3);
 139              		.loc 1 185 0
 140 0024 A178     		ldrb	r1, [r4, #2]	@ zero_extendqisi2
 141 0026 274B     		ldr	r3, .L13+12
 142 0028 1868     		ldr	r0, [r3]
 143 002a FFF7FEFF 		bl	vTaskPrioritySet
 144              	.LVL8:
 186:main.c        ****         if(NUMBER_OF_ANCHOR > 3){
 187:main.c        ****             vTaskPrioritySet(taskHandler4, prio4);
 188:main.c        ****         }
 189:main.c        ****         vTaskPrioritySet(usbOutHandler, usb_out_prio);
 145              		.loc 1 189 0
 146 002e 264D     		ldr	r5, .L13+16
 147 0030 E178     		ldrb	r1, [r4, #3]	@ zero_extendqisi2
ARM GAS  C:\Users\PIERRE~1\AppData\Local\Temp\ccCMPfkd.s 			page 7


 148 0032 2868     		ldr	r0, [r5]
 149 0034 FFF7FEFF 		bl	vTaskPrioritySet
 150              	.LVL9:
 190:main.c        ****         vTaskPrioritySet(usbInHandler, usb_out_prio - 1);
 151              		.loc 1 190 0
 152 0038 E178     		ldrb	r1, [r4, #3]	@ zero_extendqisi2
 153 003a 244C     		ldr	r4, .L13+20
 154 003c 0139     		subs	r1, r1, #1
 155 003e 2068     		ldr	r0, [r4]
 156 0040 FFF7FEFF 		bl	vTaskPrioritySet
 157              	.LVL10:
 191:main.c        ****         vTaskSuspend(usbOutHandler);
 158              		.loc 1 191 0
 159 0044 2868     		ldr	r0, [r5]
 160 0046 FFF7FEFF 		bl	vTaskSuspend
 161              	.LVL11:
 192:main.c        ****         vTaskSuspend(usbInHandler);
 162              		.loc 1 192 0
 163 004a 2068     		ldr	r0, [r4]
 164 004c FFF7FEFF 		bl	vTaskSuspend
 165              	.LVL12:
 166 0050 2EE0     		b	.L10
 167              	.LVL13:
 168              	.L9:
 193:main.c        ****     }else if(num == -2){
 169              		.loc 1 193 0
 170 0052 14F1020F 		cmn	r4, #2
 171 0056 0AD1     		bne	.L11
 194:main.c        ****         vTaskPrioritySet(usbInHandler, usb_out_prio + 30);
 172              		.loc 1 194 0
 173 0058 174B     		ldr	r3, .L13
 174 005a D978     		ldrb	r1, [r3, #3]	@ zero_extendqisi2
 175 005c 1B4C     		ldr	r4, .L13+20
 176              	.LVL14:
 177 005e 1E31     		adds	r1, r1, #30
 178 0060 2068     		ldr	r0, [r4]
 179 0062 FFF7FEFF 		bl	vTaskPrioritySet
 180              	.LVL15:
 195:main.c        ****         vTaskResume(usbInHandler);
 181              		.loc 1 195 0
 182 0066 2068     		ldr	r0, [r4]
 183 0068 FFF7FEFF 		bl	vTaskResume
 184              	.LVL16:
 185 006c 20E0     		b	.L10
 186              	.LVL17:
 187              	.L11:
 196:main.c        ****     }else{
 197:main.c        ****         vTaskPrioritySet(taskHandler1, uxTaskPriorityGet(taskHandler1)-prio_matrice[num][0]);
 188              		.loc 1 197 0
 189 006e 134B     		ldr	r3, .L13+4
 190 0070 1D68     		ldr	r5, [r3]
 191 0072 2846     		mov	r0, r5
 192 0074 FFF7FEFF 		bl	uxTaskPriorityGet
 193              	.LVL18:
 194 0078 0F4B     		ldr	r3, .L13
 195 007a 03EB8404 		add	r4, r3, r4, lsl #2
 196              	.LVL19:
ARM GAS  C:\Users\PIERRE~1\AppData\Local\Temp\ccCMPfkd.s 			page 8


 197 007e 2179     		ldrb	r1, [r4, #4]	@ zero_extendqisi2
 198 0080 411A     		subs	r1, r0, r1
 199 0082 2846     		mov	r0, r5
 200 0084 FFF7FEFF 		bl	vTaskPrioritySet
 201              	.LVL20:
 198:main.c        ****         vTaskPrioritySet(taskHandler2, uxTaskPriorityGet(taskHandler2)-prio_matrice[num][1]);
 202              		.loc 1 198 0
 203 0088 0D4B     		ldr	r3, .L13+8
 204 008a 1D68     		ldr	r5, [r3]
 205 008c 2846     		mov	r0, r5
 206 008e FFF7FEFF 		bl	uxTaskPriorityGet
 207              	.LVL21:
 208 0092 6179     		ldrb	r1, [r4, #5]	@ zero_extendqisi2
 209 0094 411A     		subs	r1, r0, r1
 210 0096 2846     		mov	r0, r5
 211 0098 FFF7FEFF 		bl	vTaskPrioritySet
 212              	.LVL22:
 199:main.c        ****         vTaskPrioritySet(taskHandler3, uxTaskPriorityGet(taskHandler3)-prio_matrice[num][2]);
 213              		.loc 1 199 0
 214 009c 094B     		ldr	r3, .L13+12
 215 009e 1D68     		ldr	r5, [r3]
 216 00a0 2846     		mov	r0, r5
 217 00a2 FFF7FEFF 		bl	uxTaskPriorityGet
 218              	.LVL23:
 219 00a6 A179     		ldrb	r1, [r4, #6]	@ zero_extendqisi2
 220 00a8 411A     		subs	r1, r0, r1
 221 00aa 2846     		mov	r0, r5
 222 00ac FFF7FEFF 		bl	vTaskPrioritySet
 223              	.LVL24:
 224              	.L10:
 200:main.c        ****         if(NUMBER_OF_ANCHOR > 3){
 201:main.c        ****             vTaskPrioritySet(taskHandler4, uxTaskPriorityGet(taskHandler4)-prio_matrice[num][3]);
 202:main.c        ****         }
 203:main.c        ****     }
 204:main.c        ****     taskEXIT_CRITICAL();
 225              		.loc 1 204 0
 226 00b0 FFF7FEFF 		bl	vPortExitCritical
 227              	.LVL25:
 228 00b4 38BD     		pop	{r3, r4, r5, pc}
 229              	.L14:
 230 00b6 00BF     		.align	2
 231              	.L13:
 232 00b8 00000000 		.word	.LANCHOR1
 233 00bc 00000000 		.word	taskHandler1
 234 00c0 00000000 		.word	taskHandler2
 235 00c4 00000000 		.word	taskHandler3
 236 00c8 00000000 		.word	usbOutHandler
 237 00cc 00000000 		.word	usbInHandler
 238              		.cfi_endproc
 239              	.LFE74:
 240              		.size	change_priorities, .-change_priorities
 241              		.section	.text.usb_in,"ax",%progbits
 242              		.align	2
 243              		.thumb
 244              		.thumb_func
 245              		.type	usb_in, %function
 246              	usb_in:
ARM GAS  C:\Users\PIERRE~1\AppData\Local\Temp\ccCMPfkd.s 			page 9


 247              	.LFB73:
 156:main.c        ****     (void) *arg;
 248              		.loc 1 156 0
 249              		.cfi_startproc
 250              		@ Volatile: function does not return.
 251              		@ args = 0, pretend = 0, frame = 0
 252              		@ frame_needed = 0, uses_anonymous_args = 0
 253              	.LVL26:
 254 0000 08B5     		push	{r3, lr}
 255              		.cfi_def_cfa_offset 8
 256              		.cfi_offset 3, -8
 257              		.cfi_offset 14, -4
 258              	.LVL27:
 259              	.L16:
 159:main.c        ****         while(USBP_bGetEPAckState(2)==USBP_OUT_BUFFER_EMPTY)
 260              		.loc 1 159 0
 261 0002 0220     		movs	r0, #2
 262 0004 FFF7FEFF 		bl	USBP_EnableOutEP
 263              	.LVL28:
 160:main.c        ****         number_bytes_receive=USBP_GetEPCount(2);
 264              		.loc 1 160 0
 265 0008 04E0     		b	.L17
 266              	.L18:
 161:main.c        ****         USBP_ReadOutEP(2,RxPhoneData,number_bytes_receive);
 267              		.loc 1 161 0
 268 000a 0220     		movs	r0, #2
 269 000c FFF7FEFF 		bl	USBP_GetEPCount
 270              	.LVL29:
 271 0010 1A4B     		ldr	r3, .L22
 272 0012 9880     		strh	r0, [r3, #4]	@ movhi
 273              	.L17:
 160:main.c        ****         number_bytes_receive=USBP_GetEPCount(2);
 274              		.loc 1 160 0
 275 0014 0220     		movs	r0, #2
 276 0016 FFF7FEFF 		bl	USBP_GetEPAckState
 277              	.LVL30:
 278 001a 0028     		cmp	r0, #0
 279 001c F5D0     		beq	.L18
 162:main.c        ****         USBP_DisableOutEP(2);
 280              		.loc 1 162 0
 281 001e 184C     		ldr	r4, .L22+4
 282 0020 164B     		ldr	r3, .L22
 283 0022 9A88     		ldrh	r2, [r3, #4]
 284 0024 2146     		mov	r1, r4
 285 0026 0220     		movs	r0, #2
 286 0028 FFF7FEFF 		bl	USBP_ReadOutEP
 287              	.LVL31:
 163:main.c        ****         if(RxPhoneData[0]==0x04 && RxPhoneData[1]==0x06){   //test connection
 288              		.loc 1 163 0
 289 002c 0220     		movs	r0, #2
 290 002e FFF7FEFF 		bl	USBP_DisableOutEP
 291              	.LVL32:
 164:main.c        ****             TxPhoneData[0]=0x02;
 292              		.loc 1 164 0
 293 0032 2378     		ldrb	r3, [r4]	@ zero_extendqisi2
 294 0034 042B     		cmp	r3, #4
 295 0036 10D1     		bne	.L19
ARM GAS  C:\Users\PIERRE~1\AppData\Local\Temp\ccCMPfkd.s 			page 10


 164:main.c        ****             TxPhoneData[0]=0x02;
 296              		.loc 1 164 0 is_stmt 0 discriminator 1
 297 0038 6378     		ldrb	r3, [r4, #1]	@ zero_extendqisi2
 298 003a 062B     		cmp	r3, #6
 299 003c 0DD1     		bne	.L19
 165:main.c        ****             TxPhoneData[1]=0x03;
 300              		.loc 1 165 0 is_stmt 1
 301 003e 1149     		ldr	r1, .L22+8
 302 0040 0223     		movs	r3, #2
 303 0042 0B70     		strb	r3, [r1]
 166:main.c        ****             TxPhoneData[2]=0x46;
 304              		.loc 1 166 0
 305 0044 0323     		movs	r3, #3
 306 0046 4B70     		strb	r3, [r1, #1]
 167:main.c        ****             TxPhoneData[3]=0x37;
 307              		.loc 1 167 0
 308 0048 4623     		movs	r3, #70
 309 004a 8B70     		strb	r3, [r1, #2]
 168:main.c        ****             USBP_LoadInEP(1,TxPhoneData,4);
 310              		.loc 1 168 0
 311 004c 3723     		movs	r3, #55
 312 004e CB70     		strb	r3, [r1, #3]
 169:main.c        ****         }else{
 313              		.loc 1 169 0
 314 0050 0422     		movs	r2, #4
 315 0052 0120     		movs	r0, #1
 316 0054 FFF7FEFF 		bl	USBP_LoadInEP
 317              	.LVL33:
 318 0058 D3E7     		b	.L16
 319              	.L19:
 171:main.c        ****             LED_2_Write(LIGHT_OFF);
 320              		.loc 1 171 0
 321 005a 0020     		movs	r0, #0
 322 005c FFF7FEFF 		bl	LED_1_Write
 323              	.LVL34:
 172:main.c        ****             LED_3_Write(LIGHT_OFF);
 324              		.loc 1 172 0
 325 0060 0020     		movs	r0, #0
 326 0062 FFF7FEFF 		bl	LED_2_Write
 327              	.LVL35:
 173:main.c        ****             LED_4_Write(LIGHT_OFF);
 328              		.loc 1 173 0
 329 0066 0020     		movs	r0, #0
 330 0068 FFF7FEFF 		bl	LED_3_Write
 331              	.LVL36:
 174:main.c        ****             change_priorities(-1);
 332              		.loc 1 174 0
 333 006c 0020     		movs	r0, #0
 334 006e FFF7FEFF 		bl	LED_4_Write
 335              	.LVL37:
 175:main.c        ****         }
 336              		.loc 1 175 0
 337 0072 4FF0FF30 		mov	r0, #-1
 338 0076 FFF7FEFF 		bl	change_priorities
 339              	.LVL38:
 340 007a C2E7     		b	.L16
 341              	.L23:
ARM GAS  C:\Users\PIERRE~1\AppData\Local\Temp\ccCMPfkd.s 			page 11


 342              		.align	2
 343              	.L22:
 344 007c 00000000 		.word	.LANCHOR0
 345 0080 00000000 		.word	RxPhoneData
 346 0084 00000000 		.word	TxPhoneData
 347              		.cfi_endproc
 348              	.LFE73:
 349              		.size	usb_in, .-usb_in
 350              		.section	.text.usb_out,"ax",%progbits
 351              		.align	2
 352              		.thumb
 353              		.thumb_func
 354              		.type	usb_out, %function
 355              	usb_out:
 356              	.LFB72:
 139:main.c        **** 
 357              		.loc 1 139 0
 358              		.cfi_startproc
 359              		@ args = 0, pretend = 0, frame = 0
 360              		@ frame_needed = 0, uses_anonymous_args = 0
 361              	.LVL39:
 362 0000 F8B5     		push	{r3, r4, r5, r6, r7, lr}
 363              		.cfi_def_cfa_offset 24
 364              		.cfi_offset 3, -24
 365              		.cfi_offset 4, -20
 366              		.cfi_offset 5, -16
 367              		.cfi_offset 6, -12
 368              		.cfi_offset 7, -8
 369              		.cfi_offset 14, -4
 370              	.LVL40:
 371              	.L27:
 372              	.LBB2:
 143:main.c        ****             TxPhoneData[5*i]=all_clock_time[i];       
 373              		.loc 1 143 0
 374 0002 0021     		movs	r1, #0
 375 0004 18E0     		b	.L25
 376              	.LVL41:
 377              	.L26:
 144:main.c        ****             TxPhoneData[5*i+1]=all_clock_time[i]>>8;       
 378              		.loc 1 144 0 discriminator 3
 379 0006 01EB8103 		add	r3, r1, r1, lsl #2
 380 000a 1148     		ldr	r0, .L29
 381 000c 00EBC100 		add	r0, r0, r1, lsl #3
 382 0010 8268     		ldr	r2, [r0, #8]
 383 0012 C568     		ldr	r5, [r0, #12]
 384 0014 0F4C     		ldr	r4, .L29+4
 385 0016 E254     		strb	r2, [r4, r3]
 145:main.c        ****             TxPhoneData[5*i+2]=all_clock_time[i]>>16;       
 386              		.loc 1 145 0 discriminator 3
 387 0018 5E1C     		adds	r6, r3, #1
 388 001a 170A     		lsrs	r7, r2, #8
 389 001c A755     		strb	r7, [r4, r6]
 146:main.c        ****             TxPhoneData[5*i+3]=all_clock_time[i]>>24;       
 390              		.loc 1 146 0 discriminator 3
 391 001e 9E1C     		adds	r6, r3, #2
 392 0020 170C     		lsrs	r7, r2, #16
 393 0022 A755     		strb	r7, [r4, r6]
ARM GAS  C:\Users\PIERRE~1\AppData\Local\Temp\ccCMPfkd.s 			page 12


 147:main.c        ****             TxPhoneData[5*i+4]=all_clock_time[i]>>32;
 394              		.loc 1 147 0 discriminator 3
 395 0024 DE1C     		adds	r6, r3, #3
 396 0026 120E     		lsrs	r2, r2, #24
 397 0028 A255     		strb	r2, [r4, r6]
 148:main.c        ****             all_clock_time[i]=0;
 398              		.loc 1 148 0 discriminator 3
 399 002a 0433     		adds	r3, r3, #4
 400 002c E554     		strb	r5, [r4, r3]
 149:main.c        ****         }
 401              		.loc 1 149 0 discriminator 3
 402 002e 0022     		movs	r2, #0
 403 0030 0023     		movs	r3, #0
 404 0032 C0E90223 		strd	r2, [r0, #8]
 143:main.c        ****             TxPhoneData[5*i]=all_clock_time[i];       
 405              		.loc 1 143 0 discriminator 3
 406 0036 0131     		adds	r1, r1, #1
 407              	.LVL42:
 408              	.L25:
 143:main.c        ****             TxPhoneData[5*i]=all_clock_time[i];       
 409              		.loc 1 143 0 is_stmt 0 discriminator 1
 410 0038 0B29     		cmp	r1, #11
 411 003a E4DD     		ble	.L26
 412              	.LBE2:
 151:main.c        ****         change_priorities(-2);
 413              		.loc 1 151 0 is_stmt 1
 414 003c 3F22     		movs	r2, #63
 415 003e 0549     		ldr	r1, .L29+4
 416              	.LVL43:
 417 0040 0120     		movs	r0, #1
 418 0042 FFF7FEFF 		bl	USBP_LoadInEP
 419              	.LVL44:
 152:main.c        ****     }
 420              		.loc 1 152 0
 421 0046 6FF00100 		mvn	r0, #1
 422 004a FFF7FEFF 		bl	change_priorities
 423              	.LVL45:
 153:main.c        **** }
 424              		.loc 1 153 0
 425 004e D8E7     		b	.L27
 426              	.L30:
 427              		.align	2
 428              	.L29:
 429 0050 00000000 		.word	.LANCHOR0
 430 0054 00000000 		.word	TxPhoneData
 431              		.cfi_endproc
 432              	.LFE72:
 433              		.size	usb_out, .-usb_out
 434              		.section	.text.state_machine_task,"ax",%progbits
 435              		.align	2
 436              		.thumb
 437              		.thumb_func
 438              		.type	state_machine_task, %function
 439              	state_machine_task:
 440              	.LFB76:
 205:main.c        **** }
 206:main.c        **** 
ARM GAS  C:\Users\PIERRE~1\AppData\Local\Temp\ccCMPfkd.s 			page 13


 207:main.c        **** int main(void){
 208:main.c        **** 	LED_1_Write(LIGHT_OFF);
 209:main.c        ****     LED_2_Write(LIGHT_OFF);
 210:main.c        ****     LED_3_Write(LIGHT_OFF);
 211:main.c        ****     LED_4_Write(LIGHT_OFF);
 212:main.c        ****     
 213:main.c        ****     //temp to accomodate smartphone's software
 214:main.c        ****     TxPhoneData[60]=1;
 215:main.c        ****     TxPhoneData[61]=2;
 216:main.c        ****     TxPhoneData[62]=3;
 217:main.c        ****     
 218:main.c        ****     CyGlobalIntEnable;
 219:main.c        ****     
 220:main.c        ****     USBP_Start(0, USBP_DWR_VDDD_OPERATION);
 221:main.c        ****     
 222:main.c        ****     freeRTOSInit();
 223:main.c        ****     Timer_1_Start();
 224:main.c        ****     
 225:main.c        ****     /* initialisation of the DecaWave */
 226:main.c        ****     SPIM_Start();
 227:main.c        **** 	CyDelay(10u); //time for the DW to go from Wakeup to init and then IDLE
 228:main.c        **** 	DWM_Init();
 229:main.c        ****     
 230:main.c        ****     /* Sets up the GPIO interrupt and enables it */
 231:main.c        ****     IRQ_StartEx(ISR);
 232:main.c        ****     IRQ_SetPriority(ISR_PRIORITY);
 233:main.c        ****     while(!USBP_bGetConfiguration());
 234:main.c        ****     //initialize tasks (one for each slave + usb_out, usb_in)
 235:main.c        ****     irq_queue = xQueueCreate(10, sizeof(uint32_t));
 236:main.c        ****     Rx_q = xQueueCreate(1, sizeof(uint8_t));
 237:main.c        ****     Tx_q = xQueueCreate(1, sizeof(uint8_t));
 238:main.c        ****     semaphoreBuf1 = xSemaphoreCreateMutex();
 239:main.c        ****     xTaskCreate(interrupt_routine, "interrupt_routine",1024, NULL, INTERRUPT_PRIORITY, NULL);
 240:main.c        ****     int slaveNummer = 1;
 241:main.c        ****     xTaskCreate(state_machine_task,"slave_1", 1024, (void*) slaveNummer, 1, &taskHandler1);
 242:main.c        ****     slaveNummer = 2;
 243:main.c        ****     xTaskCreate(state_machine_task,"slave_2", 1024, (void*) slaveNummer, 1, &taskHandler2);
 244:main.c        ****     slaveNummer = 3;
 245:main.c        ****     xTaskCreate(state_machine_task,"slave_3", 1024, (void*) slaveNummer, 1, &taskHandler3);
 246:main.c        ****     xTaskCreate(usb_out, "usb_out", 1024, NULL, usb_out_prio, &usbOutHandler);
 247:main.c        ****     xTaskCreate(usb_in, "usb_in", 1024, NULL, usb_in_prio, &usbInHandler);
 248:main.c        ****     vTaskStartScheduler();
 249:main.c        ****     for(;;){
 250:main.c        ****     }
 251:main.c        **** }
 252:main.c        ****     
 253:main.c        **** static void state_machine_task(void *arg){	
 441              		.loc 1 253 0
 442              		.cfi_startproc
 443              		@ args = 0, pretend = 0, frame = 312
 444              		@ frame_needed = 0, uses_anonymous_args = 0
 445              	.LVL46:
 446 0000 2DE9F04F 		push	{r4, r5, r6, r7, r8, r9, r10, fp, lr}
 447              		.cfi_def_cfa_offset 36
 448              		.cfi_offset 4, -36
 449              		.cfi_offset 5, -32
 450              		.cfi_offset 6, -28
ARM GAS  C:\Users\PIERRE~1\AppData\Local\Temp\ccCMPfkd.s 			page 14


 451              		.cfi_offset 7, -24
 452              		.cfi_offset 8, -20
 453              		.cfi_offset 9, -16
 454              		.cfi_offset 10, -12
 455              		.cfi_offset 11, -8
 456              		.cfi_offset 14, -4
 457 0004 CFB0     		sub	sp, sp, #316
 458              		.cfi_def_cfa_offset 352
 254:main.c        **** 	uint8_t slaveNummer = (uint8_t) arg;
 459              		.loc 1 254 0
 460 0006 C4B2     		uxtb	r4, r0
 461              	.LVL47:
 255:main.c        ****     uint8_t master_first_message = 0x10 | slaveNummer;
 462              		.loc 1 255 0
 463 0008 44F01005 		orr	r5, r4, #16
 464              	.LVL48:
 256:main.c        ****     uint8_t master_second_message	= 0x20 | slaveNummer;
 465              		.loc 1 256 0
 466 000c 44F02003 		orr	r3, r4, #32
 467 0010 0C93     		str	r3, [sp, #48]
 468              	.LVL49:
 469 0012 0D94     		str	r4, [sp, #52]
 257:main.c        ****     uint8_t slave_standard_message	= 0x0A | slaveNummer<<4;
 470              		.loc 1 257 0
 471 0014 0301     		lsls	r3, r0, #4
 472 0016 03F47F63 		and	r3, r3, #4080
 473 001a 43F00A03 		orr	r3, r3, #10
 474 001e DBB2     		uxtb	r3, r3
 475 0020 1A93     		str	r3, [sp, #104]
 476              	.LVL50:
 258:main.c        ****     uint32_t RxFlag,TxFlag;
 259:main.c        ****     uint8_t RxData[15], TxData[128];
 260:main.c        ****     uint64_t t1, t2, t3, t4, t5, t6;
 261:main.c        ****     uint8_t t1_8[5], t2_8[5], t3_8[5], t4_8[5], t5_8[5], t6_8[5];
 262:main.c        ****     uint64_t TroundMaster, TreplySlave, TroundSlave, TreplyMaster;
 263:main.c        ****     uint8_t done = 0;
 264:main.c        ****     state = STATE_INIT;
 477              		.loc 1 264 0
 478 0022 0022     		movs	r2, #0
 479 0024 AB4B     		ldr	r3, .L71
 480 0026 1A70     		strb	r2, [r3]
 481              	.LVL51:
 482              	.L32:
 265:main.c        **** 	for(;;){
 266:main.c        ****         if(xSemaphoreTake(semaphoreBuf1, 32) == pdPASS){
 483              		.loc 1 266 0
 484 0028 2021     		movs	r1, #32
 485 002a AB4B     		ldr	r3, .L71+4
 486 002c 1868     		ldr	r0, [r3]
 487 002e FFF7FEFF 		bl	xQueueSemaphoreTake
 488              	.LVL52:
 489 0032 0128     		cmp	r0, #1
 490 0034 F8D1     		bne	.L32
 267:main.c        ****             vTaskPrioritySet(NULL, uxTaskPriorityGet(NULL)+1);
 491              		.loc 1 267 0
 492 0036 0020     		movs	r0, #0
 493 0038 FFF7FEFF 		bl	uxTaskPriorityGet
ARM GAS  C:\Users\PIERRE~1\AppData\Local\Temp\ccCMPfkd.s 			page 15


 494              	.LVL53:
 495 003c 411C     		adds	r1, r0, #1
 496 003e 0020     		movs	r0, #0
 497 0040 FFF7FEFF 		bl	vTaskPrioritySet
 498              	.LVL54:
 268:main.c        ****             if(slaveNummer == 1){
 499              		.loc 1 268 0
 500 0044 012C     		cmp	r4, #1
 501 0046 09D1     		bne	.L33
 269:main.c        ****                 vTaskSuspend(taskHandler2);
 502              		.loc 1 269 0
 503 0048 A44B     		ldr	r3, .L71+8
 504 004a 1868     		ldr	r0, [r3]
 505 004c FFF7FEFF 		bl	vTaskSuspend
 506              	.LVL55:
 270:main.c        ****                 vTaskSuspend(taskHandler3);
 507              		.loc 1 270 0
 508 0050 A34B     		ldr	r3, .L71+12
 509 0052 1868     		ldr	r0, [r3]
 510 0054 FFF7FEFF 		bl	vTaskSuspend
 511              	.LVL56:
 512              	.L36:
 271:main.c        ****             }else if(slaveNummer == 2){
 272:main.c        ****                 vTaskSuspend(taskHandler1);
 273:main.c        ****                 vTaskSuspend(taskHandler3);
 274:main.c        ****             }else if(slaveNummer == 3){
 275:main.c        ****                 vTaskSuspend(taskHandler1);
 276:main.c        ****                 vTaskSuspend(taskHandler2);
 277:main.c        ****             }
 278:main.c        ****             done = 0;
 279:main.c        ****             while(done == 0){
 280:main.c        ****                 switch(state){
 281:main.c        ****         			case STATE_INIT :
 282:main.c        ****                         idle();
 283:main.c        ****         				TxOk = 0;
 284:main.c        ****                         TxOk = 0;
 285:main.c        ****                         RxState = 0;
 286:main.c        ****                         RxFlag=0;
 287:main.c        ****         		        TxFlag=0;
 288:main.c        ****                         xQueueReset(Rx_q);
 289:main.c        ****         		        xQueueReset(Tx_q);
 290:main.c        ****                         TxData[0] = master_first_message;
 291:main.c        ****                         DWM_SendData(TxData,1,1);
 292:main.c        ****         				state = STATE_WAIT_FIRST_SEND;
 293:main.c        ****         			break;
 294:main.c        ****                             
 295:main.c        ****         			case STATE_WAIT_FIRST_SEND :
 296:main.c        ****                         if (xQueueReceive(Tx_q,&TxFlag,portMAX_DELAY)){
 297:main.c        ****         					DWM_ReadSPI_ext(TX_TIME, NO_SUB, t1_8, 5);//get tx time (T1)
 298:main.c        ****         					TxFlag = 0;
 299:main.c        ****                             TxOk = 0;
 300:main.c        ****                             idle();
 301:main.c        ****                             DWM_Enable_Rx();
 302:main.c        ****                             state = STATE_WAIT_RESPONSE;
 303:main.c        ****         				}
 304:main.c        ****         			break;
 305:main.c        ****                             
ARM GAS  C:\Users\PIERRE~1\AppData\Local\Temp\ccCMPfkd.s 			page 16


 306:main.c        ****         			case STATE_WAIT_RESPONSE:
 307:main.c        ****                         if(xQueueReceive(Rx_q,&RxFlag,32) == pdPASS ){
 308:main.c        ****                             if (RxFlag == 2){
 309:main.c        ****         				        DWM_Reset_Rx();
 310:main.c        ****         				        state = STATE_INIT;
 311:main.c        ****         			        } else if (RxFlag == 1){
 312:main.c        ****         					    DWM_ReceiveData(RxData); 	// Read Rx buffer
 313:main.c        ****         					    if (RxData[0] == slave_standard_message){   // Check RxFrame
 314:main.c        ****                                 DWM_ReadSPI_ext(RX_TIME,NO_SUB, t4_8,5);// get T4
 315:main.c        ****         						state = STATE_SECOND_SEND;
 316:main.c        ****         						}else{
 317:main.c        ****                                     state = STATE_INIT;
 318:main.c        ****         						}
 319:main.c        ****         						RxFlag = 0;
 320:main.c        ****                                 RxState = 0;
 321:main.c        ****                             }
 322:main.c        ****         				}else{
 323:main.c        ****                             state = STATE_INIT;
 324:main.c        ****                             xSemaphoreGive(semaphoreBuf1);
 325:main.c        ****                             vTaskPrioritySet(NULL, uxTaskPriorityGet(NULL)-2);
 326:main.c        ****                             if(slaveNummer == 1){
 327:main.c        ****                                 vTaskResume(taskHandler2);
 328:main.c        ****                                 vTaskResume(taskHandler3);
 329:main.c        ****                             }else if(slaveNummer == 2){
 330:main.c        ****                                 vTaskResume(taskHandler1);
 331:main.c        ****                                 vTaskResume(taskHandler3);
 332:main.c        ****                             }else if(slaveNummer == 3){
 333:main.c        ****                                 vTaskResume(taskHandler1);
 334:main.c        ****                                 vTaskResume(taskHandler2);
 335:main.c        ****                             }
 336:main.c        ****                         }
 337:main.c        ****         			break;
 338:main.c        ****                             
 339:main.c        ****         			case STATE_SECOND_SEND:	
 340:main.c        ****                         idle();
 341:main.c        ****         				TxData[0] = master_second_message;
 342:main.c        ****         				DWM_SendData(TxData, 1, 1);
 343:main.c        ****         				state = STATE_WAIT_SECOND_SEND;
 344:main.c        ****         			break;
 345:main.c        ****                             
 346:main.c        ****         			case STATE_WAIT_SECOND_SEND:
 347:main.c        ****                         if (xQueueReceive(Tx_q,&TxFlag,portMAX_DELAY)){
 348:main.c        ****         						DWM_ReadSPI_ext(TX_TIME, NO_SUB, t5_8, 5);	//get tx time (T5)
 349:main.c        ****                                 TxFlag =0;
 350:main.c        ****                                 TxOk = 0;
 351:main.c        ****                                 idle();
 352:main.c        ****                                 DWM_Enable_Rx();
 353:main.c        ****                                 state = STATE_GET_TIMES;
 354:main.c        ****         				}
 355:main.c        ****         			break;
 356:main.c        ****                             
 357:main.c        ****         			case STATE_GET_TIMES :
 358:main.c        ****                         if(xQueueReceive(Rx_q,&RxFlag,32) == pdPASS ){
 359:main.c        ****                             if (RxFlag == 2){
 360:main.c        ****             					DWM_Reset_Rx();
 361:main.c        ****             					state = STATE_INIT;
 362:main.c        ****             				} else if (RxFlag == 1){
ARM GAS  C:\Users\PIERRE~1\AppData\Local\Temp\ccCMPfkd.s 			page 17


 363:main.c        ****         						DWM_ReceiveData(RxData);	//Read Rx Buffer
 364:main.c        ****         						for (int i=0;i<5;i++){
 365:main.c        ****         							t2_8[i] = RxData[i];
 366:main.c        ****         							t3_8[i] = RxData[i+5];
 367:main.c        ****         							t6_8[i] = RxData[i+10];
 368:main.c        ****         						}
 369:main.c        ****                                
 370:main.c        ****         						// Cast all times to uint64
 371:main.c        ****         						t1 = t2 = t3 = t4 = t5 = t6 = 0;
 372:main.c        ****         						for (int i=0;i<5;i++){
 373:main.c        ****         							t1 = (t1 << 8) | t1_8[4-i];
 374:main.c        ****         							t2 = (t2 << 8) | t2_8[4-i];
 375:main.c        ****         							t3 = (t3 << 8) | t3_8[4-i];
 376:main.c        ****         							t4 = (t4 << 8) | t4_8[4-i];
 377:main.c        ****         							t5 = (t5 << 8) | t5_8[4-i];
 378:main.c        ****         							t6 = (t6 << 8) | t6_8[4-i];
 379:main.c        ****         						}
 380:main.c        ****         						if (t6 < t2 || t5 < t1){
 381:main.c        ****         							state = STATE_INIT;
 382:main.c        ****         						}
 383:main.c        ****         						else{
 384:main.c        ****         							state = STATE_END;
 385:main.c        ****         							
 386:main.c        ****         						}
 387:main.c        ****                             }
 388:main.c        ****                             RxFlag = 0;
 389:main.c        ****                             RxState = 0;
 390:main.c        ****         				}else{
 391:main.c        ****                             state = STATE_INIT;
 392:main.c        ****                         }
 393:main.c        ****         			break;
 394:main.c        ****         			
 395:main.c        ****         			case STATE_END :
 396:main.c        ****                         idle();
 397:main.c        ****                         TroundMaster = (t4-t1);         //Time calculation
 398:main.c        ****         				TreplySlave = (t3-t2);
 399:main.c        ****         				TroundSlave = (t6-t3);
 400:main.c        ****         				TreplyMaster = (t5-t4);
 401:main.c        ****                         all_clock_time[4*found] = TroundMaster;
 402:main.c        ****                         all_clock_time[4*found+1] = TroundSlave;
 403:main.c        ****                         all_clock_time[4*found+2] = TreplyMaster;
 404:main.c        ****                         all_clock_time[4*found+3] = TreplySlave;
 405:main.c        ****                         found =found+1;
 406:main.c        ****                         state = STATE_INIT;
 407:main.c        ****                         if(found == 1){
 408:main.c        ****                             TxPhoneData[60] = slaveNummer;
 409:main.c        ****                             LED_1_Write(LIGHT_ON);
 410:main.c        ****                         }else if(found == 2){
 411:main.c        ****                             TxPhoneData[61] = slaveNummer;
 412:main.c        ****                             LED_2_Write(LIGHT_ON);
 413:main.c        ****                         }else if(found == 3){
 414:main.c        ****                             found = 0;
 415:main.c        ****                             TxPhoneData[62] = slaveNummer;
 416:main.c        ****                             LED_3_Write(LIGHT_ON);
 417:main.c        ****                             done = 1;
 418:main.c        ****                             xSemaphoreGive(semaphoreBuf1);
 419:main.c        ****                             change_priorities(slaveNummer-1);
ARM GAS  C:\Users\PIERRE~1\AppData\Local\Temp\ccCMPfkd.s 			page 18


 420:main.c        ****                             vTaskResume(usbOutHandler);
 421:main.c        ****                             break;
 422:main.c        ****                         }
 423:main.c        ****                         done = 1;
 513              		.loc 1 423 0
 514 0058 0026     		movs	r6, #0
 515 005a 7BE2     		b	.L37
 516              	.L33:
 271:main.c        ****             }else if(slaveNummer == 2){
 517              		.loc 1 271 0
 518 005c 022C     		cmp	r4, #2
 519 005e 08D1     		bne	.L35
 272:main.c        ****                 vTaskSuspend(taskHandler3);
 520              		.loc 1 272 0
 521 0060 A04B     		ldr	r3, .L71+16
 522 0062 1868     		ldr	r0, [r3]
 523 0064 FFF7FEFF 		bl	vTaskSuspend
 524              	.LVL57:
 273:main.c        ****             }else if(slaveNummer == 3){
 525              		.loc 1 273 0
 526 0068 9D4B     		ldr	r3, .L71+12
 527 006a 1868     		ldr	r0, [r3]
 528 006c FFF7FEFF 		bl	vTaskSuspend
 529              	.LVL58:
 530 0070 F2E7     		b	.L36
 531              	.L35:
 274:main.c        ****                 vTaskSuspend(taskHandler1);
 532              		.loc 1 274 0
 533 0072 032C     		cmp	r4, #3
 534 0074 F0D1     		bne	.L36
 275:main.c        ****                 vTaskSuspend(taskHandler2);
 535              		.loc 1 275 0
 536 0076 9B4B     		ldr	r3, .L71+16
 537 0078 1868     		ldr	r0, [r3]
 538 007a FFF7FEFF 		bl	vTaskSuspend
 539              	.LVL59:
 276:main.c        ****             }
 540              		.loc 1 276 0
 541 007e 974B     		ldr	r3, .L71+8
 542 0080 1868     		ldr	r0, [r3]
 543 0082 FFF7FEFF 		bl	vTaskSuspend
 544              	.LVL60:
 545 0086 E7E7     		b	.L36
 546              	.LVL61:
 547              	.L68:
 280:main.c        ****         			case STATE_INIT :
 548              		.loc 1 280 0
 549 0088 924B     		ldr	r3, .L71
 550 008a 1B78     		ldrb	r3, [r3]	@ zero_extendqisi2
 551 008c 062B     		cmp	r3, #6
 552 008e 00F26182 		bhi	.L37
 553 0092 DFE813F0 		tbh	[pc, r3, lsl #1]
 554              	.L39:
 555 0096 0700     		.2byte	(.L38-.L39)/2
 556 0098 2700     		.2byte	(.L40-.L39)/2
 557 009a 4500     		.2byte	(.L41-.L39)/2
 558 009c A800     		.2byte	(.L42-.L39)/2
ARM GAS  C:\Users\PIERRE~1\AppData\Local\Temp\ccCMPfkd.s 			page 19


 559 009e B700     		.2byte	(.L43-.L39)/2
 560 00a0 D500     		.2byte	(.L44-.L39)/2
 561 00a2 C301     		.2byte	(.L45-.L39)/2
 562              		.p2align 1
 563              	.L38:
 282:main.c        ****         				TxOk = 0;
 564              		.loc 1 282 0
 565 00a4 FFF7FEFF 		bl	idle
 566              	.LVL62:
 283:main.c        ****                         TxOk = 0;
 567              		.loc 1 283 0
 568 00a8 DFF83C82 		ldr	r8, .L71+20
 569 00ac 0027     		movs	r7, #0
 570 00ae 88F86870 		strb	r7, [r8, #104]
 285:main.c        ****                         RxFlag=0;
 571              		.loc 1 285 0
 572 00b2 88F86970 		strb	r7, [r8, #105]
 286:main.c        ****         		        TxFlag=0;
 573              		.loc 1 286 0
 574 00b6 4D97     		str	r7, [sp, #308]
 287:main.c        ****                         xQueueReset(Rx_q);
 575              		.loc 1 287 0
 576 00b8 4C97     		str	r7, [sp, #304]
 288:main.c        ****         		        xQueueReset(Tx_q);
 577              		.loc 1 288 0
 578 00ba 3946     		mov	r1, r7
 579 00bc D8F86C00 		ldr	r0, [r8, #108]
 580 00c0 FFF7FEFF 		bl	xQueueGenericReset
 581              	.LVL63:
 289:main.c        ****                         TxData[0] = master_first_message;
 582              		.loc 1 289 0
 583 00c4 3946     		mov	r1, r7
 584 00c6 D8F87000 		ldr	r0, [r8, #112]
 585 00ca FFF7FEFF 		bl	xQueueGenericReset
 586              	.LVL64:
 290:main.c        ****                         DWM_SendData(TxData,1,1);
 587              		.loc 1 290 0
 588 00ce 4EA8     		add	r0, sp, #312
 589 00d0 00F8985D 		strb	r5, [r0, #-152]!
 291:main.c        ****         				state = STATE_WAIT_FIRST_SEND;
 590              		.loc 1 291 0
 591 00d4 0122     		movs	r2, #1
 592 00d6 1146     		mov	r1, r2
 593 00d8 FFF7FEFF 		bl	DWM_SendData
 594              	.LVL65:
 292:main.c        ****         			break;
 595              		.loc 1 292 0
 596 00dc 0122     		movs	r2, #1
 597 00de 7D4B     		ldr	r3, .L71
 598 00e0 1A70     		strb	r2, [r3]
 293:main.c        ****                             
 599              		.loc 1 293 0
 600 00e2 37E2     		b	.L37
 601              	.L40:
 296:main.c        ****         					DWM_ReadSPI_ext(TX_TIME, NO_SUB, t1_8, 5);//get tx time (T1)
 602              		.loc 1 296 0
 603 00e4 4FF0FF32 		mov	r2, #-1
ARM GAS  C:\Users\PIERRE~1\AppData\Local\Temp\ccCMPfkd.s 			page 20


 604 00e8 4CA9     		add	r1, sp, #304
 605 00ea 7F4B     		ldr	r3, .L71+20
 606 00ec 186F     		ldr	r0, [r3, #112]
 607 00ee FFF7FEFF 		bl	xQueueReceive
 608              	.LVL66:
 609 00f2 0028     		cmp	r0, #0
 610 00f4 00F02E82 		beq	.L37
 297:main.c        ****         					TxFlag = 0;
 611              		.loc 1 297 0
 612 00f8 0523     		movs	r3, #5
 613 00fa 26AA     		add	r2, sp, #152
 614 00fc 4FF6FF71 		movw	r1, #65535
 615 0100 1720     		movs	r0, #23
 616 0102 FFF7FEFF 		bl	DWM_ReadSPI_ext
 617              	.LVL67:
 298:main.c        ****                             TxOk = 0;
 618              		.loc 1 298 0
 619 0106 0023     		movs	r3, #0
 620 0108 4C93     		str	r3, [sp, #304]
 299:main.c        ****                             idle();
 621              		.loc 1 299 0
 622 010a 774A     		ldr	r2, .L71+20
 623 010c 82F86830 		strb	r3, [r2, #104]
 300:main.c        ****                             DWM_Enable_Rx();
 624              		.loc 1 300 0
 625 0110 FFF7FEFF 		bl	idle
 626              	.LVL68:
 301:main.c        ****                             state = STATE_WAIT_RESPONSE;
 627              		.loc 1 301 0
 628 0114 FFF7FEFF 		bl	DWM_Enable_Rx
 629              	.LVL69:
 302:main.c        ****         				}
 630              		.loc 1 302 0
 631 0118 0222     		movs	r2, #2
 632 011a 6E4B     		ldr	r3, .L71
 633 011c 1A70     		strb	r2, [r3]
 634 011e 19E2     		b	.L37
 635              	.L41:
 307:main.c        ****                             if (RxFlag == 2){
 636              		.loc 1 307 0
 637 0120 2022     		movs	r2, #32
 638 0122 4DA9     		add	r1, sp, #308
 639 0124 704B     		ldr	r3, .L71+20
 640 0126 D86E     		ldr	r0, [r3, #108]
 641 0128 FFF7FEFF 		bl	xQueueReceive
 642              	.LVL70:
 643 012c 0128     		cmp	r0, #1
 644 012e 27D1     		bne	.L47
 308:main.c        ****         				        DWM_Reset_Rx();
 645              		.loc 1 308 0
 646 0130 4D9B     		ldr	r3, [sp, #308]
 647 0132 022B     		cmp	r3, #2
 648 0134 05D1     		bne	.L48
 309:main.c        ****         				        state = STATE_INIT;
 649              		.loc 1 309 0
 650 0136 FFF7FEFF 		bl	DWM_Reset_Rx
 651              	.LVL71:
ARM GAS  C:\Users\PIERRE~1\AppData\Local\Temp\ccCMPfkd.s 			page 21


 310:main.c        ****         			        } else if (RxFlag == 1){
 652              		.loc 1 310 0
 653 013a 0022     		movs	r2, #0
 654 013c 654B     		ldr	r3, .L71
 655 013e 1A70     		strb	r2, [r3]
 656 0140 08E2     		b	.L37
 657              	.L48:
 311:main.c        ****         					    DWM_ReceiveData(RxData); 	// Read Rx buffer
 658              		.loc 1 311 0
 659 0142 012B     		cmp	r3, #1
 660 0144 40F00682 		bne	.L37
 312:main.c        ****         					    if (RxData[0] == slave_standard_message){   // Check RxFrame
 661              		.loc 1 312 0
 662 0148 48A8     		add	r0, sp, #288
 663 014a FFF7FEFF 		bl	DWM_ReceiveData
 664              	.LVL72:
 313:main.c        ****                                 DWM_ReadSPI_ext(RX_TIME,NO_SUB, t4_8,5);// get T4
 665              		.loc 1 313 0
 666 014e 9DF82031 		ldrb	r3, [sp, #288]	@ zero_extendqisi2
 667 0152 1A9A     		ldr	r2, [sp, #104]
 668 0154 9A42     		cmp	r2, r3
 669 0156 0AD1     		bne	.L49
 314:main.c        ****         						state = STATE_SECOND_SEND;
 670              		.loc 1 314 0
 671 0158 0523     		movs	r3, #5
 672 015a 20AA     		add	r2, sp, #128
 673 015c 4FF6FF71 		movw	r1, #65535
 674 0160 1520     		movs	r0, #21
 675 0162 FFF7FEFF 		bl	DWM_ReadSPI_ext
 676              	.LVL73:
 315:main.c        ****         						}else{
 677              		.loc 1 315 0
 678 0166 0322     		movs	r2, #3
 679 0168 5A4B     		ldr	r3, .L71
 680 016a 1A70     		strb	r2, [r3]
 681 016c 02E0     		b	.L50
 682              	.L49:
 317:main.c        ****         						}
 683              		.loc 1 317 0
 684 016e 0022     		movs	r2, #0
 685 0170 584B     		ldr	r3, .L71
 686 0172 1A70     		strb	r2, [r3]
 687              	.L50:
 319:main.c        ****                                 RxState = 0;
 688              		.loc 1 319 0
 689 0174 0023     		movs	r3, #0
 690 0176 4D93     		str	r3, [sp, #308]
 320:main.c        ****                             }
 691              		.loc 1 320 0
 692 0178 5B4A     		ldr	r2, .L71+20
 693 017a 82F86930 		strb	r3, [r2, #105]
 694 017e E9E1     		b	.L37
 695              	.L47:
 323:main.c        ****                             xSemaphoreGive(semaphoreBuf1);
 696              		.loc 1 323 0
 697 0180 0027     		movs	r7, #0
 698 0182 544B     		ldr	r3, .L71
ARM GAS  C:\Users\PIERRE~1\AppData\Local\Temp\ccCMPfkd.s 			page 22


 699 0184 1F70     		strb	r7, [r3]
 324:main.c        ****                             vTaskPrioritySet(NULL, uxTaskPriorityGet(NULL)-2);
 700              		.loc 1 324 0
 701 0186 3B46     		mov	r3, r7
 702 0188 3A46     		mov	r2, r7
 703 018a 3946     		mov	r1, r7
 704 018c 5248     		ldr	r0, .L71+4
 705 018e 0068     		ldr	r0, [r0]
 706 0190 FFF7FEFF 		bl	xQueueGenericSend
 707              	.LVL74:
 325:main.c        ****                             if(slaveNummer == 1){
 708              		.loc 1 325 0
 709 0194 3846     		mov	r0, r7
 710 0196 FFF7FEFF 		bl	uxTaskPriorityGet
 711              	.LVL75:
 712 019a 811E     		subs	r1, r0, #2
 713 019c 3846     		mov	r0, r7
 714 019e FFF7FEFF 		bl	vTaskPrioritySet
 715              	.LVL76:
 326:main.c        ****                                 vTaskResume(taskHandler2);
 716              		.loc 1 326 0
 717 01a2 012C     		cmp	r4, #1
 718 01a4 08D1     		bne	.L51
 327:main.c        ****                                 vTaskResume(taskHandler3);
 719              		.loc 1 327 0
 720 01a6 4D4B     		ldr	r3, .L71+8
 721 01a8 1868     		ldr	r0, [r3]
 722 01aa FFF7FEFF 		bl	vTaskResume
 723              	.LVL77:
 328:main.c        ****                             }else if(slaveNummer == 2){
 724              		.loc 1 328 0
 725 01ae 4C4B     		ldr	r3, .L71+12
 726 01b0 1868     		ldr	r0, [r3]
 727 01b2 FFF7FEFF 		bl	vTaskResume
 728              	.LVL78:
 729 01b6 CDE1     		b	.L37
 730              	.L51:
 329:main.c        ****                                 vTaskResume(taskHandler1);
 731              		.loc 1 329 0
 732 01b8 022C     		cmp	r4, #2
 733 01ba 08D1     		bne	.L52
 330:main.c        ****                                 vTaskResume(taskHandler3);
 734              		.loc 1 330 0
 735 01bc 494B     		ldr	r3, .L71+16
 736 01be 1868     		ldr	r0, [r3]
 737 01c0 FFF7FEFF 		bl	vTaskResume
 738              	.LVL79:
 331:main.c        ****                             }else if(slaveNummer == 3){
 739              		.loc 1 331 0
 740 01c4 464B     		ldr	r3, .L71+12
 741 01c6 1868     		ldr	r0, [r3]
 742 01c8 FFF7FEFF 		bl	vTaskResume
 743              	.LVL80:
 744 01cc C2E1     		b	.L37
 745              	.L52:
 332:main.c        ****                                 vTaskResume(taskHandler1);
 746              		.loc 1 332 0
ARM GAS  C:\Users\PIERRE~1\AppData\Local\Temp\ccCMPfkd.s 			page 23


 747 01ce 032C     		cmp	r4, #3
 748 01d0 40F0C081 		bne	.L37
 333:main.c        ****                                 vTaskResume(taskHandler2);
 749              		.loc 1 333 0
 750 01d4 434B     		ldr	r3, .L71+16
 751 01d6 1868     		ldr	r0, [r3]
 752 01d8 FFF7FEFF 		bl	vTaskResume
 753              	.LVL81:
 334:main.c        ****                             }
 754              		.loc 1 334 0
 755 01dc 3F4B     		ldr	r3, .L71+8
 756 01de 1868     		ldr	r0, [r3]
 757 01e0 FFF7FEFF 		bl	vTaskResume
 758              	.LVL82:
 759 01e4 B6E1     		b	.L37
 760              	.L42:
 340:main.c        ****         				TxData[0] = master_second_message;
 761              		.loc 1 340 0
 762 01e6 FFF7FEFF 		bl	idle
 763              	.LVL83:
 341:main.c        ****         				DWM_SendData(TxData, 1, 1);
 764              		.loc 1 341 0
 765 01ea 4EA8     		add	r0, sp, #312
 766 01ec 9DF83030 		ldrb	r3, [sp, #48]	@ zero_extendqisi2
 767 01f0 00F8983D 		strb	r3, [r0, #-152]!
 342:main.c        ****         				state = STATE_WAIT_SECOND_SEND;
 768              		.loc 1 342 0
 769 01f4 0122     		movs	r2, #1
 770 01f6 1146     		mov	r1, r2
 771 01f8 FFF7FEFF 		bl	DWM_SendData
 772              	.LVL84:
 343:main.c        ****         			break;
 773              		.loc 1 343 0
 774 01fc 0422     		movs	r2, #4
 775 01fe 354B     		ldr	r3, .L71
 776 0200 1A70     		strb	r2, [r3]
 344:main.c        ****                             
 777              		.loc 1 344 0
 778 0202 A7E1     		b	.L37
 779              	.L43:
 347:main.c        ****         						DWM_ReadSPI_ext(TX_TIME, NO_SUB, t5_8, 5);	//get tx time (T5)
 780              		.loc 1 347 0
 781 0204 4FF0FF32 		mov	r2, #-1
 782 0208 4CA9     		add	r1, sp, #304
 783 020a 374B     		ldr	r3, .L71+20
 784 020c 186F     		ldr	r0, [r3, #112]
 785 020e FFF7FEFF 		bl	xQueueReceive
 786              	.LVL85:
 787 0212 0028     		cmp	r0, #0
 788 0214 00F09E81 		beq	.L37
 348:main.c        ****                                 TxFlag =0;
 789              		.loc 1 348 0
 790 0218 0523     		movs	r3, #5
 791 021a 1EAA     		add	r2, sp, #120
 792 021c 4FF6FF71 		movw	r1, #65535
 793 0220 1720     		movs	r0, #23
 794 0222 FFF7FEFF 		bl	DWM_ReadSPI_ext
ARM GAS  C:\Users\PIERRE~1\AppData\Local\Temp\ccCMPfkd.s 			page 24


 795              	.LVL86:
 349:main.c        ****                                 TxOk = 0;
 796              		.loc 1 349 0
 797 0226 0023     		movs	r3, #0
 798 0228 4C93     		str	r3, [sp, #304]
 350:main.c        ****                                 idle();
 799              		.loc 1 350 0
 800 022a 2F4A     		ldr	r2, .L71+20
 801 022c 82F86830 		strb	r3, [r2, #104]
 351:main.c        ****                                 DWM_Enable_Rx();
 802              		.loc 1 351 0
 803 0230 FFF7FEFF 		bl	idle
 804              	.LVL87:
 352:main.c        ****                                 state = STATE_GET_TIMES;
 805              		.loc 1 352 0
 806 0234 FFF7FEFF 		bl	DWM_Enable_Rx
 807              	.LVL88:
 353:main.c        ****         				}
 808              		.loc 1 353 0
 809 0238 0522     		movs	r2, #5
 810 023a 264B     		ldr	r3, .L71
 811 023c 1A70     		strb	r2, [r3]
 812 023e 89E1     		b	.L37
 813              	.L44:
 358:main.c        ****                             if (RxFlag == 2){
 814              		.loc 1 358 0
 815 0240 2022     		movs	r2, #32
 816 0242 4DA9     		add	r1, sp, #308
 817 0244 284B     		ldr	r3, .L71+20
 818 0246 D86E     		ldr	r0, [r3, #108]
 819 0248 FFF7FEFF 		bl	xQueueReceive
 820              	.LVL89:
 821 024c 0128     		cmp	r0, #1
 822 024e 40F0E180 		bne	.L53
 359:main.c        ****             					DWM_Reset_Rx();
 823              		.loc 1 359 0
 824 0252 4D9B     		ldr	r3, [sp, #308]
 825 0254 022B     		cmp	r3, #2
 826 0256 05D1     		bne	.L54
 360:main.c        ****             					state = STATE_INIT;
 827              		.loc 1 360 0
 828 0258 FFF7FEFF 		bl	DWM_Reset_Rx
 829              	.LVL90:
 361:main.c        ****             				} else if (RxFlag == 1){
 830              		.loc 1 361 0
 831 025c 0022     		movs	r2, #0
 832 025e 1D4B     		ldr	r3, .L71
 833 0260 1A70     		strb	r2, [r3]
 834 0262 D1E0     		b	.L55
 835              	.L54:
 362:main.c        ****         						DWM_ReceiveData(RxData);	//Read Rx Buffer
 836              		.loc 1 362 0
 837 0264 012B     		cmp	r3, #1
 838 0266 40F0CF80 		bne	.L55
 363:main.c        ****         						for (int i=0;i<5;i++){
 839              		.loc 1 363 0
 840 026a 48A8     		add	r0, sp, #288
ARM GAS  C:\Users\PIERRE~1\AppData\Local\Temp\ccCMPfkd.s 			page 25


 841 026c FFF7FEFF 		bl	DWM_ReceiveData
 842              	.LVL91:
 843              	.LBB3:
 364:main.c        ****         							t2_8[i] = RxData[i];
 844              		.loc 1 364 0
 845 0270 0023     		movs	r3, #0
 846 0272 14E0     		b	.L56
 847              	.LVL92:
 848              	.L57:
 365:main.c        ****         							t3_8[i] = RxData[i+5];
 849              		.loc 1 365 0 discriminator 3
 850 0274 4EAA     		add	r2, sp, #312
 851 0276 1A44     		add	r2, r2, r3
 852 0278 12F8181C 		ldrb	r1, [r2, #-24]	@ zero_extendqisi2
 853 027c 02F8A81C 		strb	r1, [r2, #-168]
 366:main.c        ****         							t6_8[i] = RxData[i+10];
 854              		.loc 1 366 0 discriminator 3
 855 0280 591D     		adds	r1, r3, #5
 856 0282 4EA8     		add	r0, sp, #312
 857 0284 0144     		add	r1, r1, r0
 858 0286 11F8181C 		ldrb	r1, [r1, #-24]	@ zero_extendqisi2
 859 028a 02F8B01C 		strb	r1, [r2, #-176]
 367:main.c        ****         						}
 860              		.loc 1 367 0 discriminator 3
 861 028e 03F10A01 		add	r1, r3, #10
 862 0292 0144     		add	r1, r1, r0
 863 0294 11F8181C 		ldrb	r1, [r1, #-24]	@ zero_extendqisi2
 864 0298 02F8C81C 		strb	r1, [r2, #-200]
 364:main.c        ****         							t2_8[i] = RxData[i];
 865              		.loc 1 364 0 discriminator 3
 866 029c 0133     		adds	r3, r3, #1
 867              	.LVL93:
 868              	.L56:
 364:main.c        ****         							t2_8[i] = RxData[i];
 869              		.loc 1 364 0 is_stmt 0 discriminator 1
 870 029e 042B     		cmp	r3, #4
 871 02a0 E8DD     		ble	.L57
 872 02a2 0022     		movs	r2, #0
 873 02a4 0020     		movs	r0, #0
 874 02a6 0021     		movs	r1, #0
 875 02a8 0746     		mov	r7, r0
 876 02aa 8846     		mov	r8, r1
 877 02ac CDE90678 		strd	r7, [sp, #24]
 878              	.LVL94:
 879 02b0 CDE90478 		strd	r7, [sp, #16]
 880              	.LVL95:
 881 02b4 CDE90078 		strd	r7, [sp]
 882              	.LVL96:
 883 02b8 CDE90278 		strd	r7, [sp, #8]
 884              	.LVL97:
 885 02bc 8046     		mov	r8, r0
 886 02be 8946     		mov	r9, r1
 887 02c0 CDE90A01 		strd	r0, [sp, #40]
 888              	.LVL98:
 889 02c4 1B96     		str	r6, [sp, #108]
 890 02c6 A446     		mov	ip, r4
 891 02c8 AE46     		mov	lr, r5
ARM GAS  C:\Users\PIERRE~1\AppData\Local\Temp\ccCMPfkd.s 			page 26


 892 02ca DDE916AB 		ldrd	r10, [sp, #88]
 893 02ce DDE91845 		ldrd	r4, [sp, #96]
 894              	.LVL99:
 895 02d2 77E0     		b	.L58
 896              	.L72:
 897              		.align	2
 898              	.L71:
 899 02d4 00000000 		.word	state
 900 02d8 00000000 		.word	semaphoreBuf1
 901 02dc 00000000 		.word	taskHandler2
 902 02e0 00000000 		.word	taskHandler3
 903 02e4 00000000 		.word	taskHandler1
 904 02e8 00000000 		.word	.LANCHOR0
 905              	.LVL100:
 906              	.L59:
 907              	.LBE3:
 908              	.LBB4:
 373:main.c        ****         							t2 = (t2 << 8) | t2_8[4-i];
 909              		.loc 1 373 0 is_stmt 1 discriminator 3
 910 02ec DDE90267 		ldrd	r6, [sp, #8]
 911 02f0 4FEA072B 		lsl	fp, r7, #8
 912 02f4 4BEA166B 		orr	fp, fp, r6, lsr #24
 913 02f8 4FEA062A 		lsl	r10, r6, #8
 914 02fc C2F10403 		rsb	r3, r2, #4
 915 0300 4EA9     		add	r1, sp, #312
 916 0302 0B44     		add	r3, r3, r1
 917 0304 13F8A06C 		ldrb	r6, [r3, #-160]	@ zero_extendqisi2
 918 0308 0027     		movs	r7, #0
 919 030a 4AEA0600 		orr	r0, r10, r6
 920 030e 4BEA0701 		orr	r1, fp, r7
 921 0312 CDE90201 		strd	r0, [sp, #8]
 922              	.LVL101:
 374:main.c        ****         							t3 = (t3 << 8) | t3_8[4-i];
 923              		.loc 1 374 0 discriminator 3
 924 0316 DDE90001 		ldrd	r0, [sp]
 925              	.LVL102:
 926 031a 0E02     		lsls	r6, r1, #8
 927 031c 46EA1066 		orr	r6, r6, r0, lsr #24
 928 0320 0F96     		str	r6, [sp, #60]
 929 0322 0602     		lsls	r6, r0, #8
 930 0324 0E96     		str	r6, [sp, #56]
 931 0326 13F8A86C 		ldrb	r6, [r3, #-168]	@ zero_extendqisi2
 932 032a 0027     		movs	r7, #0
 933 032c DDE90E01 		ldrd	r0, [sp, #56]
 934 0330 3043     		orrs	r0, r0, r6
 935 0332 3943     		orrs	r1, r1, r7
 936 0334 CDE90001 		strd	r0, [sp]
 937              	.LVL103:
 375:main.c        ****         							t4 = (t4 << 8) | t4_8[4-i];
 938              		.loc 1 375 0 discriminator 3
 939 0338 DDE90401 		ldrd	r0, [sp, #16]
 940              	.LVL104:
 941 033c 0E02     		lsls	r6, r1, #8
 942 033e 46EA1066 		orr	r6, r6, r0, lsr #24
 943 0342 1196     		str	r6, [sp, #68]
 944 0344 0602     		lsls	r6, r0, #8
 945 0346 1096     		str	r6, [sp, #64]
ARM GAS  C:\Users\PIERRE~1\AppData\Local\Temp\ccCMPfkd.s 			page 27


 946 0348 13F8B06C 		ldrb	r6, [r3, #-176]	@ zero_extendqisi2
 947 034c 0027     		movs	r7, #0
 948 034e DDE91001 		ldrd	r0, [sp, #64]
 949 0352 3043     		orrs	r0, r0, r6
 950 0354 3943     		orrs	r1, r1, r7
 951 0356 CDE90401 		strd	r0, [sp, #16]
 952              	.LVL105:
 376:main.c        ****         							t5 = (t5 << 8) | t5_8[4-i];
 953              		.loc 1 376 0 discriminator 3
 954 035a DDE90601 		ldrd	r0, [sp, #24]
 955              	.LVL106:
 956 035e 0E02     		lsls	r6, r1, #8
 957 0360 46EA1066 		orr	r6, r6, r0, lsr #24
 958 0364 1396     		str	r6, [sp, #76]
 959 0366 0602     		lsls	r6, r0, #8
 960 0368 1296     		str	r6, [sp, #72]
 961 036a 13F8B86C 		ldrb	r6, [r3, #-184]	@ zero_extendqisi2
 962 036e 0027     		movs	r7, #0
 963 0370 DDE91201 		ldrd	r0, [sp, #72]
 964 0374 3043     		orrs	r0, r0, r6
 965 0376 3943     		orrs	r1, r1, r7
 966 0378 CDE90601 		strd	r0, [sp, #24]
 967              	.LVL107:
 377:main.c        ****         							t6 = (t6 << 8) | t6_8[4-i];
 968              		.loc 1 377 0 discriminator 3
 969 037c 4FEA0926 		lsl	r6, r9, #8
 970 0380 46EA1866 		orr	r6, r6, r8, lsr #24
 971 0384 1596     		str	r6, [sp, #84]
 972 0386 4FEA0826 		lsl	r6, r8, #8
 973 038a 1496     		str	r6, [sp, #80]
 974 038c 13F8C08C 		ldrb	r8, [r3, #-192]	@ zero_extendqisi2
 975              	.LVL108:
 976 0390 4FF00009 		mov	r9, #0
 977 0394 DDE91401 		ldrd	r0, [sp, #80]
 978              	.LVL109:
 979 0398 40EA0800 		orr	r0, r0, r8
 980 039c 41EA0901 		orr	r1, r1, r9
 981 03a0 8046     		mov	r8, r0
 982 03a2 8946     		mov	r9, r1
 983              	.LVL110:
 378:main.c        ****         						}
 984              		.loc 1 378 0 discriminator 3
 985 03a4 DDE90A67 		ldrd	r6, [sp, #40]
 986 03a8 3D02     		lsls	r5, r7, #8
 987 03aa 45EA1665 		orr	r5, r5, r6, lsr #24
 988 03ae 3402     		lsls	r4, r6, #8
 989 03b0 13F8C80C 		ldrb	r0, [r3, #-200]	@ zero_extendqisi2
 990 03b4 0021     		movs	r1, #0
 991 03b6 40EA0406 		orr	r6, r0, r4
 992 03ba 41EA0507 		orr	r7, r1, r5
 993 03be CDE90A67 		strd	r6, [sp, #40]
 994              	.LVL111:
 372:main.c        ****         							t1 = (t1 << 8) | t1_8[4-i];
 995              		.loc 1 372 0 discriminator 3
 996 03c2 0132     		adds	r2, r2, #1
 997              	.LVL112:
 998              	.L58:
ARM GAS  C:\Users\PIERRE~1\AppData\Local\Temp\ccCMPfkd.s 			page 28


 372:main.c        ****         							t1 = (t1 << 8) | t1_8[4-i];
 999              		.loc 1 372 0 is_stmt 0 discriminator 1
 1000 03c4 042A     		cmp	r2, #4
 1001 03c6 91DD     		ble	.L59
 1002 03c8 CDE90889 		strd	r8, [sp, #32]
 1003 03cc DDE90A01 		ldrd	r0, [sp, #40]
 1004 03d0 1B9E     		ldr	r6, [sp, #108]
 1005 03d2 CDE916AB 		strd	r10, [sp, #88]
 1006 03d6 CDE91845 		strd	r4, [sp, #96]
 1007 03da 6446     		mov	r4, ip
 1008 03dc 7546     		mov	r5, lr
 1009              	.LBE4:
 380:main.c        ****         							state = STATE_INIT;
 1010              		.loc 1 380 0 is_stmt 1
 1011 03de 0246     		mov	r2, r0
 1012              	.LVL113:
 1013 03e0 0B46     		mov	r3, r1
 1014 03e2 DDE90001 		ldrd	r0, [sp]
 1015 03e6 8B42     		cmp	r3, r1
 1016 03e8 08BF     		it	eq
 1017 03ea 8242     		cmpeq	r2, r0
 1018 03ec 05D3     		bcc	.L60
 1019              	.LVL114:
 380:main.c        ****         							state = STATE_INIT;
 1020              		.loc 1 380 0 is_stmt 0 discriminator 1
 1021 03ee DDE90201 		ldrd	r0, [sp, #8]
 1022 03f2 8945     		cmp	r9, r1
 1023 03f4 08BF     		it	eq
 1024 03f6 8045     		cmpeq	r8, r0
 1025 03f8 03D2     		bcs	.L61
 1026              	.L60:
 381:main.c        ****         						}
 1027              		.loc 1 381 0 is_stmt 1
 1028 03fa 0022     		movs	r2, #0
 1029 03fc 574B     		ldr	r3, .L73
 1030 03fe 1A70     		strb	r2, [r3]
 1031 0400 02E0     		b	.L55
 1032              	.LVL115:
 1033              	.L61:
 384:main.c        ****         							
 1034              		.loc 1 384 0
 1035 0402 0622     		movs	r2, #6
 1036 0404 554B     		ldr	r3, .L73
 1037 0406 1A70     		strb	r2, [r3]
 1038              	.LVL116:
 1039              	.L55:
 388:main.c        ****                             RxState = 0;
 1040              		.loc 1 388 0
 1041 0408 0023     		movs	r3, #0
 1042 040a 4D93     		str	r3, [sp, #308]
 389:main.c        ****         				}else{
 1043              		.loc 1 389 0
 1044 040c 544A     		ldr	r2, .L73+4
 1045 040e 82F86930 		strb	r3, [r2, #105]
 1046 0412 9FE0     		b	.L37
 1047              	.LVL117:
 1048              	.L53:
ARM GAS  C:\Users\PIERRE~1\AppData\Local\Temp\ccCMPfkd.s 			page 29


 391:main.c        ****                         }
 1049              		.loc 1 391 0
 1050 0414 0022     		movs	r2, #0
 1051 0416 514B     		ldr	r3, .L73
 1052 0418 1A70     		strb	r2, [r3]
 1053 041a 9BE0     		b	.L37
 1054              	.L45:
 396:main.c        ****                         TroundMaster = (t4-t1);         //Time calculation
 1055              		.loc 1 396 0
 1056 041c FFF7FEFF 		bl	idle
 1057              	.LVL118:
 397:main.c        ****         				TreplySlave = (t3-t2);
 1058              		.loc 1 397 0
 1059 0420 DDE906AB 		ldrd	r10, [sp, #24]
 1060 0424 DDE90223 		ldrd	r2, [sp, #8]
 1061 0428 BAEB0206 		subs	r6, r10, r2
 1062              	.LVL119:
 1063 042c 6BEB0307 		sbc	r7, fp, r3
 1064              	.LVL120:
 398:main.c        ****         				TroundSlave = (t6-t3);
 1065              		.loc 1 398 0
 1066 0430 DDE90423 		ldrd	r2, [sp, #16]
 1067 0434 DDE90001 		ldrd	r0, [sp]
 1068 0438 B2EB0008 		subs	r8, r2, r0
 1069 043c 63EB0109 		sbc	r9, r3, r1
 1070              	.LVL121:
 399:main.c        ****         				TreplyMaster = (t5-t4);
 1071              		.loc 1 399 0
 1072 0440 DDE90A01 		ldrd	r0, [sp, #40]
 1073 0444 801A     		subs	r0, r0, r2
 1074 0446 61EB0301 		sbc	r1, r1, r3
 1075              	.LVL122:
 400:main.c        ****                         all_clock_time[4*found] = TroundMaster;
 1076              		.loc 1 400 0
 1077 044a DDE90823 		ldrd	r2, [sp, #32]
 1078 044e B2EB0A02 		subs	r2, r2, r10
 1079 0452 63EB0B03 		sbc	r3, r3, fp
 1080              	.LVL123:
 401:main.c        ****                         all_clock_time[4*found+1] = TroundSlave;
 1081              		.loc 1 401 0
 1082 0456 DFF808C1 		ldr	ip, .L73+4
 1083 045a 9CF874E0 		ldrb	lr, [ip, #116]	@ zero_extendqisi2
 1084 045e 4FEA8E0A 		lsl	r10, lr, #2
 1085 0462 0CEB4E1B 		add	fp, ip, lr, lsl #5
 1086 0466 CBE90267 		strd	r6, [fp, #8]
 402:main.c        ****                         all_clock_time[4*found+2] = TreplyMaster;
 1087              		.loc 1 402 0
 1088 046a 0AF10106 		add	r6, r10, #1
 1089              	.LVL124:
 1090 046e 0CEBC606 		add	r6, ip, r6, lsl #3
 1091 0472 C6E90201 		strd	r0, [r6, #8]
 1092              	.LVL125:
 403:main.c        ****                         all_clock_time[4*found+3] = TreplySlave;
 1093              		.loc 1 403 0
 1094 0476 0AF10201 		add	r1, r10, #2
 1095 047a 0CEBC101 		add	r1, ip, r1, lsl #3
 1096 047e C1E90223 		strd	r2, [r1, #8]
ARM GAS  C:\Users\PIERRE~1\AppData\Local\Temp\ccCMPfkd.s 			page 30


 404:main.c        ****                         found =found+1;
 1097              		.loc 1 404 0
 1098 0482 0AF1030A 		add	r10, r10, #3
 1099 0486 0CEBCA0A 		add	r10, ip, r10, lsl #3
 1100 048a CAE90289 		strd	r8, [r10, #8]
 405:main.c        ****                         state = STATE_INIT;
 1101              		.loc 1 405 0
 1102 048e 0EF10103 		add	r3, lr, #1
 1103 0492 DBB2     		uxtb	r3, r3
 1104 0494 8CF87430 		strb	r3, [ip, #116]
 406:main.c        ****                         if(found == 1){
 1105              		.loc 1 406 0
 1106 0498 0021     		movs	r1, #0
 1107 049a 304A     		ldr	r2, .L73
 1108              	.LVL126:
 1109 049c 1170     		strb	r1, [r2]
 407:main.c        ****                             TxPhoneData[60] = slaveNummer;
 1110              		.loc 1 407 0
 1111 049e 012B     		cmp	r3, #1
 1112 04a0 06D1     		bne	.L62
 408:main.c        ****                             LED_1_Write(LIGHT_ON);
 1113              		.loc 1 408 0
 1114 04a2 304B     		ldr	r3, .L73+8
 1115 04a4 83F83C40 		strb	r4, [r3, #60]
 409:main.c        ****                         }else if(found == 2){
 1116              		.loc 1 409 0
 1117 04a8 0120     		movs	r0, #1
 1118              	.LVL127:
 1119 04aa FFF7FEFF 		bl	LED_1_Write
 1120              	.LVL128:
 1121 04ae 25E0     		b	.L63
 1122              	.LVL129:
 1123              	.L62:
 410:main.c        ****                             TxPhoneData[61] = slaveNummer;
 1124              		.loc 1 410 0
 1125 04b0 022B     		cmp	r3, #2
 1126 04b2 06D1     		bne	.L64
 411:main.c        ****                             LED_2_Write(LIGHT_ON);
 1127              		.loc 1 411 0
 1128 04b4 2B4B     		ldr	r3, .L73+8
 1129 04b6 83F83D40 		strb	r4, [r3, #61]
 412:main.c        ****                         }else if(found == 3){
 1130              		.loc 1 412 0
 1131 04ba 0120     		movs	r0, #1
 1132              	.LVL130:
 1133 04bc FFF7FEFF 		bl	LED_2_Write
 1134              	.LVL131:
 1135 04c0 1CE0     		b	.L63
 1136              	.LVL132:
 1137              	.L64:
 413:main.c        ****                             found = 0;
 1138              		.loc 1 413 0
 1139 04c2 032B     		cmp	r3, #3
 1140 04c4 1AD1     		bne	.L63
 414:main.c        ****                             TxPhoneData[62] = slaveNummer;
 1141              		.loc 1 414 0
 1142 04c6 0026     		movs	r6, #0
ARM GAS  C:\Users\PIERRE~1\AppData\Local\Temp\ccCMPfkd.s 			page 31


 1143 04c8 254B     		ldr	r3, .L73+4
 1144 04ca 83F87460 		strb	r6, [r3, #116]
 415:main.c        ****                             LED_3_Write(LIGHT_ON);
 1145              		.loc 1 415 0
 1146 04ce 254B     		ldr	r3, .L73+8
 1147 04d0 83F83E40 		strb	r4, [r3, #62]
 416:main.c        ****                             done = 1;
 1148              		.loc 1 416 0
 1149 04d4 0120     		movs	r0, #1
 1150              	.LVL133:
 1151 04d6 FFF7FEFF 		bl	LED_3_Write
 1152              	.LVL134:
 418:main.c        ****                             change_priorities(slaveNummer-1);
 1153              		.loc 1 418 0
 1154 04da 3346     		mov	r3, r6
 1155 04dc 3246     		mov	r2, r6
 1156 04de 3146     		mov	r1, r6
 1157 04e0 2148     		ldr	r0, .L73+12
 1158 04e2 0068     		ldr	r0, [r0]
 1159 04e4 FFF7FEFF 		bl	xQueueGenericSend
 1160              	.LVL135:
 419:main.c        ****                             vTaskResume(usbOutHandler);
 1161              		.loc 1 419 0
 1162 04e8 0D9B     		ldr	r3, [sp, #52]
 1163 04ea 581E     		subs	r0, r3, #1
 1164 04ec FFF7FEFF 		bl	change_priorities
 1165              	.LVL136:
 420:main.c        ****                             break;
 1166              		.loc 1 420 0
 1167 04f0 1E4B     		ldr	r3, .L73+16
 1168 04f2 1868     		ldr	r0, [r3]
 1169 04f4 FFF7FEFF 		bl	vTaskResume
 1170              	.LVL137:
 417:main.c        ****                             xSemaphoreGive(semaphoreBuf1);
 1171              		.loc 1 417 0
 1172 04f8 0126     		movs	r6, #1
 421:main.c        ****                         }
 1173              		.loc 1 421 0
 1174 04fa 2BE0     		b	.L37
 1175              	.LVL138:
 1176              	.L63:
 424:main.c        ****                         xSemaphoreGive(semaphoreBuf1);
 1177              		.loc 1 424 0
 1178 04fc 0023     		movs	r3, #0
 1179 04fe 1A46     		mov	r2, r3
 1180 0500 1946     		mov	r1, r3
 1181 0502 1948     		ldr	r0, .L73+12
 1182 0504 0068     		ldr	r0, [r0]
 1183 0506 FFF7FEFF 		bl	xQueueGenericSend
 1184              	.LVL139:
 425:main.c        ****                         if(slaveNummer == 1){
 1185              		.loc 1 425 0
 1186 050a 012C     		cmp	r4, #1
 1187 050c 08D1     		bne	.L65
 426:main.c        ****                             vTaskResume(taskHandler2);
 1188              		.loc 1 426 0
 1189 050e 184B     		ldr	r3, .L73+20
ARM GAS  C:\Users\PIERRE~1\AppData\Local\Temp\ccCMPfkd.s 			page 32


 1190 0510 1868     		ldr	r0, [r3]
 1191 0512 FFF7FEFF 		bl	vTaskResume
 1192              	.LVL140:
 427:main.c        ****                             vTaskResume(taskHandler3);
 1193              		.loc 1 427 0
 1194 0516 174B     		ldr	r3, .L73+24
 1195 0518 1868     		ldr	r0, [r3]
 1196 051a FFF7FEFF 		bl	vTaskResume
 1197              	.LVL141:
 1198 051e 14E0     		b	.L66
 1199              	.L65:
 428:main.c        ****                         }else if(slaveNummer == 2){
 1200              		.loc 1 428 0
 1201 0520 022C     		cmp	r4, #2
 1202 0522 08D1     		bne	.L67
 429:main.c        ****                             vTaskResume(taskHandler1);
 1203              		.loc 1 429 0
 1204 0524 144B     		ldr	r3, .L73+28
 1205 0526 1868     		ldr	r0, [r3]
 1206 0528 FFF7FEFF 		bl	vTaskResume
 1207              	.LVL142:
 430:main.c        ****                             vTaskResume(taskHandler3);
 1208              		.loc 1 430 0
 1209 052c 114B     		ldr	r3, .L73+24
 1210 052e 1868     		ldr	r0, [r3]
 1211 0530 FFF7FEFF 		bl	vTaskResume
 1212              	.LVL143:
 1213 0534 09E0     		b	.L66
 1214              	.L67:
 431:main.c        ****                         }else if(slaveNummer == 3){
 1215              		.loc 1 431 0
 1216 0536 032C     		cmp	r4, #3
 1217 0538 07D1     		bne	.L66
 432:main.c        ****                             vTaskResume(taskHandler1);
 1218              		.loc 1 432 0
 1219 053a 0F4B     		ldr	r3, .L73+28
 1220 053c 1868     		ldr	r0, [r3]
 1221 053e FFF7FEFF 		bl	vTaskResume
 1222              	.LVL144:
 433:main.c        ****                             vTaskResume(taskHandler2);
 1223              		.loc 1 433 0
 1224 0542 0B4B     		ldr	r3, .L73+20
 1225 0544 1868     		ldr	r0, [r3]
 1226 0546 FFF7FEFF 		bl	vTaskResume
 1227              	.LVL145:
 1228              	.L66:
 434:main.c        ****                         }
 435:main.c        ****                         change_priorities(slaveNummer-1);
 1229              		.loc 1 435 0
 1230 054a 0D9B     		ldr	r3, [sp, #52]
 1231 054c 581E     		subs	r0, r3, #1
 1232 054e FFF7FEFF 		bl	change_priorities
 1233              	.LVL146:
 423:main.c        ****                         xSemaphoreGive(semaphoreBuf1);
 1234              		.loc 1 423 0
 1235 0552 0126     		movs	r6, #1
 1236              	.LVL147:
ARM GAS  C:\Users\PIERRE~1\AppData\Local\Temp\ccCMPfkd.s 			page 33


 1237              	.L37:
 279:main.c        ****                 switch(state){
 1238              		.loc 1 279 0
 1239 0554 002E     		cmp	r6, #0
 1240 0556 3FF497AD 		beq	.L68
 1241 055a 65E5     		b	.L32
 1242              	.L74:
 1243              		.align	2
 1244              	.L73:
 1245 055c 00000000 		.word	state
 1246 0560 00000000 		.word	.LANCHOR0
 1247 0564 00000000 		.word	TxPhoneData
 1248 0568 00000000 		.word	semaphoreBuf1
 1249 056c 00000000 		.word	usbOutHandler
 1250 0570 00000000 		.word	taskHandler2
 1251 0574 00000000 		.word	taskHandler3
 1252 0578 00000000 		.word	taskHandler1
 1253              		.cfi_endproc
 1254              	.LFE76:
 1255              		.size	state_machine_task, .-state_machine_task
 1256              		.section	.text.interrupt_routine,"ax",%progbits
 1257              		.align	2
 1258              		.thumb
 1259              		.thumb_func
 1260              		.type	interrupt_routine, %function
 1261              	interrupt_routine:
 1262              	.LFB71:
  92:main.c        **** 
 1263              		.loc 1 92 0
 1264              		.cfi_startproc
 1265              		@ args = 0, pretend = 0, frame = 16
 1266              		@ frame_needed = 0, uses_anonymous_args = 0
 1267              	.LVL148:
 1268 0000 30B5     		push	{r4, r5, lr}
 1269              		.cfi_def_cfa_offset 12
 1270              		.cfi_offset 4, -12
 1271              		.cfi_offset 5, -8
 1272              		.cfi_offset 14, -4
 1273 0002 85B0     		sub	sp, sp, #20
 1274              		.cfi_def_cfa_offset 32
 1275              	.LVL149:
 1276              	.L76:
  99:main.c        ****             uint8_t RxBuffer[4];
 1277              		.loc 1 99 0
 1278 0004 1E22     		movs	r2, #30
 1279 0006 03A9     		add	r1, sp, #12
 1280 0008 474B     		ldr	r3, .L85
 1281 000a 1868     		ldr	r0, [r3]
 1282 000c FFF7FEFF 		bl	xQueueReceive
 1283              	.LVL150:
 1284 0010 0028     		cmp	r0, #0
 1285 0012 F7D0     		beq	.L76
 1286              	.LBB5:
 102:main.c        **** 			DWM_ReadSPI_ext(SYS_STATUS, NO_SUB,  RxBuffer, 4);
 1287              		.loc 1 102 0
 1288 0014 0023     		movs	r3, #0
 1289 0016 0293     		str	r3, [sp, #8]
ARM GAS  C:\Users\PIERRE~1\AppData\Local\Temp\ccCMPfkd.s 			page 34


 103:main.c        **** 			StatusRegister  = (RxBuffer[3] << 24) | (RxBuffer[2] << 16) | (RxBuffer[1] << 8) | RxBuffer[0];
 1290              		.loc 1 103 0
 1291 0018 0423     		movs	r3, #4
 1292 001a 0DEB0302 		add	r2, sp, r3
 1293 001e 4FF6FF71 		movw	r1, #65535
 1294 0022 0F20     		movs	r0, #15
 1295 0024 FFF7FEFF 		bl	DWM_ReadSPI_ext
 1296              	.LVL151:
 104:main.c        **** 			if (StatusRegister == 0xFFFFFFFF) {
 1297              		.loc 1 104 0
 1298 0028 9DF80740 		ldrb	r4, [sp, #7]	@ zero_extendqisi2
 1299 002c 9DF80630 		ldrb	r3, [sp, #6]	@ zero_extendqisi2
 1300 0030 1B04     		lsls	r3, r3, #16
 1301 0032 43EA0463 		orr	r3, r3, r4, lsl #24
 1302 0036 9DF80540 		ldrb	r4, [sp, #5]	@ zero_extendqisi2
 1303 003a 43EA0423 		orr	r3, r3, r4, lsl #8
 1304 003e 9DF80440 		ldrb	r4, [sp, #4]	@ zero_extendqisi2
 1305 0042 1C43     		orrs	r4, r4, r3
 1306              	.LVL152:
 105:main.c        **** 				DWM_ReadSPI_ext(SYS_STATUS, NO_SUB,  RxBuffer, 4);
 1307              		.loc 1 105 0
 1308 0044 B4F1FF3F 		cmp	r4, #-1
 1309 0048 15D1     		bne	.L77
 106:main.c        **** 				StatusRegister  = (RxBuffer[3] << 24) | (RxBuffer[2] << 16) | (RxBuffer[1] << 8) | RxBuffer[0];
 1310              		.loc 1 106 0
 1311 004a 0423     		movs	r3, #4
 1312 004c 0DEB0302 		add	r2, sp, r3
 1313 0050 4FF6FF71 		movw	r1, #65535
 1314 0054 0F20     		movs	r0, #15
 1315 0056 FFF7FEFF 		bl	DWM_ReadSPI_ext
 1316              	.LVL153:
 107:main.c        **** 			}
 1317              		.loc 1 107 0
 1318 005a 9DF80720 		ldrb	r2, [sp, #7]	@ zero_extendqisi2
 1319 005e 9DF80630 		ldrb	r3, [sp, #6]	@ zero_extendqisi2
 1320 0062 1B04     		lsls	r3, r3, #16
 1321 0064 43EA0263 		orr	r3, r3, r2, lsl #24
 1322 0068 9DF80540 		ldrb	r4, [sp, #5]	@ zero_extendqisi2
 1323              	.LVL154:
 1324 006c 43EA0423 		orr	r3, r3, r4, lsl #8
 1325 0070 9DF80440 		ldrb	r4, [sp, #4]	@ zero_extendqisi2
 1326 0074 1C43     		orrs	r4, r4, r3
 1327              	.LVL155:
 1328              	.L77:
 109:main.c        **** 				TxOk = 1;
 1329              		.loc 1 109 0
 1330 0076 14F0800F 		tst	r4, #128
 1331 007a 10D0     		beq	.L78
 110:main.c        **** 				xQueueSend(Tx_q,(void*) &TxOk,portMAX_DELAY);
 1332              		.loc 1 110 0
 1333 007c 2A48     		ldr	r0, .L85
 1334 007e 0125     		movs	r5, #1
 1335 0080 0146     		mov	r1, r0
 1336 0082 01F8685F 		strb	r5, [r1, #104]!
 111:main.c        **** 				setBit(ack, 4, TX_OK_BIT, 1);
 1337              		.loc 1 111 0
 1338 0086 0023     		movs	r3, #0
ARM GAS  C:\Users\PIERRE~1\AppData\Local\Temp\ccCMPfkd.s 			page 35


 1339 0088 4FF0FF32 		mov	r2, #-1
 1340 008c 006F     		ldr	r0, [r0, #112]
 1341 008e FFF7FEFF 		bl	xQueueGenericSend
 1342              	.LVL156:
 112:main.c        **** 			}
 1343              		.loc 1 112 0
 1344 0092 2B46     		mov	r3, r5
 1345 0094 0722     		movs	r2, #7
 1346 0096 0421     		movs	r1, #4
 1347 0098 02A8     		add	r0, sp, #8
 1348 009a FFF7FEFF 		bl	setBit
 1349              	.LVL157:
 1350              	.L78:
 116:main.c        **** 				ack[0] |= RX_FINISHED_MASK;
 1351              		.loc 1 116 0
 1352 009e 04F4C843 		and	r3, r4, #25600
 1353 00a2 B3F5C84F 		cmp	r3, #25600
 1354 00a6 09D1     		bne	.L79
 118:main.c        **** 				ack[2] |= RX_FINISHED_MASK >> 16;
 1355              		.loc 1 118 0
 1356 00a8 9DF80930 		ldrb	r3, [sp, #9]	@ zero_extendqisi2
 1357 00ac 43F06403 		orr	r3, r3, #100
 1358 00b0 8DF80930 		strb	r3, [sp, #9]
 121:main.c        **** 			}
 1359              		.loc 1 121 0
 1360 00b4 0122     		movs	r2, #1
 1361 00b6 1C4B     		ldr	r3, .L85
 1362 00b8 83F86920 		strb	r2, [r3, #105]
 1363              	.L79:
 123:main.c        **** 				ack[0] |= RX_ERROR_MASK;
 1364              		.loc 1 123 0
 1365 00bc 1B4B     		ldr	r3, .L85+4
 1366 00be 1C42     		tst	r4, r3
 1367 00c0 15D0     		beq	.L80
 125:main.c        **** 				ack[2] |= RX_ERROR_MASK >> 16;
 1368              		.loc 1 125 0
 1369 00c2 9DF80930 		ldrb	r3, [sp, #9]	@ zero_extendqisi2
 1370 00c6 63F06F03 		orn	r3, r3, #111
 1371 00ca 8DF80930 		strb	r3, [sp, #9]
 126:main.c        **** 				ack[3] |= RX_ERROR_MASK >> 24;
 1372              		.loc 1 126 0
 1373 00ce 9DF80A30 		ldrb	r3, [sp, #10]	@ zero_extendqisi2
 1374 00d2 43F02703 		orr	r3, r3, #39
 1375 00d6 8DF80A30 		strb	r3, [sp, #10]
 127:main.c        **** 				RxState = 2;
 1376              		.loc 1 127 0
 1377 00da 9DF80B30 		ldrb	r3, [sp, #11]	@ zero_extendqisi2
 1378 00de 43F00403 		orr	r3, r3, #4
 1379 00e2 8DF80B30 		strb	r3, [sp, #11]
 128:main.c        **** 			}
 1380              		.loc 1 128 0
 1381 00e6 0222     		movs	r2, #2
 1382 00e8 0F4B     		ldr	r3, .L85
 1383 00ea 83F86920 		strb	r2, [r3, #105]
 1384              	.L80:
 130:main.c        ****                 xQueueSend(Rx_q,(void*) &RxState,portMAX_DELAY);
 1385              		.loc 1 130 0
ARM GAS  C:\Users\PIERRE~1\AppData\Local\Temp\ccCMPfkd.s 			page 36


 1386 00ee 0E4B     		ldr	r3, .L85
 1387 00f0 93F86930 		ldrb	r3, [r3, #105]	@ zero_extendqisi2
 1388 00f4 DBB2     		uxtb	r3, r3
 1389 00f6 012B     		cmp	r3, #1
 1390 00f8 05D0     		beq	.L81
 130:main.c        ****                 xQueueSend(Rx_q,(void*) &RxState,portMAX_DELAY);
 1391              		.loc 1 130 0 is_stmt 0 discriminator 1
 1392 00fa 0B4B     		ldr	r3, .L85
 1393 00fc 93F86930 		ldrb	r3, [r3, #105]	@ zero_extendqisi2
 1394 0100 DBB2     		uxtb	r3, r3
 1395 0102 022B     		cmp	r3, #2
 1396 0104 08D1     		bne	.L82
 1397              	.L81:
 131:main.c        ****             }
 1398              		.loc 1 131 0 is_stmt 1
 1399 0106 0848     		ldr	r0, .L85
 1400 0108 0023     		movs	r3, #0
 1401 010a 4FF0FF32 		mov	r2, #-1
 1402 010e 00F16901 		add	r1, r0, #105
 1403 0112 C06E     		ldr	r0, [r0, #108]
 1404 0114 FFF7FEFF 		bl	xQueueGenericSend
 1405              	.LVL158:
 1406              	.L82:
 133:main.c        ****          }
 1407              		.loc 1 133 0
 1408 0118 0423     		movs	r3, #4
 1409 011a 02AA     		add	r2, sp, #8
 1410 011c 4FF6FF71 		movw	r1, #65535
 1411 0120 0F20     		movs	r0, #15
 1412 0122 FFF7FEFF 		bl	DWM_WriteSPI_ext
 1413              	.LVL159:
 1414 0126 6DE7     		b	.L76
 1415              	.L86:
 1416              		.align	2
 1417              	.L85:
 1418 0128 00000000 		.word	.LANCHOR0
 1419 012c 00902704 		.word	69701632
 1420              	.LBE5:
 1421              		.cfi_endproc
 1422              	.LFE71:
 1423              		.size	interrupt_routine, .-interrupt_routine
 1424              		.section	.text.main,"ax",%progbits
 1425              		.align	2
 1426              		.global	main
 1427              		.thumb
 1428              		.thumb_func
 1429              		.type	main, %function
 1430              	main:
 1431              	.LFB75:
 207:main.c        **** 	LED_1_Write(LIGHT_OFF);
 1432              		.loc 1 207 0
 1433              		.cfi_startproc
 1434              		@ args = 0, pretend = 0, frame = 0
 1435              		@ frame_needed = 0, uses_anonymous_args = 0
 1436 0000 70B5     		push	{r4, r5, r6, lr}
 1437              		.cfi_def_cfa_offset 16
 1438              		.cfi_offset 4, -16
ARM GAS  C:\Users\PIERRE~1\AppData\Local\Temp\ccCMPfkd.s 			page 37


 1439              		.cfi_offset 5, -12
 1440              		.cfi_offset 6, -8
 1441              		.cfi_offset 14, -4
 1442 0002 82B0     		sub	sp, sp, #8
 1443              		.cfi_def_cfa_offset 24
 208:main.c        ****     LED_2_Write(LIGHT_OFF);
 1444              		.loc 1 208 0
 1445 0004 0020     		movs	r0, #0
 1446 0006 FFF7FEFF 		bl	LED_1_Write
 1447              	.LVL160:
 209:main.c        ****     LED_3_Write(LIGHT_OFF);
 1448              		.loc 1 209 0
 1449 000a 0020     		movs	r0, #0
 1450 000c FFF7FEFF 		bl	LED_2_Write
 1451              	.LVL161:
 210:main.c        ****     LED_4_Write(LIGHT_OFF);
 1452              		.loc 1 210 0
 1453 0010 0020     		movs	r0, #0
 1454 0012 FFF7FEFF 		bl	LED_3_Write
 1455              	.LVL162:
 211:main.c        ****     
 1456              		.loc 1 211 0
 1457 0016 0020     		movs	r0, #0
 1458 0018 FFF7FEFF 		bl	LED_4_Write
 1459              	.LVL163:
 214:main.c        ****     TxPhoneData[61]=2;
 1460              		.loc 1 214 0
 1461 001c 3F4B     		ldr	r3, .L91
 1462 001e 0122     		movs	r2, #1
 1463 0020 83F83C20 		strb	r2, [r3, #60]
 215:main.c        ****     TxPhoneData[62]=3;
 1464              		.loc 1 215 0
 1465 0024 0221     		movs	r1, #2
 1466 0026 83F83D10 		strb	r1, [r3, #61]
 216:main.c        ****     
 1467              		.loc 1 216 0
 1468 002a 0322     		movs	r2, #3
 1469 002c 83F83E20 		strb	r2, [r3, #62]
 218:main.c        ****     
 1470              		.loc 1 218 0
 1471              		.syntax unified
 1472              	@ 218 "main.c" 1
 1473 0030 62B6     		CPSIE   i
 1474              	@ 0 "" 2
 220:main.c        ****     
 1475              		.loc 1 220 0
 1476              		.thumb
 1477              		.syntax unified
 1478 0032 0020     		movs	r0, #0
 1479 0034 FFF7FEFF 		bl	USBP_Start
 1480              	.LVL164:
 222:main.c        ****     Timer_1_Start();
 1481              		.loc 1 222 0
 1482 0038 FFF7FEFF 		bl	freeRTOSInit
 1483              	.LVL165:
 223:main.c        ****     
 1484              		.loc 1 223 0
ARM GAS  C:\Users\PIERRE~1\AppData\Local\Temp\ccCMPfkd.s 			page 38


 1485 003c FFF7FEFF 		bl	Timer_1_Start
 1486              	.LVL166:
 226:main.c        **** 	CyDelay(10u); //time for the DW to go from Wakeup to init and then IDLE
 1487              		.loc 1 226 0
 1488 0040 FFF7FEFF 		bl	SPIM_Start
 1489              	.LVL167:
 227:main.c        **** 	DWM_Init();
 1490              		.loc 1 227 0
 1491 0044 0A20     		movs	r0, #10
 1492 0046 FFF7FEFF 		bl	CyDelay
 1493              	.LVL168:
 228:main.c        ****     
 1494              		.loc 1 228 0
 1495 004a FFF7FEFF 		bl	DWM_Init
 1496              	.LVL169:
 231:main.c        ****     IRQ_SetPriority(ISR_PRIORITY);
 1497              		.loc 1 231 0
 1498 004e 3448     		ldr	r0, .L91+4
 1499 0050 FFF7FEFF 		bl	IRQ_StartEx
 1500              	.LVL170:
 232:main.c        ****     while(!USBP_bGetConfiguration());
 1501              		.loc 1 232 0
 1502 0054 0520     		movs	r0, #5
 1503 0056 FFF7FEFF 		bl	IRQ_SetPriority
 1504              	.LVL171:
 1505              	.L88:
 233:main.c        ****     //initialize tasks (one for each slave + usb_out, usb_in)
 1506              		.loc 1 233 0 discriminator 1
 1507 005a FFF7FEFF 		bl	USBP_GetConfiguration
 1508              	.LVL172:
 1509 005e 0028     		cmp	r0, #0
 1510 0060 FBD0     		beq	.L88
 235:main.c        ****     Rx_q = xQueueCreate(1, sizeof(uint8_t));
 1511              		.loc 1 235 0
 1512 0062 0022     		movs	r2, #0
 1513 0064 0421     		movs	r1, #4
 1514 0066 0A20     		movs	r0, #10
 1515 0068 FFF7FEFF 		bl	xQueueGenericCreate
 1516              	.LVL173:
 1517 006c 2D4C     		ldr	r4, .L91+8
 1518 006e 2060     		str	r0, [r4]
 236:main.c        ****     Tx_q = xQueueCreate(1, sizeof(uint8_t));
 1519              		.loc 1 236 0
 1520 0070 0022     		movs	r2, #0
 1521 0072 0121     		movs	r1, #1
 1522 0074 0846     		mov	r0, r1
 1523 0076 FFF7FEFF 		bl	xQueueGenericCreate
 1524              	.LVL174:
 1525 007a E066     		str	r0, [r4, #108]
 237:main.c        ****     semaphoreBuf1 = xSemaphoreCreateMutex();
 1526              		.loc 1 237 0
 1527 007c 0022     		movs	r2, #0
 1528 007e 0121     		movs	r1, #1
 1529 0080 0846     		mov	r0, r1
 1530 0082 FFF7FEFF 		bl	xQueueGenericCreate
 1531              	.LVL175:
 1532 0086 2067     		str	r0, [r4, #112]
ARM GAS  C:\Users\PIERRE~1\AppData\Local\Temp\ccCMPfkd.s 			page 39


 238:main.c        ****     xTaskCreate(interrupt_routine, "interrupt_routine",1024, NULL, INTERRUPT_PRIORITY, NULL);
 1533              		.loc 1 238 0
 1534 0088 0120     		movs	r0, #1
 1535 008a FFF7FEFF 		bl	xQueueCreateMutex
 1536              	.LVL176:
 1537 008e 264B     		ldr	r3, .L91+12
 1538 0090 1860     		str	r0, [r3]
 239:main.c        ****     int slaveNummer = 1;
 1539              		.loc 1 239 0
 1540 0092 0024     		movs	r4, #0
 1541 0094 0194     		str	r4, [sp, #4]
 1542 0096 0623     		movs	r3, #6
 1543 0098 0093     		str	r3, [sp]
 1544 009a 2346     		mov	r3, r4
 1545 009c 4FF48062 		mov	r2, #1024
 1546 00a0 2249     		ldr	r1, .L91+16
 1547 00a2 2348     		ldr	r0, .L91+20
 1548 00a4 FFF7FEFF 		bl	xTaskCreate
 1549              	.LVL177:
 241:main.c        ****     slaveNummer = 2;
 1550              		.loc 1 241 0
 1551 00a8 224E     		ldr	r6, .L91+24
 1552 00aa 234B     		ldr	r3, .L91+28
 1553 00ac 0193     		str	r3, [sp, #4]
 1554 00ae 0125     		movs	r5, #1
 1555 00b0 0095     		str	r5, [sp]
 1556 00b2 2B46     		mov	r3, r5
 1557 00b4 4FF48062 		mov	r2, #1024
 1558 00b8 2049     		ldr	r1, .L91+32
 1559 00ba 3046     		mov	r0, r6
 1560 00bc FFF7FEFF 		bl	xTaskCreate
 1561              	.LVL178:
 243:main.c        ****     slaveNummer = 3;
 1562              		.loc 1 243 0
 1563 00c0 1F4B     		ldr	r3, .L91+36
 1564 00c2 0193     		str	r3, [sp, #4]
 1565 00c4 0095     		str	r5, [sp]
 1566 00c6 0223     		movs	r3, #2
 1567 00c8 4FF48062 		mov	r2, #1024
 1568 00cc 1D49     		ldr	r1, .L91+40
 1569 00ce 3046     		mov	r0, r6
 1570 00d0 FFF7FEFF 		bl	xTaskCreate
 1571              	.LVL179:
 245:main.c        ****     xTaskCreate(usb_out, "usb_out", 1024, NULL, usb_out_prio, &usbOutHandler);
 1572              		.loc 1 245 0
 1573 00d4 1C4B     		ldr	r3, .L91+44
 1574 00d6 0193     		str	r3, [sp, #4]
 1575 00d8 0095     		str	r5, [sp]
 1576 00da 0323     		movs	r3, #3
 1577 00dc 4FF48062 		mov	r2, #1024
 1578 00e0 1A49     		ldr	r1, .L91+48
 1579 00e2 3046     		mov	r0, r6
 1580 00e4 FFF7FEFF 		bl	xTaskCreate
 1581              	.LVL180:
 246:main.c        ****     xTaskCreate(usb_in, "usb_in", 1024, NULL, usb_in_prio, &usbInHandler);
 1582              		.loc 1 246 0
 1583 00e8 194B     		ldr	r3, .L91+52
ARM GAS  C:\Users\PIERRE~1\AppData\Local\Temp\ccCMPfkd.s 			page 40


 1584 00ea 0193     		str	r3, [sp, #4]
 1585 00ec 194D     		ldr	r5, .L91+56
 1586 00ee EB78     		ldrb	r3, [r5, #3]	@ zero_extendqisi2
 1587 00f0 0093     		str	r3, [sp]
 1588 00f2 2346     		mov	r3, r4
 1589 00f4 4FF48062 		mov	r2, #1024
 1590 00f8 1749     		ldr	r1, .L91+60
 1591 00fa 1848     		ldr	r0, .L91+64
 1592 00fc FFF7FEFF 		bl	xTaskCreate
 1593              	.LVL181:
 247:main.c        ****     vTaskStartScheduler();
 1594              		.loc 1 247 0
 1595 0100 174B     		ldr	r3, .L91+68
 1596 0102 0193     		str	r3, [sp, #4]
 1597 0104 2B7D     		ldrb	r3, [r5, #20]	@ zero_extendqisi2
 1598 0106 0093     		str	r3, [sp]
 1599 0108 2346     		mov	r3, r4
 1600 010a 4FF48062 		mov	r2, #1024
 1601 010e 1549     		ldr	r1, .L91+72
 1602 0110 1548     		ldr	r0, .L91+76
 1603 0112 FFF7FEFF 		bl	xTaskCreate
 1604              	.LVL182:
 248:main.c        ****     for(;;){
 1605              		.loc 1 248 0
 1606 0116 FFF7FEFF 		bl	vTaskStartScheduler
 1607              	.LVL183:
 1608              	.L89:
 1609 011a FEE7     		b	.L89
 1610              	.L92:
 1611              		.align	2
 1612              	.L91:
 1613 011c 00000000 		.word	TxPhoneData
 1614 0120 00000000 		.word	ISR
 1615 0124 00000000 		.word	.LANCHOR0
 1616 0128 00000000 		.word	semaphoreBuf1
 1617 012c 00000000 		.word	.LC0
 1618 0130 00000000 		.word	interrupt_routine
 1619 0134 00000000 		.word	state_machine_task
 1620 0138 00000000 		.word	taskHandler1
 1621 013c 14000000 		.word	.LC1
 1622 0140 00000000 		.word	taskHandler2
 1623 0144 1C000000 		.word	.LC2
 1624 0148 00000000 		.word	taskHandler3
 1625 014c 24000000 		.word	.LC3
 1626 0150 00000000 		.word	usbOutHandler
 1627 0154 00000000 		.word	.LANCHOR1
 1628 0158 2C000000 		.word	.LC4
 1629 015c 00000000 		.word	usb_out
 1630 0160 00000000 		.word	usbInHandler
 1631 0164 34000000 		.word	.LC5
 1632 0168 00000000 		.word	usb_in
 1633              		.cfi_endproc
 1634              	.LFE75:
 1635              		.size	main, .-main
 1636              		.comm	semaphoreBuf1,4,4
 1637              		.comm	usbInHandler,4,4
 1638              		.comm	usbOutHandler,4,4
ARM GAS  C:\Users\PIERRE~1\AppData\Local\Temp\ccCMPfkd.s 			page 41


 1639              		.comm	taskHandler4,4,4
 1640              		.comm	taskHandler3,4,4
 1641              		.comm	taskHandler2,4,4
 1642              		.comm	taskHandler1,4,4
 1643              		.comm	state,1,1
 1644              		.global	TxOk
 1645              		.global	found
 1646              		.global	all_clock_time
 1647              		.comm	TxPhoneData,63,4
 1648              		.comm	RxPhoneData,8,4
 1649              		.global	number_bytes_receive
 1650              		.global	usb_in_prio
 1651              		.global	usb_out_prio
 1652              		.global	prio4
 1653              		.global	prio3
 1654              		.global	prio2
 1655              		.global	prio1
 1656              		.global	prio_matrice
 1657              		.data
 1658              		.align	2
 1659              		.set	.LANCHOR1,. + 0
 1660              		.type	prio1, %object
 1661              		.size	prio1, 1
 1662              	prio1:
 1663 0000 14       		.byte	20
 1664              		.type	prio2, %object
 1665              		.size	prio2, 1
 1666              	prio2:
 1667 0001 14       		.byte	20
 1668              		.type	prio3, %object
 1669              		.size	prio3, 1
 1670              	prio3:
 1671 0002 14       		.byte	20
 1672              		.type	usb_out_prio, %object
 1673              		.size	usb_out_prio, 1
 1674              	usb_out_prio:
 1675 0003 13       		.byte	19
 1676              		.type	prio_matrice, %object
 1677              		.size	prio_matrice, 16
 1678              	prio_matrice:
 1679 0004 0A       		.byte	10
 1680 0005 F6       		.byte	-10
 1681 0006 F6       		.byte	-10
 1682 0007 F6       		.byte	-10
 1683 0008 F6       		.byte	-10
 1684 0009 0A       		.byte	10
 1685 000a F6       		.byte	-10
 1686 000b F6       		.byte	-10
 1687 000c F6       		.byte	-10
 1688 000d F6       		.byte	-10
 1689 000e 0A       		.byte	10
 1690 000f F6       		.byte	-10
 1691 0010 F6       		.byte	-10
 1692 0011 F6       		.byte	-10
 1693 0012 F6       		.byte	-10
 1694 0013 0A       		.byte	10
 1695              		.type	usb_in_prio, %object
ARM GAS  C:\Users\PIERRE~1\AppData\Local\Temp\ccCMPfkd.s 			page 42


 1696              		.size	usb_in_prio, 1
 1697              	usb_in_prio:
 1698 0014 1E       		.byte	30
 1699              		.type	prio4, %object
 1700              		.size	prio4, 1
 1701              	prio4:
 1702 0015 14       		.byte	20
 1703              		.section	.rodata.str1.4,"aMS",%progbits,1
 1704              		.align	2
 1705              	.LC0:
 1706 0000 696E7465 		.ascii	"interrupt_routine\000"
 1706      72727570 
 1706      745F726F 
 1706      7574696E 
 1706      6500
 1707 0012 0000     		.space	2
 1708              	.LC1:
 1709 0014 736C6176 		.ascii	"slave_1\000"
 1709      655F3100 
 1710              	.LC2:
 1711 001c 736C6176 		.ascii	"slave_2\000"
 1711      655F3200 
 1712              	.LC3:
 1713 0024 736C6176 		.ascii	"slave_3\000"
 1713      655F3300 
 1714              	.LC4:
 1715 002c 7573625F 		.ascii	"usb_out\000"
 1715      6F757400 
 1716              	.LC5:
 1717 0034 7573625F 		.ascii	"usb_in\000"
 1717      696E00
 1718              		.bss
 1719              		.align	3
 1720              		.set	.LANCHOR0,. + 0
 1721              		.type	irq_queue, %object
 1722              		.size	irq_queue, 4
 1723              	irq_queue:
 1724 0000 00000000 		.space	4
 1725              		.type	number_bytes_receive, %object
 1726              		.size	number_bytes_receive, 2
 1727              	number_bytes_receive:
 1728 0004 0000     		.space	2
 1729 0006 0000     		.space	2
 1730              		.type	all_clock_time, %object
 1731              		.size	all_clock_time, 96
 1732              	all_clock_time:
 1733 0008 00000000 		.space	96
 1733      00000000 
 1733      00000000 
 1733      00000000 
 1733      00000000 
 1734              		.type	TxOk, %object
 1735              		.size	TxOk, 1
 1736              	TxOk:
 1737 0068 00       		.space	1
 1738              		.type	RxState, %object
 1739              		.size	RxState, 1
ARM GAS  C:\Users\PIERRE~1\AppData\Local\Temp\ccCMPfkd.s 			page 43


 1740              	RxState:
 1741 0069 00       		.space	1
 1742 006a 0000     		.space	2
 1743              		.type	Rx_q, %object
 1744              		.size	Rx_q, 4
 1745              	Rx_q:
 1746 006c 00000000 		.space	4
 1747              		.type	Tx_q, %object
 1748              		.size	Tx_q, 4
 1749              	Tx_q:
 1750 0070 00000000 		.space	4
 1751              		.type	found, %object
 1752              		.size	found, 1
 1753              	found:
 1754 0074 00       		.space	1
 1755              		.text
 1756              	.Letext0:
 1757              		.file 2 "c:\\program files (x86)\\cypress\\psoc creator\\4.3\\psoc creator\\import\\gnu\\arm\\5.4.
 1758              		.file 3 "c:\\program files (x86)\\cypress\\psoc creator\\4.3\\psoc creator\\import\\gnu\\arm\\5.4.
 1759              		.file 4 "Generated_Source\\PSoC5/cytypes.h"
 1760              		.file 5 ".\\FreeRTOS\\include/portmacro.h"
 1761              		.file 6 ".\\FreeRTOS\\include/task.h"
 1762              		.file 7 ".\\FreeRTOS\\include/queue.h"
 1763              		.file 8 ".\\FreeRTOS\\include/semphr.h"
 1764              		.file 9 "Generated_Source\\PSoC5/core_cm3.h"
 1765              		.file 10 "Generated_Source\\PSoC5/IRQ.h"
 1766              		.file 11 "Generated_Source\\PSoC5/pin_1.h"
 1767              		.file 12 "Generated_Source\\PSoC5/USBP.h"
 1768              		.file 13 "Generated_Source\\PSoC5/LED_1.h"
 1769              		.file 14 "Generated_Source\\PSoC5/LED_2.h"
 1770              		.file 15 "Generated_Source\\PSoC5/LED_3.h"
 1771              		.file 16 "Generated_Source\\PSoC5/LED_4.h"
 1772              		.file 17 "dwm1000.h"
 1773              		.file 18 "Generated_Source\\PSoC5/Timer_1.h"
 1774              		.file 19 "Generated_Source\\PSoC5/SPIM.h"
 1775              		.file 20 "Generated_Source\\PSoC5/CyLib.h"
 1776              		.file 21 "main.h"